

Microchip Technology PIC18 LITE Macro Assembler V1.34 build -361300703 
                                                                                               Mon Jan 25 15:52:23 2016

Microchip Technology Omniscient Code Generator (Lite mode) build 201502162209
     1                           	processor	18F45K50
     2                           	fnconf	rparam,??,?,0
     3                           	opt	pw 120
     4                           	opt	lm
     5                           	psect	smallconst,global,reloc=2,class=SMALLCONST,delta=1
     6                           	psect	cinit,global,reloc=2,class=CODE,delta=1
     7                           	psect	bssCOMRAM,global,class=COMRAM,space=1,delta=1
     8                           	psect	bssBANK0,global,class=BANK0,space=1,delta=1
     9                           	psect	cstackBANK0,global,class=BANK0,space=1,delta=1
    10                           	psect	cstackCOMRAM,global,class=COMRAM,space=1,delta=1
    11                           	psect	text0,global,reloc=2,class=CODE,delta=1
    12                           	psect	text1,global,reloc=2,class=CODE,delta=1
    13                           	psect	text2,global,reloc=2,class=CODE,delta=1
    14                           	psect	text3,global,reloc=2,class=CODE,delta=1
    15                           	psect	text4,global,reloc=2,class=CODE,delta=1
    16                           	psect	text5,global,reloc=2,class=CODE,delta=1
    17                           	psect	text6,global,reloc=2,class=CODE,delta=1
    18                           	psect	text7,global,reloc=2,class=CODE,delta=1
    19                           	psect	text8,global,reloc=2,class=CODE,delta=1
    20                           	psect	text9,global,reloc=2,class=CODE,delta=1
    21                           	psect	text10,global,reloc=2,class=CODE,delta=1
    22                           	psect	text11,global,reloc=2,class=CODE,delta=1
    23                           	psect	text12,global,reloc=2,class=CODE,delta=1
    24                           	psect	text13,global,reloc=2,class=CODE,delta=1
    25                           	psect	intcode,global,reloc=2,class=CODE,delta=1
    26                           	psect	text15,global,reloc=2,class=CODE,delta=1
    27                           	psect	text16,global,reloc=2,class=CODE,delta=1
    28                           	psect	text17,global,reloc=2,class=CODE,delta=1
    29                           	psect	text18,global,reloc=2,class=CODE,delta=1
    30                           	psect	text19,global,reloc=2,class=CODE,delta=1
    31                           	psect	text20,global,reloc=2,class=CODE,delta=1
    32                           	psect	text21,global,reloc=2,class=CODE,delta=1
    33                           	psect	text22,global,reloc=2,class=CODE,delta=1
    34                           	psect	text23,global,reloc=2,class=CODE,delta=1
    35                           	psect	text24,global,reloc=2,class=CODE,delta=1
    36                           	psect	text25,global,reloc=2,class=CODE,delta=1
    37                           	psect	text26,global,reloc=2,class=CODE,delta=1
    38                           	psect	text27,global,reloc=2,class=CODE,delta=1
    39                           	psect	text28,global,reloc=2,class=CODE,delta=1
    40                           	psect	text29,global,reloc=2,class=CODE,delta=1
    41                           	psect	text30,global,reloc=2,class=CODE,delta=1
    42                           	psect	text31,global,reloc=2,class=CODE,delta=1
    43                           	psect	text32,global,reloc=2,class=CODE,delta=1
    44                           	psect	text33,global,reloc=2,class=CODE,delta=1
    45                           	psect	text34,global,reloc=2,class=CODE,delta=1
    46                           	psect	text35,global,reloc=2,class=CODE,delta=1
    47                           	psect	text36,global,reloc=2,class=CODE,delta=1
    48                           	psect	text37,global,reloc=2,class=CODE,delta=1
    49                           	psect	text38,global,reloc=2,class=CODE,delta=1
    50                           	psect	text39,global,reloc=2,class=CODE,delta=1
    51                           	psect	text40,global,reloc=2,class=CODE,delta=1
    52                           	psect	text41,global,reloc=2,class=CODE,delta=1
    53                           	psect	text42,global,reloc=2,class=CODE,delta=1
    54                           	psect	text43,global,reloc=2,class=CODE,delta=1
    55                           	psect	text44,global,reloc=2,class=CODE,delta=1
    56                           	psect	text45,global,reloc=2,class=CODE,delta=1
    57                           	psect	text46,global,reloc=2,class=CODE,delta=1
    58                           	psect	text47,global,reloc=2,class=CODE,delta=1
    59                           	psect	text48,global,reloc=2,class=CODE,delta=1
    60                           	psect	text49,global,reloc=2,class=CODE,delta=1
    61                           	psect	text50,global,reloc=2,class=CODE,delta=1
    62                           	psect	intsave_regs,global,class=BIGRAM,space=1,delta=1
    63                           	psect	rparam,global,class=COMRAM,space=1,delta=1
    64                           	dabs	1,0x500,64,_ReceivedDataBuffer
    65                           	dabs	1,0x400,32,_BDT
    66                           	dabs	1,0x540,64,_ToSendDataBuffer
    67                           	dabs	1,0x428,8,_CtrlTrfData
    68                           	dabs	1,0x420,8,_SetupPkt
    69  0000                     
    70                           	psect	smallconst
    71  000800                     __psmallconst:
    72                           	opt stack 0
    73  000800  00                 	db	0
    74  000801                     _USB_SD_Ptr:
    75                           	opt stack 0
    76  000801  C3                 	db	low _sd000
    77  000802  08                 	db	high _sd000
    78  000803  09                 	db	low _sd001
    79  000804  08                 	db	high _sd001
    80  000805  3D                 	db	low _sd002
    81  000806  08                 	db	high _sd002
    82  000807                     __end_of_USB_SD_Ptr:
    83                           	opt stack 0
    84  000807                     _USB_CD_Ptr:
    85                           	opt stack 0
    86  000807  6B                 	db	low _configDescriptor1
    87  000808  08                 	db	high _configDescriptor1
    88  000809                     __end_of_USB_CD_Ptr:
    89                           	opt stack 0
    90  000809                     _sd001:
    91                           	opt stack 0
    92  000809  34                 	db	52
    93  00080A  03                 	db	3
    94  00080B  004D               	dw	77
    95  00080D  0069               	dw	105
    96  00080F  0063               	dw	99
    97  000811  0072               	dw	114
    98  000813  006F               	dw	111
    99  000815  0063               	dw	99
   100  000817  0068               	dw	104
   101  000819  0069               	dw	105
   102  00081B  0070               	dw	112
   103  00081D  0020               	dw	32
   104  00081F  0054               	dw	84
   105  000821  0065               	dw	101
   106  000823  0063               	dw	99
   107  000825  0068               	dw	104
   108  000827  006E               	dw	110
   109  000829  006F               	dw	111
   110  00082B  006C               	dw	108
   111  00082D  006F               	dw	111
   112  00082F  0067               	dw	103
   113  000831  0079               	dw	121
   114  000833  0020               	dw	32
   115  000835  0049               	dw	73
   116  000837  006E               	dw	110
   117  000839  0063               	dw	99
   118  00083B  002E               	dw	46
   119  00083D                     __end_of_sd001:
   120                           	opt stack 0
   121  00083D                     _sd002:
   122                           	opt stack 0
   123  00083D  2E                 	db	46
   124  00083E  03                 	db	3
   125  00083F  0053               	dw	83
   126  000841  0069               	dw	105
   127  000843  006D               	dw	109
   128  000845  0070               	dw	112
   129  000847  006C               	dw	108
   130  000849  0065               	dw	101
   131  00084B  0020               	dw	32
   132  00084D  0048               	dw	72
   133  00084F  0049               	dw	73
   134  000851  0044               	dw	68
   135  000853  0020               	dw	32
   136  000855  0044               	dw	68
   137  000857  0065               	dw	101
   138  000859  0076               	dw	118
   139  00085B  0069               	dw	105
   140  00085D  0063               	dw	99
   141  00085F  0065               	dw	101
   142  000861  0020               	dw	32
   143  000863  0044               	dw	68
   144  000865  0065               	dw	101
   145  000867  006D               	dw	109
   146  000869  006F               	dw	111
   147  00086B                     __end_of_sd002:
   148                           	opt stack 0
   149  00086B                     _configDescriptor1:
   150                           	opt stack 0
   151  00086B  09                 	db	9
   152  00086C  02                 	db	2
   153  00086D  29                 	db	41
   154  00086E  00                 	db	0
   155  00086F  01                 	db	1
   156  000870  01                 	db	1
   157  000871  00                 	db	0
   158  000872  C0                 	db	192
   159  000873  32                 	db	50
   160  000874  09                 	db	9
   161  000875  04                 	db	4
   162  000876  00                 	db	0
   163  000877  00                 	db	0
   164  000878  02                 	db	2
   165  000879  03                 	db	3
   166  00087A  00                 	db	0
   167  00087B  00                 	db	0
   168  00087C  00                 	db	0
   169  00087D  09                 	db	9
   170  00087E  21                 	db	33
   171  00087F  11                 	db	17
   172  000880  01                 	db	1
   173  000881  00                 	db	0
   174  000882  01                 	db	1
   175  000883  22                 	db	34
   176  000884  1D                 	db	29
   177  000885  00                 	db	0
   178  000886  07                 	db	7
   179  000887  05                 	db	5
   180  000888  81                 	db	129
   181  000889  03                 	db	3
   182  00088A  40                 	db	64
   183  00088B  00                 	db	0
   184  00088C  01                 	db	1
   185  00088D  07                 	db	7
   186  00088E  05                 	db	5
   187  00088F  01                 	db	1
   188  000890  03                 	db	3
   189  000891  40                 	db	64
   190  000892  00                 	db	0
   191  000893  01                 	db	1
   192  000894                     __end_of_configDescriptor1:
   193                           	opt stack 0
   194  000894                     _hid_rpt01:
   195                           	opt stack 0
   196  000894  06                 	db	6
   197  000895  00                 	db	0
   198  000896  FF                 	db	255
   199  000897  09                 	db	9
   200  000898  01                 	db	1
   201  000899  A1                 	db	161
   202  00089A  01                 	db	1
   203  00089B  19                 	db	25
   204  00089C  01                 	db	1
   205  00089D  29                 	db	41
   206  00089E  40                 	db	64
   207  00089F  15                 	db	21
   208  0008A0  00                 	db	0
   209  0008A1  26                 	db	38
   210  0008A2  FF                 	db	255
   211  0008A3  00                 	db	0
   212  0008A4  75                 	db	117
   213  0008A5  08                 	db	8
   214  0008A6  95                 	db	149
   215  0008A7  40                 	db	64
   216  0008A8  81                 	db	129
   217  0008A9  00                 	db	0
   218  0008AA  19                 	db	25
   219  0008AB  01                 	db	1
   220  0008AC  29                 	db	41
   221  0008AD  40                 	db	64
   222  0008AE  91                 	db	145
   223  0008AF  00                 	db	0
   224  0008B0  C0                 	db	192
   225  0008B1                     __end_of_hid_rpt01:
   226                           	opt stack 0
   227  0008B1                     _device_dsc:
   228                           	opt stack 0
   229  0008B1  12                 	db	18
   230  0008B2  01                 	db	1
   231  0008B3  0200               	dw	512
   232  0008B5  00                 	db	0
   233  0008B6  00                 	db	0
   234  0008B7  00                 	db	0
   235  0008B8  08                 	db	8
   236  0008B9  04D8               	dw	1240
   237  0008BB  003F               	dw	63
   238  0008BD  0100               	dw	256
   239  0008BF  01                 	db	1
   240  0008C0  02                 	db	2
   241  0008C1  00                 	db	0
   242  0008C2  01                 	db	1
   243  0008C3                     __end_of_device_dsc:
   244                           	opt stack 0
   245  0008C3                     _sd000:
   246                           	opt stack 0
   247  0008C3  04                 	db	4
   248  0008C4  03                 	db	3
   249  0008C5  0409               	dw	1033
   250  0008C7                     __end_of_sd000:
   251                           	opt stack 0
   252  0000                     _ANSELAbits	set	3931
   253  0000                     _ANSELCbits	set	3933
   254  0000                     _ANSELDbits	set	3934
   255  0000                     _ACTCON	set	4021
   256  0000                     _ADCON0	set	4034
   257  0000                     _ADCON0bits	set	4034
   258  0000                     _ADCON1	set	4033
   259  0000                     _ADCON2	set	4032
   260  0000                     _ADRESH	set	4036
   261  0000                     _ADRESL	set	4035
   262  0000                     _INTCONbits	set	4082
   263  0000                     _IPR3bits	set	4005
   264  0000                     _LATCbits	set	3979
   265  0000                     _OSCCON	set	4051
   266  0000                     _OSCCON2	set	4050
   267  0000                     _OSCCON2bits	set	4050
   268  0000                     _OSCTUNE	set	3995
   269  0000                     _PIE3bits	set	4003
   270  0000                     _PIR3bits	set	4004
   271  0000                     _PORTDbits	set	3971
   272  0000                     _RCONbits	set	4048
   273  0000                     _TRISAbits	set	3986
   274  0000                     _TRISCbits	set	3988
   275  0000                     _TRISDbits	set	3989
   276  0000                     _UADDR	set	3939
   277  0000                     _UCFG	set	3938
   278  0000                     _UCON	set	3936
   279  0000                     _UCONbits	set	3936
   280  0000                     _UEIE	set	3942
   281  0000                     _UEIR	set	3943
   282  0000                     _UEP0bits	set	3946
   283  0000                     _UIE	set	3940
   284  0000                     _UIEbits	set	3940
   285  0000                     _UIR	set	3941
   286  0000                     _UIRbits	set	3941
   287  0000                     _USTAT	set	3937
   288  0000                     _UEP0	set	3946
   289  0000                     _UEP1	set	3947
   290                           
   291                           ; #config settings
   292  0008C7  00                 	db	0	; dummy byte at the end
   293  0000                     
   294                           	psect	cinit
   295  002228                     __pcinit:
   296                           	opt stack 0
   297  002228                     start_initialization:
   298                           	opt stack 0
   299  002228                     __initialization:
   300                           	opt stack 0
   301                           
   302                           ; Clear objects allocated to BANK0 (17 bytes)
   303  002228  EE00  F060         	lfsr	0,__pbssBANK0
   304  00222C  0E11               	movlw	17
   305  00222E                     clear_0:
   306  00222E  6AEE               	clrf	postinc0,c
   307  002230  06E8               	decf	wreg,f,c
   308  002232  E1FD               	bnz	clear_0
   309                           
   310                           ; Clear objects allocated to COMRAM (44 bytes)
   311  002234  EE00  F001         	lfsr	0,__pbssCOMRAM
   312  002238  0E2C               	movlw	44
   313  00223A                     clear_1:
   314  00223A  6AEE               	clrf	postinc0,c
   315  00223C  06E8               	decf	wreg,f,c
   316  00223E  E1FD               	bnz	clear_1
   317  002240                     end_of_initialization:
   318                           	opt stack 0
   319  002240                     __end_of__initialization:
   320                           	opt stack 0
   321  002240  0E00               	movlw	low (__Lmediumconst shr (0+16))
   322  002242  6EF8               	movwf	tblptru,c
   323  002244  0100               	movlb	0
   324  002246  EFEB  F010         	goto	_main	;jump to C main() function
   325                           tblptru	equ	0xFF8
   326                           postinc0	equ	0xFEE
   327                           wreg	equ	0xFE8
   328                           
   329                           	psect	bssCOMRAM
   330  000001                     __pbssCOMRAM:
   331                           	opt stack 0
   332  000001                     _outPipes:
   333                           	opt stack 0
   334  000001                     	ds	8
   335  000009                     _pBDTEntryIn:
   336                           	opt stack 0
   337  000009                     	ds	4
   338  00000D                     APP_LEDUpdateUSBStatus@ledCount:
   339                           	opt stack 0
   340  00000D                     	ds	2
   341  00000F                     _ep_data_in:
   342                           	opt stack 0
   343  00000F                     	ds	2
   344  000011                     _ep_data_out:
   345                           	opt stack 0
   346  000011                     	ds	2
   347  000013                     _pBDTEntryEP0OutCurrent:
   348                           	opt stack 0
   349  000013                     	ds	2
   350  000015                     _pBDTEntryEP0OutNext:
   351                           	opt stack 0
   352  000015                     	ds	2
   353  000017                     _BothEP0OutUOWNsSet:
   354                           	opt stack 0
   355  000017                     	ds	1
   356  000018                     _RemoteWakeup:
   357                           	opt stack 0
   358  000018                     	ds	1
   359  000019                     _USBBusIsSuspended:
   360                           	opt stack 0
   361  000019                     	ds	1
   362  00001A                     _USBDeferINDataStagePackets:
   363                           	opt stack 0
   364  00001A                     	ds	1
   365  00001B                     _USBDeferOUTDataStagePackets:
   366                           	opt stack 0
   367  00001B                     	ds	1
   368  00001C                     _USBDeferStatusStagePacket:
   369                           	opt stack 0
   370  00001C                     	ds	1
   371  00001D                     _USBDeviceState:
   372                           	opt stack 0
   373  00001D                     	ds	1
   374  00001E                     _USBStatusStageEnabledFlag1:
   375                           	opt stack 0
   376  00001E                     	ds	1
   377  00001F                     _USBStatusStageEnabledFlag2:
   378                           	opt stack 0
   379  00001F                     	ds	1
   380  000020                     _USBStatusStageTimeoutCounter:
   381                           	opt stack 0
   382  000020                     	ds	1
   383  000021                     _controlTransferState:
   384                           	opt stack 0
   385  000021                     	ds	1
   386  000022                     _endpoint_number:
   387                           	opt stack 0
   388  000022                     	ds	1
   389  000023                     _shortPacketStatus:
   390                           	opt stack 0
   391  000023                     	ds	1
   392  000024                     _inPipes:
   393                           	opt stack 0
   394  000024                     	ds	6
   395  00002A                     _USBActiveConfiguration:
   396                           	opt stack 0
   397  00002A                     	ds	1
   398  00002B                     _USBAlternateInterface:
   399                           	opt stack 0
   400  00002B                     	ds	1
   401  00002C                     _USTATcopy:
   402                           	opt stack 0
   403  00002C                     	ds	1
   404                           tblptru	equ	0xFF8
   405                           postinc0	equ	0xFEE
   406                           wreg	equ	0xFE8
   407                           
   408                           	psect	bssBANK0
   409  000060                     __pbssBANK0:
   410                           	opt stack 0
   411  000060                     _USB1msTickCount:
   412                           	opt stack 0
   413  000060                     	ds	4
   414  000064                     _pBDTEntryOut:
   415                           	opt stack 0
   416  000064                     	ds	4
   417  000068                     _USBInHandle:
   418                           	opt stack 0
   419  000068                     	ds	2
   420  00006A                     _USBOutHandle:
   421                           	opt stack 0
   422  00006A                     	ds	2
   423  00006C                     _pDst:
   424                           	opt stack 0
   425  00006C                     	ds	2
   426  00006E                     _USBTicksSinceSuspendEnd:
   427                           	opt stack 0
   428  00006E                     	ds	1
   429  00006F                     _active_protocol:
   430                           	opt stack 0
   431  00006F                     	ds	1
   432  000070                     _idle_rate:
   433                           	opt stack 0
   434  000070                     	ds	1
   435                           tblptru	equ	0xFF8
   436                           postinc0	equ	0xFEE
   437                           wreg	equ	0xFE8
   438                           
   439                           	psect	cstackBANK0
   440  000071                     __pcstackBANK0:
   441                           	opt stack 0
   442  000071                     ?_ADC_Read10bit:
   443                           	opt stack 0
   444  000071                     ?_USBTransferOnePacket:
   445                           	opt stack 0
   446  000071                     BUTTON_IsPressed@button:
   447                           	opt stack 0
   448  000071                     BUTTON_Enable@button:
   449                           	opt stack 0
   450  000071                     ADC_Enable@channel:
   451                           	opt stack 0
   452  000071                     ADC_SetConfiguration@configuration:
   453                           	opt stack 0
   454  000071                     LED_Toggle@led:
   455                           	opt stack 0
   456  000071                     LED_Enable@led:
   457                           	opt stack 0
   458  000071                     USBTransferOnePacket@dir:
   459                           	opt stack 0
   460  000071                     memset@p1:
   461                           	opt stack 0
   462                           
   463                           ; 2 bytes @ 0x0
   464  000071                     	ds	1
   465  000072                     SYSTEM_Initialize@state:
   466                           	opt stack 0
   467  000072                     USBTransferOnePacket@data:
   468                           	opt stack 0
   469                           
   470                           ; 2 bytes @ 0x1
   471  000072                     	ds	1
   472  000073                     ??_ADC_Read10bit:
   473  000073                     memset@c:
   474                           	opt stack 0
   475                           
   476                           ; 2 bytes @ 0x2
   477  000073                     	ds	1
   478  000074                     USBTransferOnePacket@len:
   479                           	opt stack 0
   480  000074                     ADC_Read10bit@result:
   481                           	opt stack 0
   482                           
   483                           ; 2 bytes @ 0x3
   484  000074                     	ds	1
   485  000075                     USBTransferOnePacket@ep:
   486                           	opt stack 0
   487  000075                     memset@n:
   488                           	opt stack 0
   489                           
   490                           ; 2 bytes @ 0x4
   491  000075                     	ds	1
   492  000076                     ADC_Read10bit@channel:
   493                           	opt stack 0
   494  000076                     USBTransferOnePacket@handle:
   495                           	opt stack 0
   496                           
   497                           ; 2 bytes @ 0x5
   498  000076                     	ds	1
   499  000077                     memset@p:
   500                           	opt stack 0
   501                           
   502                           ; 2 bytes @ 0x6
   503  000077                     	ds	1
   504  000078                     APP_DeviceCustomHIDTasks@pot:
   505                           	opt stack 0
   506                           
   507                           ; 2 bytes @ 0x7
   508  000078                     	ds	1
   509  000079                     USBDeviceInit@i:
   510                           	opt stack 0
   511                           
   512                           ; 1 bytes @ 0x8
   513  000079                     	ds	1
   514  00007A                     tblptru	equ	0xFF8
   515                           postinc0	equ	0xFEE
   516                           wreg	equ	0xFE8
   517                           
   518                           ; 0 bytes @ 0x9
   519                           
   520                           	psect	cstackCOMRAM
   521  00002D                     __pcstackCOMRAM:
   522                           	opt stack 0
   523  00002D                     ??_USBStdGetDscHandler:
   524  00002D                     ??_USBStdGetStatusHandler:
   525  00002D                     ?i2_USBTransferOnePacket:
   526                           	opt stack 0
   527  00002D                     LED_On@led:
   528                           	opt stack 0
   529  00002D                     LED_Off@led:
   530                           	opt stack 0
   531  00002D                     USBConfigureEndpoint@direction:
   532                           	opt stack 0
   533  00002D                     USBCtrlTrfTxService@byteToSend:
   534                           	opt stack 0
   535  00002D                     USBCtrlTrfRxService@i:
   536                           	opt stack 0
   537  00002D                     i2BUTTON_Enable@button:
   538                           	opt stack 0
   539  00002D                     i2ADC_Enable@channel:
   540                           	opt stack 0
   541  00002D                     i2ADC_SetConfiguration@configuration:
   542                           	opt stack 0
   543  00002D                     i2LED_Enable@led:
   544                           	opt stack 0
   545  00002D                     i2USBTransferOnePacket@dir:
   546                           	opt stack 0
   547  00002D                     memcpy@d1:
   548                           	opt stack 0
   549  00002D                     i2memset@p1:
   550                           	opt stack 0
   551                           
   552                           ; 2 bytes @ 0x0
   553  00002D                     	ds	1
   554  00002E                     ??_USBConfigureEndpoint:
   555  00002E                     USBCtrlTrfRxService@byteToRead:
   556                           	opt stack 0
   557  00002E                     USBCtrlTrfInHandler@lastDTS:
   558                           	opt stack 0
   559  00002E                     i2SYSTEM_Initialize@state:
   560                           	opt stack 0
   561  00002E                     USBStdGetStatusHandler@p:
   562                           	opt stack 0
   563  00002E                     i2USBTransferOnePacket@data:
   564                           	opt stack 0
   565                           
   566                           ; 2 bytes @ 0x1
   567  00002E                     	ds	1
   568  00002F                     memcpy@s1:
   569                           	opt stack 0
   570  00002F                     i2memset@c:
   571                           	opt stack 0
   572                           
   573                           ; 2 bytes @ 0x2
   574  00002F                     	ds	1
   575  000030                     i2USBTransferOnePacket@len:
   576                           	opt stack 0
   577                           
   578                           ; 1 bytes @ 0x3
   579  000030                     	ds	1
   580  000031                     i2USBTransferOnePacket@ep:
   581                           	opt stack 0
   582  000031                     memcpy@n:
   583                           	opt stack 0
   584  000031                     i2memset@n:
   585                           	opt stack 0
   586                           
   587                           ; 2 bytes @ 0x4
   588  000031                     	ds	1
   589  000032                     USBConfigureEndpoint@EPNum:
   590                           	opt stack 0
   591  000032                     i2USBTransferOnePacket@handle:
   592                           	opt stack 0
   593                           
   594                           ; 2 bytes @ 0x5
   595  000032                     	ds	1
   596  000033                     USBConfigureEndpoint@handle:
   597                           	opt stack 0
   598  000033                     memcpy@d:
   599                           	opt stack 0
   600  000033                     i2memset@p:
   601                           	opt stack 0
   602                           
   603                           ; 2 bytes @ 0x6
   604  000033                     	ds	2
   605  000035                     USBEnableEndpoint@options:
   606                           	opt stack 0
   607  000035                     i2USBDeviceInit@i:
   608                           	opt stack 0
   609  000035                     memcpy@s:
   610                           	opt stack 0
   611                           
   612                           ; 2 bytes @ 0x8
   613  000035                     	ds	1
   614  000036                     USBEnableEndpoint@p:
   615                           	opt stack 0
   616                           
   617                           ; 2 bytes @ 0x9
   618  000036                     	ds	2
   619  000038                     USBEnableEndpoint@ep:
   620                           	opt stack 0
   621                           
   622                           ; 1 bytes @ 0xB
   623  000038                     	ds	1
   624  000039                     USER_USB_CALLBACK_EVENT_HANDLER@event:
   625                           	opt stack 0
   626                           
   627                           ; 2 bytes @ 0xC
   628  000039                     	ds	2
   629  00003B                     USER_USB_CALLBACK_EVENT_HANDLER@pdata:
   630                           	opt stack 0
   631                           
   632                           ; 2 bytes @ 0xE
   633  00003B                     	ds	2
   634  00003D                     USER_USB_CALLBACK_EVENT_HANDLER@size:
   635                           	opt stack 0
   636                           
   637                           ; 2 bytes @ 0x10
   638  00003D                     	ds	2
   639  00003F                     ??_USER_USB_CALLBACK_EVENT_HANDLER:
   640                           
   641                           ; 0 bytes @ 0x12
   642  00003F                     	ds	2
   643  000041                     ??_USBStdFeatureReqHandler:
   644  000041                     USBStdSetCfgHandler@i:
   645                           	opt stack 0
   646                           
   647                           ; 1 bytes @ 0x14
   648  000041                     	ds	1
   649  000042                     USBStdFeatureReqHandler@pUEP:
   650                           	opt stack 0
   651                           
   652                           ; 2 bytes @ 0x15
   653  000042                     	ds	2
   654  000044                     USBStdFeatureReqHandler@current_ep_data:
   655                           	opt stack 0
   656                           
   657                           ; 1 bytes @ 0x17
   658  000044                     	ds	1
   659  000045                     USBStdFeatureReqHandler@p:
   660                           	opt stack 0
   661                           
   662                           ; 2 bytes @ 0x18
   663  000045                     	ds	2
   664  000047                     ??_USBCtrlEPService:
   665  000047                     
   666                           ; 0 bytes @ 0x1A
   667  000047                     	ds	1
   668  000048                     USBDeviceTasks@i:
   669                           	opt stack 0
   670                           
   671                           ; 1 bytes @ 0x1B
   672  000048                     	ds	1
   673  000049                     ??_SYS_InterruptHigh:
   674                           
   675                           ; 0 bytes @ 0x1C
   676  000049                     	ds	14
   677                           tblptru	equ	0xFF8
   678                           postinc0	equ	0xFEE
   679                           wreg	equ	0xFE8
   680                           
   681 ;;
   682 ;;Main: autosize = 0, tempsize = 0, incstack = 0, save=0
   683 ;;
   684 ;; *************** function _main *****************
   685 ;; Defined at:
   686 ;;		line 35 in file "../src/main.c"
   687 ;; Parameters:    Size  Location     Type
   688 ;;		None
   689 ;; Auto vars:     Size  Location     Type
   690 ;;		None
   691 ;; Return value:  Size  Location     Type
   692 ;;		None               void
   693 ;; Registers used:
   694 ;;		wreg, fsr2l, fsr2h, status,2, status,0, prodl, prodh, cstack
   695 ;; Tracked objects:
   696 ;;		On entry : 0/0
   697 ;;		On exit  : 0/0
   698 ;;		Unchanged: 0/0
   699 ;; Data sizes:     COMRAM   BANK0   BANK1   BANK2   BANK3   BANK4   BANK5   BANK6   BANK7
   700 ;;      Params:         0       0       0       0       0       0       0       0       0
   701 ;;      Locals:         0       0       0       0       0       0       0       0       0
   702 ;;      Temps:          0       0       0       0       0       0       0       0       0
   703 ;;      Totals:         0       0       0       0       0       0       0       0       0
   704 ;;Total ram usage:        0 bytes
   705 ;; Hardware stack levels required when called:   12
   706 ;; This function calls:
   707 ;;		_APP_DeviceCustomHIDTasks
   708 ;;		_SYSTEM_Initialize
   709 ;;		_USBDeviceAttach
   710 ;;		_USBDeviceInit
   711 ;; This function is called by:
   712 ;;		Startup code after reset
   713 ;; This function uses a non-reentrant model
   714 ;;
   715                           
   716                           	psect	text0
   717  0021D6                     __ptext0:
   718                           	opt stack 0
   719  0021D6                     _main:
   720                           	opt stack 19
   721                           
   722                           ;main.c: 37: SYSTEM_Initialize(SYSTEM_STATE_USB_START);
   723                           
   724                           ; BSR set to: 0
   725                           ;incstack = 0
   726  0021D6  0E00               	movlw	0
   727  0021D8  EC88  F00F         	call	_SYSTEM_Initialize
   728                           
   729                           ;main.c: 39: USBDeviceInit();
   730  0021DC  ECAB  F005         	call	_USBDeviceInit	;wreg free
   731                           
   732                           ;main.c: 40: USBDeviceAttach();
   733  0021E0  EC8C  F010         	call	_USBDeviceAttach	;wreg free
   734  0021E4  D000               	goto	l4098
   735  0021E6                     l4098:
   736                           
   737                           ;main.c: 43: {
   738                           ;main.c: 44: ;
   739                           ;main.c: 65: if( USBDeviceState < CONFIGURED_STATE )
   740  0021E6  0E20               	movlw	32
   741  0021E8  601D               	cpfslt	_USBDeviceState,c	;volatile
   742  0021EA  D001               	goto	l180
   743                           
   744                           ;main.c: 66: {
   745                           ;main.c: 68: continue;
   746  0021EC  D7FC               	goto	l4098
   747  0021EE                     l180:
   748                           
   749                           ;main.c: 69: }
   750                           ;main.c: 75: if( UCONbits.SUSPND == 1 )
   751  0021EE  B260               	btfsc	3936,1,c	;volatile
   752  0021F0  D7FA               	goto	l4098
   753  0021F2  D001               	goto	l4104
   754                           
   755                           ;main.c: 76: {
   756                           ;main.c: 78: continue;
   757  0021F4  D7F8               	goto	l4098
   758  0021F6                     l4104:
   759                           
   760                           ;main.c: 79: }
   761                           ;main.c: 82: APP_DeviceCustomHIDTasks();
   762  0021F6  ECA2  F007         	call	_APP_DeviceCustomHIDTasks	;wreg free
   763  0021FA  D7F5               	goto	l4098
   764  0021FC  EF3F  F000         	goto	start
   765  002200                     __end_of_main:
   766                           	opt stack 0
   767                           tblptru	equ	0xFF8
   768                           postinc0	equ	0xFEE
   769                           wreg	equ	0xFE8
   770                           
   771 ;; *************** function _USBDeviceInit *****************
   772 ;; Defined at:
   773 ;;		line 295 in file "../../../../../../microchip/mla/v2015_08_10/framework/usb/src/usb_device.c"
   774 ;; Parameters:    Size  Location     Type
   775 ;;		None
   776 ;; Auto vars:     Size  Location     Type
   777 ;;  i               1    8[BANK0 ] unsigned char 
   778 ;; Return value:  Size  Location     Type
   779 ;;		None               void
   780 ;; Registers used:
   781 ;;		wreg, fsr2l, fsr2h, status,2, status,0, prodl, prodh, cstack
   782 ;; Tracked objects:
   783 ;;		On entry : 0/0
   784 ;;		On exit  : 0/0
   785 ;;		Unchanged: 0/0
   786 ;; Data sizes:     COMRAM   BANK0   BANK1   BANK2   BANK3   BANK4   BANK5   BANK6   BANK7
   787 ;;      Params:         0       0       0       0       0       0       0       0       0
   788 ;;      Locals:         0       1       0       0       0       0       0       0       0
   789 ;;      Temps:          0       0       0       0       0       0       0       0       0
   790 ;;      Totals:         0       1       0       0       0       0       0       0       0
   791 ;;Total ram usage:        1 bytes
   792 ;; Hardware stack levels used:    1
   793 ;; Hardware stack levels required when called:   11
   794 ;; This function calls:
   795 ;;		_memset
   796 ;; This function is called by:
   797 ;;		_main
   798 ;; This function uses a non-reentrant model
   799 ;;
   800                           
   801                           	psect	text1
   802  000B56                     __ptext1:
   803                           	opt stack 0
   804  000B56                     _USBDeviceInit:
   805                           	opt stack 19
   806                           
   807                           ;usb_device.c: 297: uint8_t i;
   808                           ;usb_device.c: 299: {PIE3bits.USBIE = 0;};
   809                           
   810                           ;incstack = 0
   811  000B56  94A3               	bcf	4003,2,c	;volatile
   812                           
   813                           ;usb_device.c: 303: ;
   814                           ;usb_device.c: 306: {UEIR = 0;};
   815  000B58  0E00               	movlw	0
   816  000B5A  6E67               	movwf	3943,c	;volatile
   817                           
   818                           ;usb_device.c: 309: {UIR = 0;};
   819  000B5C  0E00               	movlw	0
   820  000B5E  6E65               	movwf	3941,c	;volatile
   821                           
   822                           ;usb_device.c: 312: UEP0 = 0;
   823  000B60  0E00               	movlw	0
   824  000B62  6E6A               	movwf	3946,c	;volatile
   825                           
   826                           ;usb_device.c: 314: memset((void*)&UEP1,0x00,(1));;
   827  000B64  0E6B               	movlw	107
   828  000B66  0100               	movlb	0	; () banked
   829  000B68  6F71               	movwf	memset@p1& (0+255),b
   830  000B6A  0E0F               	movlw	15
   831  000B6C  0100               	movlb	0	; () banked
   832  000B6E  6F72               	movwf	(memset@p1+1)& (0+255),b
   833  000B70  0E00               	movlw	0
   834  000B72  0100               	movlb	0	; () banked
   835  000B74  6F74               	movwf	(memset@c+1)& (0+255),b
   836  000B76  0E00               	movlw	0
   837  000B78  6F73               	movwf	memset@c& (0+255),b
   838  000B7A  0E00               	movlw	0
   839  000B7C  0100               	movlb	0	; () banked
   840  000B7E  6F76               	movwf	(memset@n+1)& (0+255),b
   841  000B80  0E01               	movlw	1
   842  000B82  6F75               	movwf	memset@n& (0+255),b
   843  000B84  EC3B  F010         	call	_memset	;wreg free
   844                           
   845                           ;usb_device.c: 316: { UCFG = 0x10 | 0x00 | 0x04 | 0x02; UEIE = 0x9F; UIE = 0x39 | 0x40 |
      +                           0x02; };
   846  000B88  0E16               	movlw	22
   847  000B8A  6E62               	movwf	3938,c	;volatile
   848  000B8C  0E9F               	movlw	159
   849  000B8E  6E66               	movwf	3942,c	;volatile
   850  000B90  0E7B               	movlw	123
   851  000B92  6E64               	movwf	3940,c	;volatile
   852                           
   853                           ;usb_device.c: 319: ;
   854                           ;usb_device.c: 322: ;
   855                           ;usb_device.c: 325: for(i = 0; i < (sizeof(BDT)/sizeof(BDT_ENTRY)); i++)
   856  000B94  0E00               	movlw	0
   857  000B96  0100               	movlb	0	; () banked
   858  000B98  6F79               	movwf	USBDeviceInit@i& (0+255),b
   859  000B9A  D010               	goto	l3974
   860                           
   861                           ; BSR set to: 0
   862                           
   863                           ; BSR set to: 0
   864  000B9C  D013               	goto	l409
   865  000B9E                     l3970:
   866                           
   867                           ; BSR set to: 0
   868                           ;usb_device.c: 326: {
   869                           ;usb_device.c: 327: BDT[i].Val = 0x00;
   870  000B9E  0100               	movlb	0	; () banked
   871  000BA0  5179               	movf	USBDeviceInit@i& (0+255),w,b
   872  000BA2  0D04               	mullw	4
   873  000BA4  0E00               	movlw	0
   874  000BA6  24F3               	addwf	prodl,w,c
   875  000BA8  6ED9               	movwf	fsr2l,c
   876  000BAA  0E04               	movlw	4
   877  000BAC  20F4               	addwfc	prodh,w,c
   878  000BAE  6EDA               	movwf	fsr2h,c
   879  000BB0  6ADE               	clrf	postinc2,c
   880  000BB2  6ADE               	clrf	postinc2,c
   881  000BB4  6ADE               	clrf	postinc2,c
   882  000BB6  6ADD               	clrf	postdec2,c
   883                           
   884                           ; BSR set to: 0
   885  000BB8  0100               	movlb	0	; () banked
   886  000BBA  2B79               	incf	USBDeviceInit@i& (0+255),f,b
   887  000BBC                     l3974:
   888                           
   889                           ; BSR set to: 0
   890  000BBC  0E07               	movlw	7
   891  000BBE  0100               	movlb	0	; () banked
   892  000BC0  6579               	cpfsgt	USBDeviceInit@i& (0+255),b
   893  000BC2  D7ED               	goto	l3970
   894  000BC4                     l409:
   895                           
   896                           ; BSR set to: 0
   897                           ;usb_device.c: 328: }
   898                           ;usb_device.c: 331: UCONbits.PPBRST = 1;
   899  000BC4  8C60               	bsf	3936,6,c	;volatile
   900                           
   901                           ; BSR set to: 0
   902                           ;usb_device.c: 334: UADDR = 0x00;
   903  000BC6  0E00               	movlw	0
   904  000BC8  6E63               	movwf	3939,c	;volatile
   905                           
   906                           ; BSR set to: 0
   907                           ;usb_device.c: 337: UCONbits.PKTDIS = 0;
   908  000BCA  9860               	bcf	3936,4,c	;volatile
   909                           
   910                           ; BSR set to: 0
   911                           ;usb_device.c: 340: UCONbits.PPBRST = 0;
   912  000BCC  9C60               	bcf	3936,6,c	;volatile
   913  000BCE  D000               	goto	l3982
   914  000BD0                     l3982:
   915                           
   916                           ;usb_device.c: 344: {
   917                           ;usb_device.c: 345: (UIR &= 0xF7);
   918  000BD0  9665               	bcf	3941,3,c	;volatile
   919                           
   920                           ;usb_device.c: 347: inPipes[0].info.Val = 0;
   921  000BD2  0E00               	movlw	0
   922  000BD4  6E27               	movwf	_inPipes+3,c	;volatile
   923                           
   924                           ;usb_device.c: 348: outPipes[0].info.Val = 0;
   925  000BD6  0E00               	movlw	0
   926  000BD8  6E04               	movwf	_outPipes+3,c	;volatile
   927                           
   928                           ;usb_device.c: 349: outPipes[0].wCount.Val = 0;
   929  000BDA  0E00               	movlw	0
   930  000BDC  6E06               	movwf	_outPipes+5,c	;volatile
   931  000BDE  0E00               	movlw	0
   932  000BE0  6E05               	movwf	_outPipes+4,c	;volatile
   933                           
   934                           ;usb_device.c: 350: }while(UIRbits.TRNIF == 1);
   935  000BE2  B665               	btfsc	3941,3,c	;volatile
   936  000BE4  D7F5               	goto	l3982
   937                           
   938                           ;usb_device.c: 354: USBStatusStageEnabledFlag1 = 1;
   939  000BE6  0E01               	movlw	1
   940  000BE8  6E1E               	movwf	_USBStatusStageEnabledFlag1,c	;volatile
   941                           
   942                           ;usb_device.c: 355: USBStatusStageEnabledFlag2 = 1;
   943  000BEA  0E01               	movlw	1
   944  000BEC  6E1F               	movwf	_USBStatusStageEnabledFlag2,c	;volatile
   945                           
   946                           ;usb_device.c: 357: USBDeferINDataStagePackets = 0;
   947  000BEE  0E00               	movlw	0
   948  000BF0  6E1A               	movwf	_USBDeferINDataStagePackets,c	;volatile
   949                           
   950                           ;usb_device.c: 358: USBDeferOUTDataStagePackets = 0;
   951  000BF2  0E00               	movlw	0
   952  000BF4  6E1B               	movwf	_USBDeferOUTDataStagePackets,c	;volatile
   953                           
   954                           ;usb_device.c: 359: USBBusIsSuspended = 0;
   955  000BF6  0E00               	movlw	0
   956  000BF8  6E19               	movwf	_USBBusIsSuspended,c	;volatile
   957                           
   958                           ;usb_device.c: 363: for(i = 0; i < (uint8_t)(1+1u); i++)
   959  000BFA  0E00               	movlw	0
   960  000BFC  0100               	movlb	0	; () banked
   961  000BFE  6F79               	movwf	USBDeviceInit@i& (0+255),b
   962  000C00                     l3994:
   963                           
   964                           ; BSR set to: 0
   965  000C00  0E01               	movlw	1
   966  000C02  0100               	movlb	0	; () banked
   967  000C04  6579               	cpfsgt	USBDeviceInit@i& (0+255),b
   968  000C06  D001               	goto	l3998
   969                           
   970                           ; BSR set to: 0
   971  000C08  D033               	goto	l4004
   972  000C0A                     l3998:
   973                           
   974                           ; BSR set to: 0
   975                           ;usb_device.c: 364: {
   976                           ;usb_device.c: 365: pBDTEntryIn[i] = 0u;
   977  000C0A  0100               	movlb	0	; () banked
   978  000C0C  5179               	movf	USBDeviceInit@i& (0+255),w,b
   979  000C0E  0D02               	mullw	2
   980  000C10  0E09               	movlw	low _pBDTEntryIn
   981  000C12  24F3               	addwf	prodl,w,c
   982  000C14  6ED9               	movwf	fsr2l,c
   983  000C16  0E00               	movlw	high _pBDTEntryIn
   984  000C18  20F4               	addwfc	prodh,w,c
   985  000C1A  6EDA               	movwf	fsr2h,c
   986  000C1C  0E00               	movlw	0
   987  000C1E  6EDE               	movwf	postinc2,c
   988  000C20  0E00               	movlw	0
   989  000C22  6EDD               	movwf	postdec2,c
   990                           
   991                           ;usb_device.c: 366: pBDTEntryOut[i] = 0u;
   992  000C24  0100               	movlb	0	; () banked
   993  000C26  5179               	movf	USBDeviceInit@i& (0+255),w,b
   994  000C28  0D02               	mullw	2
   995  000C2A  0E64               	movlw	low _pBDTEntryOut
   996  000C2C  24F3               	addwf	prodl,w,c
   997  000C2E  6ED9               	movwf	fsr2l,c
   998  000C30  0E00               	movlw	high _pBDTEntryOut
   999  000C32  20F4               	addwfc	prodh,w,c
  1000  000C34  6EDA               	movwf	fsr2h,c
  1001  000C36  0E00               	movlw	0
  1002  000C38  6EDE               	movwf	postinc2,c
  1003  000C3A  0E00               	movlw	0
  1004  000C3C  6EDD               	movwf	postdec2,c
  1005                           
  1006                           ;usb_device.c: 367: ep_data_in[i].Val = 0u;
  1007  000C3E  0100               	movlb	0	; () banked
  1008  000C40  5179               	movf	USBDeviceInit@i& (0+255),w,b
  1009  000C42  0D01               	mullw	1
  1010  000C44  0E0F               	movlw	low _ep_data_in
  1011  000C46  24F3               	addwf	prodl,w,c
  1012  000C48  6ED9               	movwf	fsr2l,c
  1013  000C4A  0E00               	movlw	high _ep_data_in
  1014  000C4C  20F4               	addwfc	prodh,w,c
  1015  000C4E  6EDA               	movwf	fsr2h,c
  1016  000C50  0E00               	movlw	0
  1017  000C52  6EDF               	movwf	indf2,c
  1018                           
  1019                           ;usb_device.c: 368: ep_data_out[i].Val = 0u;
  1020  000C54  0100               	movlb	0	; () banked
  1021  000C56  5179               	movf	USBDeviceInit@i& (0+255),w,b
  1022  000C58  0D01               	mullw	1
  1023  000C5A  0E11               	movlw	low _ep_data_out
  1024  000C5C  24F3               	addwf	prodl,w,c
  1025  000C5E  6ED9               	movwf	fsr2l,c
  1026  000C60  0E00               	movlw	high _ep_data_out
  1027  000C62  20F4               	addwfc	prodh,w,c
  1028  000C64  6EDA               	movwf	fsr2h,c
  1029  000C66  0E00               	movlw	0
  1030  000C68  6EDF               	movwf	indf2,c
  1031                           
  1032                           ; BSR set to: 0
  1033  000C6A  0100               	movlb	0	; () banked
  1034  000C6C  2B79               	incf	USBDeviceInit@i& (0+255),f,b
  1035  000C6E  D7C8               	goto	l3994
  1036  000C70                     l4004:
  1037                           
  1038                           ; BSR set to: 0
  1039                           ;usb_device.c: 369: }
  1040                           ;usb_device.c: 372: pBDTEntryIn[0] = (volatile BDT_ENTRY*)&BDT[2];
  1041  000C70  0E08               	movlw	8
  1042  000C72  6E09               	movwf	_pBDTEntryIn,c
  1043  000C74  0E04               	movlw	4
  1044  000C76  6E0A               	movwf	_pBDTEntryIn+1,c
  1045                           
  1046                           ; BSR set to: 0
  1047                           ;usb_device.c: 374: UEP0 = 0x06|0x10;
  1048  000C78  0E16               	movlw	22
  1049  000C7A  6E6A               	movwf	3946,c	;volatile
  1050                           
  1051                           ; BSR set to: 0
  1052                           ;usb_device.c: 376: BDT[0].ADR = ((uint16_t)(&SetupPkt));
  1053  000C7C  0E04               	movlw	4
  1054  000C7E  0104               	movlb	4	; () banked
  1055  000C80  6F03               	movwf	3,b	;volatile
  1056  000C82  0E20               	movlw	32
  1057  000C84  6F02               	movwf	2,b	;volatile
  1058                           
  1059                           ; BSR set to: 4
  1060                           ;usb_device.c: 377: BDT[0].CNT = 8;
  1061  000C86  0E08               	movlw	8
  1062  000C88  0104               	movlb	4	; () banked
  1063  000C8A  6F01               	movwf	1,b	;volatile
  1064                           
  1065                           ; BSR set to: 4
  1066                           ;usb_device.c: 378: BDT[0].STAT.Val = 0x00|0x04;
  1067  000C8C  0E04               	movlw	4
  1068  000C8E  0104               	movlb	4	; () banked
  1069  000C90  6F00               	movwf	0,b	;volatile
  1070                           
  1071                           ; BSR set to: 4
  1072                           ;usb_device.c: 379: BDT[0].STAT.Val |= 0x80;
  1073  000C92  0104               	movlb	4	; () banked
  1074  000C94  8F00               	bsf	0,7,b	;volatile
  1075                           
  1076                           ; BSR set to: 4
  1077                           ;usb_device.c: 382: USBActiveConfiguration = 0;
  1078  000C96  0E00               	movlw	0
  1079  000C98  6E2A               	movwf	_USBActiveConfiguration,c	;volatile
  1080                           
  1081                           ; BSR set to: 4
  1082                           ;usb_device.c: 384: USB1msTickCount = 0;
  1083  000C9A  0E00               	movlw	0
  1084  000C9C  0100               	movlb	0	; () banked
  1085  000C9E  6F60               	movwf	_USB1msTickCount& (0+255),b	;volatile
  1086  000CA0  0E00               	movlw	0
  1087  000CA2  6F61               	movwf	(_USB1msTickCount+1)& (0+255),b	;volatile
  1088  000CA4  0E00               	movlw	0
  1089  000CA6  6F62               	movwf	(_USB1msTickCount+2)& (0+255),b	;volatile
  1090  000CA8  0E00               	movlw	0
  1091  000CAA  6F63               	movwf	(_USB1msTickCount+3)& (0+255),b	;volatile
  1092                           
  1093                           ; BSR set to: 0
  1094                           ;usb_device.c: 385: USBTicksSinceSuspendEnd = 0;
  1095  000CAC  0E00               	movlw	0
  1096  000CAE  0100               	movlb	0	; () banked
  1097  000CB0  6F6E               	movwf	_USBTicksSinceSuspendEnd& (0+255),b	;volatile
  1098                           
  1099                           ; BSR set to: 0
  1100                           ;usb_device.c: 388: USBDeviceState = DETACHED_STATE;
  1101  000CB2  0E00               	movlw	0
  1102  000CB4  6E1D               	movwf	_USBDeviceState,c	;volatile
  1103                           
  1104                           ; BSR set to: 0
  1105  000CB6  0012               	return		;funcret
  1106  000CB8                     __end_of_USBDeviceInit:
  1107                           	opt stack 0
  1108                           tblptru	equ	0xFF8
  1109                           prodh	equ	0xFF4
  1110                           prodl	equ	0xFF3
  1111                           postinc0	equ	0xFEE
  1112                           wreg	equ	0xFE8
  1113                           indf2	equ	0xFDF
  1114                           postinc2	equ	0xFDE
  1115                           postdec2	equ	0xFDD
  1116                           fsr2h	equ	0xFDA
  1117                           fsr2l	equ	0xFD9
  1118                           
  1119 ;; *************** function _memset *****************
  1120 ;; Defined at:
  1121 ;;		line 8 in file "C:\Program Files (x86)\Microchip\xc8\v1.34\sources\common\memset.c"
  1122 ;; Parameters:    Size  Location     Type
  1123 ;;  p1              2    0[BANK0 ] PTR void 
  1124 ;;		 -> USBAlternateInterface(1), BDT(32), UEP1(1), 
  1125 ;;  c               2    2[BANK0 ] int 
  1126 ;;  n               2    4[BANK0 ] unsigned int 
  1127 ;; Auto vars:     Size  Location     Type
  1128 ;;  p               2    6[BANK0 ] PTR unsigned char 
  1129 ;;		 -> USBAlternateInterface(1), BDT(32), UEP1(1), 
  1130 ;; Return value:  Size  Location     Type
  1131 ;;                  2    0[BANK0 ] PTR void 
  1132 ;; Registers used:
  1133 ;;		wreg, fsr2l, fsr2h, status,2, status,0
  1134 ;; Tracked objects:
  1135 ;;		On entry : 0/0
  1136 ;;		On exit  : 0/0
  1137 ;;		Unchanged: 0/0
  1138 ;; Data sizes:     COMRAM   BANK0   BANK1   BANK2   BANK3   BANK4   BANK5   BANK6   BANK7
  1139 ;;      Params:         0       6       0       0       0       0       0       0       0
  1140 ;;      Locals:         0       2       0       0       0       0       0       0       0
  1141 ;;      Temps:          0       0       0       0       0       0       0       0       0
  1142 ;;      Totals:         0       8       0       0       0       0       0       0       0
  1143 ;;Total ram usage:        8 bytes
  1144 ;; Hardware stack levels used:    1
  1145 ;; Hardware stack levels required when called:   10
  1146 ;; This function calls:
  1147 ;;		Nothing
  1148 ;; This function is called by:
  1149 ;;		_USBDeviceInit
  1150 ;; This function uses a non-reentrant model
  1151 ;;
  1152                           
  1153                           	psect	text2
  1154  002076                     __ptext2:
  1155                           	opt stack 0
  1156  002076                     _memset:
  1157                           	opt stack 19
  1158                           
  1159                           ; BSR set to: 0
  1160                           ;incstack = 0
  1161  002076  C071  F077         	movff	memset@p1,memset@p
  1162  00207A  C072  F078         	movff	memset@p1+1,memset@p+1
  1163  00207E  D00A               	goto	l3930
  1164  002080                     l3926:
  1165  002080  C077  FFD9         	movff	memset@p,fsr2l
  1166  002084  C078  FFDA         	movff	memset@p+1,fsr2h
  1167  002088  C073  FFDF         	movff	memset@c,indf2
  1168  00208C  0100               	movlb	0	; () banked
  1169  00208E  4B77               	infsnz	memset@p& (0+255),f,b
  1170  002090  2B78               	incf	(memset@p+1)& (0+255),f,b
  1171  002092  D000               	goto	l3930
  1172  002094                     l3930:
  1173  002094  0100               	movlb	0	; () banked
  1174  002096  0775               	decf	memset@n& (0+255),f,b
  1175  002098  A0D8               	btfss	status,0,c
  1176  00209A  0776               	decf	(memset@n+1)& (0+255),f,b
  1177  00209C  0100               	movlb	0	; () banked
  1178  00209E  2975               	incf	memset@n& (0+255),w,b
  1179  0020A0  E1EF               	bnz	l3926
  1180  0020A2  0100               	movlb	0	; () banked
  1181  0020A4  2976               	incf	(memset@n+1)& (0+255),w,b
  1182  0020A6  A4D8               	btfss	status,2,c
  1183  0020A8  D7EB               	goto	l3926
  1184                           
  1185                           ; BSR set to: 0
  1186                           
  1187                           ; BSR set to: 0
  1188                           ;	Return value of _memset is never used
  1189  0020AA  0012               	return		;funcret
  1190  0020AC                     __end_of_memset:
  1191                           	opt stack 0
  1192                           tblptru	equ	0xFF8
  1193                           prodh	equ	0xFF4
  1194                           prodl	equ	0xFF3
  1195                           postinc0	equ	0xFEE
  1196                           wreg	equ	0xFE8
  1197                           indf2	equ	0xFDF
  1198                           postinc2	equ	0xFDE
  1199                           postdec2	equ	0xFDD
  1200                           fsr2h	equ	0xFDA
  1201                           fsr2l	equ	0xFD9
  1202                           status	equ	0xFD8
  1203                           
  1204 ;; *************** function _USBDeviceAttach *****************
  1205 ;; Defined at:
  1206 ;;		line 1370 in file "../../../../../../microchip/mla/v2015_08_10/framework/usb/src/usb_device.c"
  1207 ;; Parameters:    Size  Location     Type
  1208 ;;		None
  1209 ;; Auto vars:     Size  Location     Type
  1210 ;;		None
  1211 ;; Return value:  Size  Location     Type
  1212 ;;		None               void
  1213 ;; Registers used:
  1214 ;;		wreg, status,2
  1215 ;; Tracked objects:
  1216 ;;		On entry : 0/0
  1217 ;;		On exit  : 0/0
  1218 ;;		Unchanged: 0/0
  1219 ;; Data sizes:     COMRAM   BANK0   BANK1   BANK2   BANK3   BANK4   BANK5   BANK6   BANK7
  1220 ;;      Params:         0       0       0       0       0       0       0       0       0
  1221 ;;      Locals:         0       0       0       0       0       0       0       0       0
  1222 ;;      Temps:          0       0       0       0       0       0       0       0       0
  1223 ;;      Totals:         0       0       0       0       0       0       0       0       0
  1224 ;;Total ram usage:        0 bytes
  1225 ;; Hardware stack levels used:    1
  1226 ;; Hardware stack levels required when called:   10
  1227 ;; This function calls:
  1228 ;;		Nothing
  1229 ;; This function is called by:
  1230 ;;		_main
  1231 ;; This function uses a non-reentrant model
  1232 ;;
  1233                           
  1234                           	psect	text3
  1235  002118                     __ptext3:
  1236                           	opt stack 0
  1237  002118                     _USBDeviceAttach:
  1238                           	opt stack 20
  1239                           
  1240                           ;usb_device.c: 1374: {
  1241                           ;usb_device.c: 1375: if(1 == 1)
  1242                           
  1243                           ; BSR set to: 0
  1244                           ;incstack = 0
  1245  002118  501D               	movf	_USBDeviceState,w,c	;volatile
  1246  00211A  A4D8               	btfss	status,2,c
  1247  00211C  0012               	return	
  1248                           
  1249                           ;usb_device.c: 1376: {
  1250                           ;usb_device.c: 1378: UCON = 0;
  1251  00211E  0E00               	movlw	0
  1252  002120  6E60               	movwf	3936,c	;volatile
  1253                           
  1254                           ;usb_device.c: 1381: UIE = 0;
  1255  002122  0E00               	movlw	0
  1256  002124  6E64               	movwf	3940,c	;volatile
  1257                           
  1258                           ;usb_device.c: 1385: { UCFG = 0x10 | 0x00 | 0x04 | 0x02; UEIE = 0x9F; UIE = 0x39 | 0x40 
      +                          | 0x02; };
  1259  002126  0E16               	movlw	22
  1260  002128  6E62               	movwf	3938,c	;volatile
  1261  00212A  0E9F               	movlw	159
  1262  00212C  6E66               	movwf	3942,c	;volatile
  1263  00212E  0E7B               	movlw	123
  1264  002130  6E64               	movwf	3940,c	;volatile
  1265                           
  1266                           ;usb_device.c: 1387: {RCONbits.IPEN = 1;IPR3bits.USBIP = 1;PIE3bits.USBIE = 1;INTCONbits
      +                          .GIEH = 1;};
  1267  002132  8ED0               	bsf	4048,7,c	;volatile
  1268  002134  84A5               	bsf	4005,2,c	;volatile
  1269  002136  84A3               	bsf	4003,2,c	;volatile
  1270  002138  8EF2               	bsf	intcon,7,c	;volatile
  1271                           
  1272                           ;usb_device.c: 1390: while(!UCONbits.USBEN){UCONbits.USBEN = 1;}
  1273  00213A  D001               	goto	l469
  1274  00213C                     l470:
  1275  00213C  8660               	bsf	3936,3,c	;volatile
  1276  00213E                     l469:
  1277  00213E  A660               	btfss	3936,3,c	;volatile
  1278  002140  D7FD               	goto	l470
  1279                           
  1280                           ;usb_device.c: 1393: USBDeviceState = ATTACHED_STATE;
  1281  002142  0E01               	movlw	1
  1282  002144  6E1D               	movwf	_USBDeviceState,c	;volatile
  1283  002146  0012               	return	
  1284  002148  0012               	return		;funcret
  1285  00214A                     __end_of_USBDeviceAttach:
  1286                           	opt stack 0
  1287                           tblptru	equ	0xFF8
  1288                           prodh	equ	0xFF4
  1289                           prodl	equ	0xFF3
  1290                           intcon	equ	0xFF2
  1291                           postinc0	equ	0xFEE
  1292                           wreg	equ	0xFE8
  1293                           indf2	equ	0xFDF
  1294                           postinc2	equ	0xFDE
  1295                           postdec2	equ	0xFDD
  1296                           fsr2h	equ	0xFDA
  1297                           fsr2l	equ	0xFD9
  1298                           status	equ	0xFD8
  1299                           
  1300 ;; *************** function _SYSTEM_Initialize *****************
  1301 ;; Defined at:
  1302 ;;		line 88 in file "../src/system_config/pic18f45k50/system.c"
  1303 ;; Parameters:    Size  Location     Type
  1304 ;;  state           1    wreg     enum E6713
  1305 ;; Auto vars:     Size  Location     Type
  1306 ;;  state           1    1[BANK0 ] enum E6713
  1307 ;; Return value:  Size  Location     Type
  1308 ;;		None               void
  1309 ;; Registers used:
  1310 ;;		wreg, status,2, status,0, cstack
  1311 ;; Tracked objects:
  1312 ;;		On entry : 0/0
  1313 ;;		On exit  : 0/0
  1314 ;;		Unchanged: 0/0
  1315 ;; Data sizes:     COMRAM   BANK0   BANK1   BANK2   BANK3   BANK4   BANK5   BANK6   BANK7
  1316 ;;      Params:         0       0       0       0       0       0       0       0       0
  1317 ;;      Locals:         0       1       0       0       0       0       0       0       0
  1318 ;;      Temps:          0       0       0       0       0       0       0       0       0
  1319 ;;      Totals:         0       1       0       0       0       0       0       0       0
  1320 ;;Total ram usage:        1 bytes
  1321 ;; Hardware stack levels used:    1
  1322 ;; Hardware stack levels required when called:   11
  1323 ;; This function calls:
  1324 ;;		_ADC_Enable
  1325 ;;		_ADC_SetConfiguration
  1326 ;;		_BUTTON_Enable
  1327 ;;		_LED_Enable
  1328 ;; This function is called by:
  1329 ;;		_main
  1330 ;; This function uses a non-reentrant model
  1331 ;;
  1332                           
  1333                           	psect	text4
  1334  001F10                     __ptext4:
  1335                           	opt stack 0
  1336  001F10                     _SYSTEM_Initialize:
  1337                           	opt stack 19
  1338                           
  1339                           ;incstack = 0
  1340                           ;SYSTEM_Initialize@state stored from wreg
  1341  001F10  0100               	movlb	0	; () banked
  1342  001F12  6F72               	movwf	SYSTEM_Initialize@state& (0+255),b
  1343                           
  1344                           ; BSR set to: 0
  1345                           ;system.c: 90: switch(state)
  1346  001F14  D01B               	goto	l3950
  1347  001F16                     l3934:
  1348                           
  1349                           ; BSR set to: 0
  1350                           ;system.c: 97: OSCTUNE = 0x80;
  1351  001F16  0E80               	movlw	128
  1352  001F18  6E9B               	movwf	3995,c	;volatile
  1353                           
  1354                           ;system.c: 98: OSCCON = 0x70;
  1355  001F1A  0E70               	movlw	112
  1356  001F1C  6ED3               	movwf	4051,c	;volatile
  1357                           
  1358                           ;system.c: 99: OSCCON2 = 0x10;
  1359  001F1E  0E10               	movlw	16
  1360  001F20  6ED2               	movwf	4050,c	;volatile
  1361                           
  1362                           ;system.c: 100: while(OSCCON2bits.PLLRDY != 1);
  1363  001F22  D000               	goto	l133
  1364  001F24                     l133:
  1365  001F24  AED2               	btfss	4050,7,c	;volatile
  1366  001F26  D7FE               	goto	l133
  1367                           
  1368                           ;system.c: 101: ACTCON = 0x90;
  1369  001F28  0E90               	movlw	144
  1370  001F2A  6EB5               	movwf	4021,c	;volatile
  1371                           
  1372                           ;system.c: 104: LED_Enable(LED_NONE);
  1373  001F2C  0E00               	movlw	0
  1374  001F2E  EC25  F011         	call	_LED_Enable
  1375                           
  1376                           ;system.c: 105: LED_Enable(LED_D1);
  1377  001F32  0E01               	movlw	1
  1378  001F34  EC25  F011         	call	_LED_Enable
  1379                           
  1380                           ;system.c: 107: BUTTON_Enable(BUTTON_S2);
  1381  001F38  0E01               	movlw	1
  1382  001F3A  EC36  F011         	call	_BUTTON_Enable
  1383                           
  1384                           ;system.c: 109: ADC_SetConfiguration(ADC_CONFIGURATION_DEFAULT);
  1385  001F3E  0E00               	movlw	0
  1386  001F40  EC47  F011         	call	_ADC_SetConfiguration
  1387                           
  1388                           ;system.c: 110: ADC_Enable(ADC_CHANNEL_0);
  1389  001F44  0E00               	movlw	0
  1390  001F46  EC83  F011         	call	_ADC_Enable
  1391                           
  1392                           ;system.c: 118: }
  1393                           
  1394                           ;system.c: 117: break;
  1395                           
  1396                           ;system.c: 116: case SYSTEM_STATE_USB_RESUME:
  1397                           
  1398                           ;system.c: 114: break;
  1399                           
  1400                           ;system.c: 113: case SYSTEM_STATE_USB_SUSPEND:
  1401                           
  1402                           ;system.c: 111: break;
  1403  001F4A  0012               	return	
  1404  001F4C                     l3950:
  1405  001F4C  0100               	movlb	0	; () banked
  1406  001F4E  5172               	movf	SYSTEM_Initialize@state& (0+255),w,b
  1407                           
  1408                           ; Switch size 1, requested type "space"
  1409                           ; Number of cases is 3, Range of values is 0 to 2
  1410                           ; switch strategies available:
  1411                           ; Name         Instructions Cycles
  1412                           ; simple_byte           10     6 (average)
  1413                           ;	Chosen strategy is simple_byte
  1414  001F50  0A00               	xorlw	0	; case 0
  1415  001F52  B4D8               	btfsc	status,2,c
  1416  001F54  D7E0               	goto	l3934
  1417  001F56  0A01               	xorlw	1	; case 1
  1418  001F58  B4D8               	btfsc	status,2,c
  1419  001F5A  0012               	return	
  1420  001F5C  0A03               	xorlw	3	; case 2
  1421  001F5E  0012               	return	
  1422                           
  1423                           ; BSR set to: 0
  1424  001F60  0012               	return		;funcret
  1425  001F62                     __end_of_SYSTEM_Initialize:
  1426                           	opt stack 0
  1427                           tblptru	equ	0xFF8
  1428                           prodh	equ	0xFF4
  1429                           prodl	equ	0xFF3
  1430                           intcon	equ	0xFF2
  1431                           postinc0	equ	0xFEE
  1432                           wreg	equ	0xFE8
  1433                           indf2	equ	0xFDF
  1434                           postinc2	equ	0xFDE
  1435                           postdec2	equ	0xFDD
  1436                           fsr2h	equ	0xFDA
  1437                           fsr2l	equ	0xFD9
  1438                           status	equ	0xFD8
  1439                           
  1440 ;; *************** function _LED_Enable *****************
  1441 ;; Defined at:
  1442 ;;		line 227 in file "../bsp_pic18f45k50/leds.c"
  1443 ;; Parameters:    Size  Location     Type
  1444 ;;  led             1    wreg     enum E2
  1445 ;; Auto vars:     Size  Location     Type
  1446 ;;  led             1    0[BANK0 ] enum E2
  1447 ;; Return value:  Size  Location     Type
  1448 ;;		None               void
  1449 ;; Registers used:
  1450 ;;		wreg, status,2, status,0
  1451 ;; Tracked objects:
  1452 ;;		On entry : 0/0
  1453 ;;		On exit  : 0/0
  1454 ;;		Unchanged: 0/0
  1455 ;; Data sizes:     COMRAM   BANK0   BANK1   BANK2   BANK3   BANK4   BANK5   BANK6   BANK7
  1456 ;;      Params:         0       0       0       0       0       0       0       0       0
  1457 ;;      Locals:         0       1       0       0       0       0       0       0       0
  1458 ;;      Temps:          0       0       0       0       0       0       0       0       0
  1459 ;;      Totals:         0       1       0       0       0       0       0       0       0
  1460 ;;Total ram usage:        1 bytes
  1461 ;; Hardware stack levels used:    1
  1462 ;; Hardware stack levels required when called:   10
  1463 ;; This function calls:
  1464 ;;		Nothing
  1465 ;; This function is called by:
  1466 ;;		_SYSTEM_Initialize
  1467 ;; This function uses a non-reentrant model
  1468 ;;
  1469                           
  1470                           	psect	text5
  1471  00224A                     __ptext5:
  1472                           	opt stack 0
  1473  00224A                     _LED_Enable:
  1474                           	opt stack 19
  1475                           
  1476                           ;incstack = 0
  1477                           ;LED_Enable@led stored from wreg
  1478  00224A  0100               	movlb	0	; () banked
  1479  00224C  6F71               	movwf	LED_Enable@led& (0+255),b
  1480                           
  1481                           ; BSR set to: 0
  1482                           ;leds.c: 229: switch(led)
  1483  00224E  D004               	goto	l3892
  1484  002250                     l105:
  1485                           
  1486                           ; BSR set to: 0
  1487                           ;leds.c: 232: TRISCbits.TRISC2 = 0;
  1488  002250  9494               	bcf	3988,2,c	;volatile
  1489                           
  1490                           ;leds.c: 233: ANSELCbits.ANSC2 = 0;
  1491  002252  010F               	movlb	15	; () banked
  1492  002254  955D               	bcf	93,2,b	;volatile
  1493                           
  1494                           ; BSR set to: 15
  1495                           ;leds.c: 253: }
  1496                           
  1497                           ; BSR set to: 15
  1498                           ;leds.c: 252: break;
  1499                           
  1500                           ;leds.c: 251: case LED_NONE:
  1501                           
  1502                           ;leds.c: 234: break;
  1503  002256  0012               	return	
  1504  002258                     l3892:
  1505  002258  0100               	movlb	0	; () banked
  1506  00225A  5171               	movf	LED_Enable@led& (0+255),w,b
  1507                           
  1508                           ; Switch size 1, requested type "space"
  1509                           ; Number of cases is 2, Range of values is 0 to 1
  1510                           ; switch strategies available:
  1511                           ; Name         Instructions Cycles
  1512                           ; simple_byte            7     4 (average)
  1513                           ;	Chosen strategy is simple_byte
  1514  00225C  0A00               	xorlw	0	; case 0
  1515  00225E  B4D8               	btfsc	status,2,c
  1516  002260  0012               	return	
  1517  002262  0A01               	xorlw	1	; case 1
  1518  002264  A4D8               	btfss	status,2,c
  1519  002266  0012               	return	
  1520  002268  D7F3               	goto	l105
  1521                           
  1522                           ; BSR set to: 0
  1523  00226A  0012               	return		;funcret
  1524  00226C                     __end_of_LED_Enable:
  1525                           	opt stack 0
  1526                           tblptru	equ	0xFF8
  1527                           prodh	equ	0xFF4
  1528                           prodl	equ	0xFF3
  1529                           intcon	equ	0xFF2
  1530                           postinc0	equ	0xFEE
  1531                           wreg	equ	0xFE8
  1532                           indf2	equ	0xFDF
  1533                           postinc2	equ	0xFDE
  1534                           postdec2	equ	0xFDD
  1535                           fsr2h	equ	0xFDA
  1536                           fsr2l	equ	0xFD9
  1537                           status	equ	0xFD8
  1538                           
  1539 ;; *************** function _BUTTON_Enable *****************
  1540 ;; Defined at:
  1541 ;;		line 96 in file "../bsp_pic18f45k50/buttons.c"
  1542 ;; Parameters:    Size  Location     Type
  1543 ;;  button          1    wreg     enum E6643
  1544 ;; Auto vars:     Size  Location     Type
  1545 ;;  button          1    0[BANK0 ] enum E6643
  1546 ;; Return value:  Size  Location     Type
  1547 ;;		None               void
  1548 ;; Registers used:
  1549 ;;		wreg, status,2, status,0
  1550 ;; Tracked objects:
  1551 ;;		On entry : 0/0
  1552 ;;		On exit  : 0/0
  1553 ;;		Unchanged: 0/0
  1554 ;; Data sizes:     COMRAM   BANK0   BANK1   BANK2   BANK3   BANK4   BANK5   BANK6   BANK7
  1555 ;;      Params:         0       0       0       0       0       0       0       0       0
  1556 ;;      Locals:         0       1       0       0       0       0       0       0       0
  1557 ;;      Temps:          0       0       0       0       0       0       0       0       0
  1558 ;;      Totals:         0       1       0       0       0       0       0       0       0
  1559 ;;Total ram usage:        1 bytes
  1560 ;; Hardware stack levels used:    1
  1561 ;; Hardware stack levels required when called:   10
  1562 ;; This function calls:
  1563 ;;		Nothing
  1564 ;; This function is called by:
  1565 ;;		_SYSTEM_Initialize
  1566 ;; This function uses a non-reentrant model
  1567 ;;
  1568                           
  1569                           	psect	text6
  1570  00226C                     __ptext6:
  1571                           	opt stack 0
  1572  00226C                     _BUTTON_Enable:
  1573                           	opt stack 19
  1574                           
  1575                           ;incstack = 0
  1576                           ;BUTTON_Enable@button stored from wreg
  1577  00226C  0100               	movlb	0	; () banked
  1578  00226E  6F71               	movwf	BUTTON_Enable@button& (0+255),b
  1579                           
  1580                           ; BSR set to: 0
  1581                           ;buttons.c: 98: switch(button)
  1582  002270  D004               	goto	l3850
  1583  002272                     l17:
  1584                           
  1585                           ; BSR set to: 0
  1586                           ;buttons.c: 101: TRISDbits.TRISD3 = 1;
  1587  002272  8695               	bsf	3989,3,c	;volatile
  1588                           
  1589                           ;buttons.c: 102: ANSELDbits.ANSD3 = 0;
  1590  002274  010F               	movlb	15	; () banked
  1591  002276  975E               	bcf	94,3,b	;volatile
  1592                           
  1593                           ; BSR set to: 15
  1594                           ;buttons.c: 112: }
  1595                           
  1596                           ; BSR set to: 15
  1597                           ;buttons.c: 111: break;
  1598                           
  1599                           ;buttons.c: 110: case BUTTON_NONE:
  1600                           
  1601                           ;buttons.c: 103: break;
  1602  002278  0012               	return	
  1603  00227A                     l3850:
  1604  00227A  0100               	movlb	0	; () banked
  1605  00227C  5171               	movf	BUTTON_Enable@button& (0+255),w,b
  1606                           
  1607                           ; Switch size 1, requested type "space"
  1608                           ; Number of cases is 2, Range of values is 0 to 1
  1609                           ; switch strategies available:
  1610                           ; Name         Instructions Cycles
  1611                           ; simple_byte            7     4 (average)
  1612                           ;	Chosen strategy is simple_byte
  1613  00227E  0A00               	xorlw	0	; case 0
  1614  002280  B4D8               	btfsc	status,2,c
  1615  002282  0012               	return	
  1616  002284  0A01               	xorlw	1	; case 1
  1617  002286  A4D8               	btfss	status,2,c
  1618  002288  0012               	return	
  1619  00228A  D7F3               	goto	l17
  1620                           
  1621                           ; BSR set to: 0
  1622  00228C  0012               	return		;funcret
  1623  00228E                     __end_of_BUTTON_Enable:
  1624                           	opt stack 0
  1625                           tblptru	equ	0xFF8
  1626                           prodh	equ	0xFF4
  1627                           prodl	equ	0xFF3
  1628                           intcon	equ	0xFF2
  1629                           postinc0	equ	0xFEE
  1630                           wreg	equ	0xFE8
  1631                           indf2	equ	0xFDF
  1632                           postinc2	equ	0xFDE
  1633                           postdec2	equ	0xFDD
  1634                           fsr2h	equ	0xFDA
  1635                           fsr2l	equ	0xFD9
  1636                           status	equ	0xFD8
  1637                           
  1638 ;; *************** function _ADC_SetConfiguration *****************
  1639 ;; Defined at:
  1640 ;;		line 156 in file "../bsp_pic18f45k50/adc.c"
  1641 ;; Parameters:    Size  Location     Type
  1642 ;;  configuratio    1    wreg     enum E33
  1643 ;; Auto vars:     Size  Location     Type
  1644 ;;  configuratio    1    0[BANK0 ] enum E33
  1645 ;; Return value:  Size  Location     Type
  1646 ;;                  1    wreg      unsigned char 
  1647 ;; Registers used:
  1648 ;;		wreg, status,2
  1649 ;; Tracked objects:
  1650 ;;		On entry : 0/0
  1651 ;;		On exit  : 0/0
  1652 ;;		Unchanged: 0/0
  1653 ;; Data sizes:     COMRAM   BANK0   BANK1   BANK2   BANK3   BANK4   BANK5   BANK6   BANK7
  1654 ;;      Params:         0       0       0       0       0       0       0       0       0
  1655 ;;      Locals:         0       1       0       0       0       0       0       0       0
  1656 ;;      Temps:          0       0       0       0       0       0       0       0       0
  1657 ;;      Totals:         0       1       0       0       0       0       0       0       0
  1658 ;;Total ram usage:        1 bytes
  1659 ;; Hardware stack levels used:    1
  1660 ;; Hardware stack levels required when called:   10
  1661 ;; This function calls:
  1662 ;;		Nothing
  1663 ;; This function is called by:
  1664 ;;		_SYSTEM_Initialize
  1665 ;; This function uses a non-reentrant model
  1666 ;;
  1667                           
  1668                           	psect	text7
  1669  00228E                     __ptext7:
  1670                           	opt stack 0
  1671  00228E                     _ADC_SetConfiguration:
  1672                           	opt stack 19
  1673                           
  1674                           ;incstack = 0
  1675                           ;ADC_SetConfiguration@configuration stored from wreg
  1676  00228E  0100               	movlb	0	; () banked
  1677  002290  6F71               	movwf	ADC_SetConfiguration@configuration& (0+255),b
  1678                           
  1679                           ; BSR set to: 0
  1680                           ;adc.c: 158: if(configuration == ADC_CONFIGURATION_DEFAULT)
  1681  002292  0100               	movlb	0	; () banked
  1682  002294  5171               	movf	ADC_SetConfiguration@configuration& (0+255),w,b
  1683  002296  0100               	movlb	0	; () banked
  1684  002298  A4D8               	btfss	status,2,c
  1685  00229A  0012               	return	
  1686                           
  1687                           ; BSR set to: 0
  1688                           ;adc.c: 159: {
  1689                           ;adc.c: 160: ADCON1=0;
  1690  00229C  0E00               	movlw	0
  1691  00229E  6EC1               	movwf	4033,c	;volatile
  1692                           
  1693                           ;adc.c: 161: ADCON2=0xBE;
  1694  0022A0  0EBE               	movlw	190
  1695  0022A2  6EC0               	movwf	4032,c	;volatile
  1696                           
  1697                           ;adc.c: 162: ADCON0=0x01;
  1698  0022A4  0E01               	movlw	1
  1699  0022A6  6EC2               	movwf	4034,c	;volatile
  1700                           
  1701                           ; BSR set to: 0
  1702                           ;adc.c: 164: return 1;
  1703                           ;	Return value of _ADC_SetConfiguration is never used
  1704  0022A8  0012               	return	
  1705                           
  1706                           ; BSR set to: 0
  1707                           
  1708                           ; BSR set to: 0
  1709                           ;adc.c: 165: }
  1710                           ;adc.c: 167: return 0;
  1711                           ;	Return value of _ADC_SetConfiguration is never used
  1712  0022AA  0012               	return		;funcret
  1713  0022AC                     __end_of_ADC_SetConfiguration:
  1714                           	opt stack 0
  1715                           tblptru	equ	0xFF8
  1716                           prodh	equ	0xFF4
  1717                           prodl	equ	0xFF3
  1718                           intcon	equ	0xFF2
  1719                           postinc0	equ	0xFEE
  1720                           wreg	equ	0xFE8
  1721                           indf2	equ	0xFDF
  1722                           postinc2	equ	0xFDE
  1723                           postdec2	equ	0xFDD
  1724                           fsr2h	equ	0xFDA
  1725                           fsr2l	equ	0xFD9
  1726                           status	equ	0xFD8
  1727                           
  1728 ;; *************** function _ADC_Enable *****************
  1729 ;; Defined at:
  1730 ;;		line 130 in file "../bsp_pic18f45k50/adc.c"
  1731 ;; Parameters:    Size  Location     Type
  1732 ;;  channel         1    wreg     enum E30
  1733 ;; Auto vars:     Size  Location     Type
  1734 ;;  channel         1    0[BANK0 ] enum E30
  1735 ;; Return value:  Size  Location     Type
  1736 ;;                  1    wreg      unsigned char 
  1737 ;; Registers used:
  1738 ;;		wreg, status,2, status,0
  1739 ;; Tracked objects:
  1740 ;;		On entry : 0/0
  1741 ;;		On exit  : 0/0
  1742 ;;		Unchanged: 0/0
  1743 ;; Data sizes:     COMRAM   BANK0   BANK1   BANK2   BANK3   BANK4   BANK5   BANK6   BANK7
  1744 ;;      Params:         0       0       0       0       0       0       0       0       0
  1745 ;;      Locals:         0       1       0       0       0       0       0       0       0
  1746 ;;      Temps:          0       0       0       0       0       0       0       0       0
  1747 ;;      Totals:         0       1       0       0       0       0       0       0       0
  1748 ;;Total ram usage:        1 bytes
  1749 ;; Hardware stack levels used:    1
  1750 ;; Hardware stack levels required when called:   10
  1751 ;; This function calls:
  1752 ;;		Nothing
  1753 ;; This function is called by:
  1754 ;;		_SYSTEM_Initialize
  1755 ;; This function uses a non-reentrant model
  1756 ;;
  1757                           
  1758                           	psect	text8
  1759  002306                     __ptext8:
  1760                           	opt stack 0
  1761  002306                     _ADC_Enable:
  1762                           	opt stack 19
  1763                           
  1764                           ; BSR set to: 0
  1765                           ;incstack = 0
  1766                           ;ADC_Enable@channel stored from wreg
  1767  002306  0100               	movlb	0	; () banked
  1768  002308  6F71               	movwf	ADC_Enable@channel& (0+255),b
  1769                           
  1770                           ; BSR set to: 0
  1771                           ;adc.c: 132: switch(channel)
  1772  00230A  D004               	goto	l3874
  1773  00230C                     l60:
  1774                           
  1775                           ; BSR set to: 0
  1776                           ;adc.c: 135: TRISAbits.TRISA0 = 1;
  1777  00230C  8092               	bsf	3986,0,c	;volatile
  1778                           
  1779                           ;adc.c: 136: ANSELAbits.ANSA0 = 1;
  1780  00230E  010F               	movlb	15	; () banked
  1781  002310  815B               	bsf	91,0,b	;volatile
  1782                           
  1783                           ; BSR set to: 15
  1784                           ;adc.c: 141: }
  1785                           
  1786                           ; BSR set to: 15
  1787                           ;adc.c: 140: return 0;
  1788                           ;	Return value of _ADC_Enable is never used
  1789                           
  1790                           ;adc.c: 139: default:
  1791                           
  1792                           ;adc.c: 137: return 1;
  1793                           ;	Return value of _ADC_Enable is never used
  1794  002312  0012               	return	
  1795  002314                     l3874:
  1796  002314  0100               	movlb	0	; () banked
  1797  002316  5171               	movf	ADC_Enable@channel& (0+255),w,b
  1798                           
  1799                           ; Switch size 1, requested type "space"
  1800                           ; Number of cases is 1, Range of values is 0 to 0
  1801                           ; switch strategies available:
  1802                           ; Name         Instructions Cycles
  1803                           ; simple_byte            4     3 (average)
  1804                           ;	Chosen strategy is simple_byte
  1805  002318  0A00               	xorlw	0	; case 0
  1806  00231A  A4D8               	btfss	status,2,c
  1807  00231C  0012               	return	
  1808  00231E  D7F6               	goto	l60
  1809                           
  1810                           ; BSR set to: 0
  1811  002320  0012               	return		;funcret
  1812  002322                     __end_of_ADC_Enable:
  1813                           	opt stack 0
  1814                           tblptru	equ	0xFF8
  1815                           prodh	equ	0xFF4
  1816                           prodl	equ	0xFF3
  1817                           intcon	equ	0xFF2
  1818                           postinc0	equ	0xFEE
  1819                           wreg	equ	0xFE8
  1820                           indf2	equ	0xFDF
  1821                           postinc2	equ	0xFDE
  1822                           postdec2	equ	0xFDD
  1823                           fsr2h	equ	0xFDA
  1824                           fsr2l	equ	0xFD9
  1825                           status	equ	0xFD8
  1826                           
  1827 ;; *************** function _APP_DeviceCustomHIDTasks *****************
  1828 ;; Defined at:
  1829 ;;		line 111 in file "../src/app_device_custom_hid.c"
  1830 ;; Parameters:    Size  Location     Type
  1831 ;;		None
  1832 ;; Auto vars:     Size  Location     Type
  1833 ;;  pot             2    7[BANK0 ] unsigned int 
  1834 ;; Return value:  Size  Location     Type
  1835 ;;		None               void
  1836 ;; Registers used:
  1837 ;;		wreg, fsr2l, fsr2h, status,2, status,0, prodl, prodh, cstack
  1838 ;; Tracked objects:
  1839 ;;		On entry : 0/0
  1840 ;;		On exit  : 0/0
  1841 ;;		Unchanged: 0/0
  1842 ;; Data sizes:     COMRAM   BANK0   BANK1   BANK2   BANK3   BANK4   BANK5   BANK6   BANK7
  1843 ;;      Params:         0       0       0       0       0       0       0       0       0
  1844 ;;      Locals:         0       2       0       0       0       0       0       0       0
  1845 ;;      Temps:          0       0       0       0       0       0       0       0       0
  1846 ;;      Totals:         0       2       0       0       0       0       0       0       0
  1847 ;;Total ram usage:        2 bytes
  1848 ;; Hardware stack levels used:    1
  1849 ;; Hardware stack levels required when called:   11
  1850 ;; This function calls:
  1851 ;;		_ADC_Read10bit
  1852 ;;		_BUTTON_IsPressed
  1853 ;;		_LED_Toggle
  1854 ;;		_USBTransferOnePacket
  1855 ;; This function is called by:
  1856 ;;		_main
  1857 ;; This function uses a non-reentrant model
  1858 ;;
  1859                           
  1860                           	psect	text9
  1861  000F44                     __ptext9:
  1862                           	opt stack 0
  1863  000F44                     _APP_DeviceCustomHIDTasks:
  1864                           	opt stack 19
  1865                           
  1866                           ;app_device_custom_hid.c: 114: if(((USBOutHandle != 0x0000) && ((*(volatile uint8_t*)USB
      +                          OutHandle & 0x80) != 0x00)) == 0)
  1867                           
  1868                           ;incstack = 0
  1869  000F44  0100               	movlb	0	; () banked
  1870  000F46  516A               	movf	_USBOutHandle& (0+255),w,b
  1871  000F48  0100               	movlb	0	; () banked
  1872  000F4A  116B               	iorwf	(_USBOutHandle+1)& (0+255),w,b
  1873  000F4C  B4D8               	btfsc	status,2,c
  1874  000F4E  D06A               	goto	l4074
  1875                           
  1876                           ; BSR set to: 0
  1877  000F50  C06A  FFD9         	movff	_USBOutHandle,fsr2l
  1878  000F54  C06B  FFDA         	movff	_USBOutHandle+1,fsr2h
  1879  000F58  0100               	movlb	0	; () banked
  1880  000F5A  BEDF               	btfsc	indf2,7,c
  1881  000F5C  0012               	return	
  1882                           
  1883                           ; BSR set to: 0
  1884                           ;app_device_custom_hid.c: 115: {
  1885                           ;app_device_custom_hid.c: 119: switch(ReceivedDataBuffer[0])
  1886  000F5E  D062               	goto	l4074
  1887  000F60                     l4042:
  1888                           
  1889                           ;app_device_custom_hid.c: 122: LED_Toggle(LED_D1);
  1890  000F60  0E01               	movlw	1
  1891  000F62  EC56  F011         	call	_LED_Toggle
  1892                           
  1893                           ;app_device_custom_hid.c: 123: break;
  1894  000F66  D070               	goto	l4076
  1895  000F68                     l4044:
  1896                           
  1897                           ;app_device_custom_hid.c: 126: if(!((USBInHandle != 0x0000) && ((*(volatile uint8_t*)USB
      +                          InHandle & 0x80) != 0x00)))
  1898  000F68  0100               	movlb	0	; () banked
  1899  000F6A  5168               	movf	_USBInHandle& (0+255),w,b
  1900  000F6C  0100               	movlb	0	; () banked
  1901  000F6E  1169               	iorwf	(_USBInHandle+1)& (0+255),w,b
  1902  000F70  B4D8               	btfsc	status,2,c
  1903  000F72  D007               	goto	l4048
  1904                           
  1905                           ; BSR set to: 0
  1906  000F74  C068  FFD9         	movff	_USBInHandle,fsr2l
  1907  000F78  C069  FFDA         	movff	_USBInHandle+1,fsr2h
  1908  000F7C  0100               	movlb	0	; () banked
  1909  000F7E  BEDF               	btfsc	indf2,7,c
  1910  000F80  D063               	goto	l4076
  1911  000F82                     l4048:
  1912                           
  1913                           ; BSR set to: 0
  1914                           ;app_device_custom_hid.c: 127: {
  1915                           ;app_device_custom_hid.c: 128: ToSendDataBuffer[0] = 0x81;
  1916  000F82  0E81               	movlw	129
  1917  000F84  0105               	movlb	5	; () banked
  1918  000F86  6F40               	movwf	64,b
  1919                           
  1920                           ; BSR set to: 5
  1921                           ;app_device_custom_hid.c: 129: if(BUTTON_IsPressed(BUTTON_S2) == 0)
  1922  000F88  0E01               	movlw	1
  1923  000F8A  ECA5  F010         	call	_BUTTON_IsPressed
  1924  000F8E  0900               	iorlw	0
  1925  000F90  A4D8               	btfss	status,2,c
  1926  000F92  D002               	goto	l4054
  1927                           
  1928                           ;app_device_custom_hid.c: 130: {
  1929                           ;app_device_custom_hid.c: 131: ToSendDataBuffer[1] = 0x01;
  1930  000F94  0E01               	movlw	1
  1931  000F96  D001               	goto	L1
  1932  000F98                     l4054:
  1933                           
  1934                           ;app_device_custom_hid.c: 133: else
  1935                           ;app_device_custom_hid.c: 134: {
  1936                           ;app_device_custom_hid.c: 135: ToSendDataBuffer[1] = 0x00;
  1937  000F98  0E00               	movlw	0
  1938  000F9A                     L1:
  1939  000F9A  0105               	movlb	5	; () banked
  1940  000F9C  6F41               	movwf	65,b
  1941  000F9E  D000               	goto	l4056
  1942  000FA0                     l4056:
  1943                           
  1944                           ; BSR set to: 5
  1945                           ;app_device_custom_hid.c: 136: }
  1946                           ;app_device_custom_hid.c: 138: USBInHandle = USBTransferOnePacket(1,1,(uint8_t*)&ToSendD
      +                          ataBuffer[0],64);
  1947  000FA0  0E01               	movlw	1
  1948  000FA2  0100               	movlb	0	; () banked
  1949  000FA4  6F71               	movwf	USBTransferOnePacket@dir& (0+255),b
  1950  000FA6  0E40               	movlw	64
  1951  000FA8  0100               	movlb	0	; () banked
  1952  000FAA  6F72               	movwf	USBTransferOnePacket@data& (0+255),b
  1953  000FAC  0E05               	movlw	5
  1954  000FAE  0100               	movlb	0	; () banked
  1955  000FB0  6F73               	movwf	(USBTransferOnePacket@data+1)& (0+255),b
  1956  000FB2  0E40               	movlw	64
  1957  000FB4  0100               	movlb	0	; () banked
  1958  000FB6  6F74               	movwf	USBTransferOnePacket@len& (0+255),b
  1959  000FB8  0E01               	movlw	1
  1960  000FBA  ECBB  F00A         	call	_USBTransferOnePacket
  1961  000FBE  D02D               	goto	L2
  1962                           
  1963                           ;app_device_custom_hid.c: 147: {
  1964                           ;app_device_custom_hid.c: 149: }
  1965                           ;app_device_custom_hid.c: 150: break;
  1966                           
  1967                           ;app_device_custom_hid.c: 146: case COMMAND_GENERATE_FROM_ADC:
  1968                           
  1969                           ;app_device_custom_hid.c: 142: {
  1970                           ;app_device_custom_hid.c: 144: }
  1971                           ;app_device_custom_hid.c: 145: break;
  1972                           
  1973                           ;app_device_custom_hid.c: 141: case COMMAND_ACQUIRE_FROM_PIN:
  1974                           
  1975                           ;app_device_custom_hid.c: 139: }
  1976                           ;app_device_custom_hid.c: 140: break;
  1977  000FC0  D043               	goto	l4076
  1978  000FC2                     l4058:
  1979                           
  1980                           ;app_device_custom_hid.c: 152: {
  1981                           ;app_device_custom_hid.c: 153: uint16_t pot;
  1982                           ;app_device_custom_hid.c: 156: if(!((USBInHandle != 0x0000) && ((*(volatile uint8_t*)USB
      +                          InHandle & 0x80) != 0x00)))
  1983  000FC2  0100               	movlb	0	; () banked
  1984  000FC4  5168               	movf	_USBInHandle& (0+255),w,b
  1985  000FC6  0100               	movlb	0	; () banked
  1986  000FC8  1169               	iorwf	(_USBInHandle+1)& (0+255),w,b
  1987  000FCA  B4D8               	btfsc	status,2,c
  1988  000FCC  D007               	goto	l4062
  1989                           
  1990                           ; BSR set to: 0
  1991  000FCE  C068  FFD9         	movff	_USBInHandle,fsr2l
  1992  000FD2  C069  FFDA         	movff	_USBInHandle+1,fsr2h
  1993  000FD6  0100               	movlb	0	; () banked
  1994  000FD8  BEDF               	btfsc	indf2,7,c
  1995  000FDA  D036               	goto	l4076
  1996  000FDC                     l4062:
  1997                           
  1998                           ; BSR set to: 0
  1999                           ;app_device_custom_hid.c: 157: {
  2000                           ;app_device_custom_hid.c: 163: pot = ADC_Read10bit(ADC_CHANNEL_0);
  2001  000FDC  0E00               	movlw	0
  2002  000FDE  EC5A  F00F         	call	_ADC_Read10bit
  2003  000FE2  C071  F078         	movff	?_ADC_Read10bit,APP_DeviceCustomHIDTasks@pot
  2004  000FE6  C072  F079         	movff	?_ADC_Read10bit+1,APP_DeviceCustomHIDTasks@pot+1
  2005                           
  2006                           ;app_device_custom_hid.c: 165: ToSendDataBuffer[0] = 0x37;
  2007  000FEA  0E37               	movlw	55
  2008  000FEC  0105               	movlb	5	; () banked
  2009  000FEE  6F40               	movwf	64,b
  2010                           
  2011                           ; BSR set to: 5
  2012                           ;app_device_custom_hid.c: 166: ToSendDataBuffer[1] = (uint8_t)pot;
  2013  000FF0  C078  F541         	movff	APP_DeviceCustomHIDTasks@pot,1345
  2014                           
  2015                           ; BSR set to: 5
  2016                           ;app_device_custom_hid.c: 167: ToSendDataBuffer[2] = pot >> 8;
  2017  000FF4  0100               	movlb	0	; () banked
  2018  000FF6  5179               	movf	(APP_DeviceCustomHIDTasks@pot+1)& (0+255),w,b
  2019  000FF8  0105               	movlb	5	; () banked
  2020  000FFA  6F42               	movwf	66,b
  2021                           
  2022                           ; BSR set to: 5
  2023                           ;app_device_custom_hid.c: 171: USBInHandle = USBTransferOnePacket(1,1,(uint8_t*)&ToSendD
      +                          ataBuffer[0],64);
  2024  000FFC  0E01               	movlw	1
  2025  000FFE  0100               	movlb	0	; () banked
  2026  001000  6F71               	movwf	USBTransferOnePacket@dir& (0+255),b
  2027  001002  0E40               	movlw	64
  2028  001004  0100               	movlb	0	; () banked
  2029  001006  6F72               	movwf	USBTransferOnePacket@data& (0+255),b
  2030  001008  0E05               	movlw	5
  2031  00100A  0100               	movlb	0	; () banked
  2032  00100C  6F73               	movwf	(USBTransferOnePacket@data+1)& (0+255),b
  2033  00100E  0E40               	movlw	64
  2034  001010  0100               	movlb	0	; () banked
  2035  001012  6F74               	movwf	USBTransferOnePacket@len& (0+255),b
  2036  001014  0E01               	movlw	1
  2037  001016  ECBB  F00A         	call	_USBTransferOnePacket
  2038  00101A                     L2:
  2039  00101A  C071  F068         	movff	?_USBTransferOnePacket,_USBInHandle
  2040  00101E  C072  F069         	movff	?_USBTransferOnePacket+1,_USBInHandle+1
  2041                           
  2042                           ;app_device_custom_hid.c: 175: }
  2043                           
  2044                           ;app_device_custom_hid.c: 172: }
  2045                           ;app_device_custom_hid.c: 173: }
  2046                           ;app_device_custom_hid.c: 174: break;
  2047  001022  D012               	goto	l4076
  2048  001024                     l4074:
  2049  001024  0105               	movlb	5	; () banked
  2050  001026  5100               	movf	0,w,b
  2051                           
  2052                           ; Switch size 1, requested type "space"
  2053                           ; Number of cases is 5, Range of values is 55 to 129
  2054                           ; switch strategies available:
  2055                           ; Name         Instructions Cycles
  2056                           ; simple_byte           16     9 (average)
  2057                           ;	Chosen strategy is simple_byte
  2058  001028  0A37               	xorlw	55	; case 55
  2059  00102A  B4D8               	btfsc	status,2,c
  2060  00102C  D7CA               	goto	l4058
  2061  00102E  0A52               	xorlw	82	; case 101
  2062  001030  B4D8               	btfsc	status,2,c
  2063  001032  D00A               	goto	l4076
  2064  001034  0A03               	xorlw	3	; case 102
  2065  001036  B4D8               	btfsc	status,2,c
  2066  001038  D007               	goto	l4076
  2067  00103A  0AE6               	xorlw	230	; case 128
  2068  00103C  B4D8               	btfsc	status,2,c
  2069  00103E  D790               	goto	l4042
  2070  001040  0A01               	xorlw	1	; case 129
  2071  001042  B4D8               	btfsc	status,2,c
  2072  001044  D791               	goto	l4044
  2073  001046  D000               	goto	l4076
  2074  001048                     l4076:
  2075                           
  2076                           ;app_device_custom_hid.c: 178: USBOutHandle = USBTransferOnePacket(1,0,(uint8_t*)&Receiv
      +                          edDataBuffer,64);
  2077  001048  0E00               	movlw	0
  2078  00104A  0100               	movlb	0	; () banked
  2079  00104C  6F71               	movwf	USBTransferOnePacket@dir& (0+255),b
  2080  00104E  0E00               	movlw	0
  2081  001050  0100               	movlb	0	; () banked
  2082  001052  6F72               	movwf	USBTransferOnePacket@data& (0+255),b
  2083  001054  0E05               	movlw	5
  2084  001056  0100               	movlb	0	; () banked
  2085  001058  6F73               	movwf	(USBTransferOnePacket@data+1)& (0+255),b
  2086  00105A  0E40               	movlw	64
  2087  00105C  0100               	movlb	0	; () banked
  2088  00105E  6F74               	movwf	USBTransferOnePacket@len& (0+255),b
  2089  001060  0E01               	movlw	1
  2090  001062  ECBB  F00A         	call	_USBTransferOnePacket
  2091  001066  C071  F06A         	movff	?_USBTransferOnePacket,_USBOutHandle
  2092  00106A  C072  F06B         	movff	?_USBTransferOnePacket+1,_USBOutHandle+1
  2093  00106E  0012               	return	
  2094  001070  0012               	return		;funcret
  2095  001072                     __end_of_APP_DeviceCustomHIDTasks:
  2096                           	opt stack 0
  2097                           tblptru	equ	0xFF8
  2098                           prodh	equ	0xFF4
  2099                           prodl	equ	0xFF3
  2100                           intcon	equ	0xFF2
  2101                           postinc0	equ	0xFEE
  2102                           wreg	equ	0xFE8
  2103                           indf2	equ	0xFDF
  2104                           postinc2	equ	0xFDE
  2105                           postdec2	equ	0xFDD
  2106                           fsr2h	equ	0xFDA
  2107                           fsr2l	equ	0xFD9
  2108                           status	equ	0xFD8
  2109                           
  2110 ;; *************** function _USBTransferOnePacket *****************
  2111 ;; Defined at:
  2112 ;;		line 1013 in file "../../../../../../microchip/mla/v2015_08_10/framework/usb/src/usb_device.c"
  2113 ;; Parameters:    Size  Location     Type
  2114 ;;  ep              1    wreg     unsigned char 
  2115 ;;  dir             1    0[BANK0 ] unsigned char 
  2116 ;;  data            2    1[BANK0 ] PTR unsigned char 
  2117 ;;		 -> ToSendDataBuffer(64), ReceivedDataBuffer(64), 
  2118 ;;  len             1    3[BANK0 ] unsigned char 
  2119 ;; Auto vars:     Size  Location     Type
  2120 ;;  ep              1    4[BANK0 ] unsigned char 
  2121 ;;  handle          2    5[BANK0 ] PTR volatile struct __BD
  2122 ;;		 -> BDT(32), NULL(0), 
  2123 ;; Return value:  Size  Location     Type
  2124 ;;                  2    0[BANK0 ] PTR void 
  2125 ;; Registers used:
  2126 ;;		wreg, fsr2l, fsr2h, status,2, status,0, prodl, prodh
  2127 ;; Tracked objects:
  2128 ;;		On entry : 0/0
  2129 ;;		On exit  : 0/0
  2130 ;;		Unchanged: 0/0
  2131 ;; Data sizes:     COMRAM   BANK0   BANK1   BANK2   BANK3   BANK4   BANK5   BANK6   BANK7
  2132 ;;      Params:         0       4       0       0       0       0       0       0       0
  2133 ;;      Locals:         0       3       0       0       0       0       0       0       0
  2134 ;;      Temps:          0       0       0       0       0       0       0       0       0
  2135 ;;      Totals:         0       7       0       0       0       0       0       0       0
  2136 ;;Total ram usage:        7 bytes
  2137 ;; Hardware stack levels used:    1
  2138 ;; Hardware stack levels required when called:   10
  2139 ;; This function calls:
  2140 ;;		Nothing
  2141 ;; This function is called by:
  2142 ;;		_APP_DeviceCustomHIDTasks
  2143 ;; This function uses a non-reentrant model
  2144 ;;
  2145                           
  2146                           	psect	text10
  2147  001576                     __ptext10:
  2148                           	opt stack 0
  2149  001576                     _USBTransferOnePacket:
  2150                           	opt stack 19
  2151                           
  2152                           ;incstack = 0
  2153                           ;USBTransferOnePacket@ep stored from wreg
  2154  001576  0100               	movlb	0	; () banked
  2155  001578  6F75               	movwf	USBTransferOnePacket@ep& (0+255),b
  2156                           
  2157                           ; BSR set to: 0
  2158                           ;usb_device.c: 1015: volatile BDT_ENTRY* handle;
  2159                           ;usb_device.c: 1018: if(dir != 0)
  2160  00157A  0100               	movlb	0	; () banked
  2161  00157C  5171               	movf	USBTransferOnePacket@dir& (0+255),w,b
  2162  00157E  0100               	movlb	0	; () banked
  2163  001580  B4D8               	btfsc	status,2,c
  2164  001582  D008               	goto	l3898
  2165                           
  2166                           ; BSR set to: 0
  2167                           ;usb_device.c: 1019: {
  2168                           ;usb_device.c: 1021: handle = pBDTEntryIn[ep];
  2169  001584  0100               	movlb	0	; () banked
  2170  001586  5175               	movf	USBTransferOnePacket@ep& (0+255),w,b
  2171  001588  0D02               	mullw	2
  2172  00158A  0E09               	movlw	low _pBDTEntryIn
  2173  00158C  24F3               	addwf	prodl,w,c
  2174  00158E  6ED9               	movwf	fsr2l,c
  2175  001590  0E00               	movlw	high _pBDTEntryIn
  2176  001592  D007               	goto	L3
  2177  001594                     l3898:
  2178                           
  2179                           ; BSR set to: 0
  2180                           ;usb_device.c: 1023: else
  2181                           ;usb_device.c: 1024: {
  2182                           ;usb_device.c: 1026: handle = pBDTEntryOut[ep];
  2183  001594  0100               	movlb	0	; () banked
  2184  001596  5175               	movf	USBTransferOnePacket@ep& (0+255),w,b
  2185  001598  0D02               	mullw	2
  2186  00159A  0E64               	movlw	low _pBDTEntryOut
  2187  00159C  24F3               	addwf	prodl,w,c
  2188  00159E  6ED9               	movwf	fsr2l,c
  2189  0015A0  0E00               	movlw	high _pBDTEntryOut
  2190  0015A2                     L3:
  2191  0015A2  20F4               	addwfc	prodh,w,c
  2192  0015A4  6EDA               	movwf	fsr2h,c
  2193  0015A6  CFDE F076          	movff	postinc2,USBTransferOnePacket@handle
  2194  0015AA  CFDD F077          	movff	postdec2,USBTransferOnePacket@handle+1
  2195  0015AE  D000               	goto	l3900
  2196  0015B0                     l3900:
  2197                           
  2198                           ; BSR set to: 0
  2199                           ;usb_device.c: 1027: }
  2200                           ;usb_device.c: 1031: if(handle == 0)
  2201  0015B0  0100               	movlb	0	; () banked
  2202  0015B2  5176               	movf	USBTransferOnePacket@handle& (0+255),w,b
  2203  0015B4  0100               	movlb	0	; () banked
  2204  0015B6  1177               	iorwf	(USBTransferOnePacket@handle+1)& (0+255),w,b
  2205  0015B8  A4D8               	btfss	status,2,c
  2206  0015BA  D007               	goto	l3906
  2207                           
  2208                           ; BSR set to: 0
  2209                           ;usb_device.c: 1032: {
  2210                           ;usb_device.c: 1033: return 0;
  2211  0015BC  0E00               	movlw	0
  2212  0015BE  0100               	movlb	0	; () banked
  2213  0015C0  6F71               	movwf	?_USBTransferOnePacket& (0+255),b
  2214  0015C2  0E00               	movlw	0
  2215  0015C4  0100               	movlb	0	; () banked
  2216  0015C6  6F72               	movwf	(?_USBTransferOnePacket+1)& (0+255),b
  2217                           
  2218                           ; BSR set to: 0
  2219  0015C8  0012               	return	
  2220  0015CA                     l3906:
  2221                           
  2222                           ; BSR set to: 0
  2223                           ;usb_device.c: 1034: }
  2224                           ;usb_device.c: 1047: handle->ADR = ((uint16_t)(data));
  2225  0015CA  0100               	movlb	0	; () banked
  2226  0015CC  EE20 F002          	lfsr	2,2
  2227  0015D0  5176               	movf	USBTransferOnePacket@handle& (0+255),w,b
  2228  0015D2  26D9               	addwf	fsr2l,f,c
  2229  0015D4  5177               	movf	(USBTransferOnePacket@handle+1)& (0+255),w,b
  2230  0015D6  22DA               	addwfc	fsr2h,f,c
  2231  0015D8  C072  FFDE         	movff	USBTransferOnePacket@data,postinc2
  2232  0015DC  C073  FFDD         	movff	USBTransferOnePacket@data+1,postdec2
  2233                           
  2234                           ;usb_device.c: 1048: handle->CNT = len;
  2235  0015E0  0100               	movlb	0	; () banked
  2236  0015E2  EE20 F001          	lfsr	2,1
  2237  0015E6  5176               	movf	USBTransferOnePacket@handle& (0+255),w,b
  2238  0015E8  26D9               	addwf	fsr2l,f,c
  2239  0015EA  5177               	movf	(USBTransferOnePacket@handle+1)& (0+255),w,b
  2240  0015EC  22DA               	addwfc	fsr2h,f,c
  2241  0015EE  C074  FFDF         	movff	USBTransferOnePacket@len,indf2
  2242                           
  2243                           ; BSR set to: 0
  2244                           ;usb_device.c: 1049: handle->STAT.Val &= 0x40;
  2245  0015F2  C076  FFD9         	movff	USBTransferOnePacket@handle,fsr2l
  2246  0015F6  C077  FFDA         	movff	USBTransferOnePacket@handle+1,fsr2h
  2247  0015FA  0E40               	movlw	64
  2248  0015FC  16DF               	andwf	indf2,f,c
  2249                           
  2250                           ; BSR set to: 0
  2251                           ;usb_device.c: 1050: handle->STAT.Val |= (0x08 & 0x08);
  2252  0015FE  C076  FFD9         	movff	USBTransferOnePacket@handle,fsr2l
  2253  001602  C077  FFDA         	movff	USBTransferOnePacket@handle+1,fsr2h
  2254  001606  0E00               	movlw	0
  2255  001608  86DB               	bsf	plusw2,3,c
  2256                           
  2257                           ; BSR set to: 0
  2258                           ;usb_device.c: 1051: handle->STAT.Val |= 0x80;
  2259  00160A  C076  FFD9         	movff	USBTransferOnePacket@handle,fsr2l
  2260  00160E  C077  FFDA         	movff	USBTransferOnePacket@handle+1,fsr2h
  2261  001612  0E00               	movlw	0
  2262  001614  8EDB               	bsf	plusw2,7,c
  2263                           
  2264                           ; BSR set to: 0
  2265                           ;usb_device.c: 1054: if(dir != 0)
  2266  001616  0100               	movlb	0	; () banked
  2267  001618  5171               	movf	USBTransferOnePacket@dir& (0+255),w,b
  2268  00161A  0100               	movlb	0	; () banked
  2269  00161C  B4D8               	btfsc	status,2,c
  2270  00161E  D008               	goto	l3918
  2271                           
  2272                           ; BSR set to: 0
  2273                           ;usb_device.c: 1055: {
  2274                           ;usb_device.c: 1057: {((uint8_t_VAL*)&pBDTEntryIn[ep])->Val ^= 0x0004;};
  2275  001620  0100               	movlb	0	; () banked
  2276  001622  5175               	movf	USBTransferOnePacket@ep& (0+255),w,b
  2277  001624  0D02               	mullw	2
  2278  001626  0E09               	movlw	low _pBDTEntryIn
  2279  001628  24F3               	addwf	prodl,w,c
  2280  00162A  6ED9               	movwf	fsr2l,c
  2281  00162C  0E00               	movlw	high _pBDTEntryIn
  2282  00162E  D007               	goto	L4
  2283  001630                     l3918:
  2284                           
  2285                           ; BSR set to: 0
  2286                           ;usb_device.c: 1059: else
  2287                           ;usb_device.c: 1060: {
  2288                           ;usb_device.c: 1062: {((uint8_t_VAL*)&pBDTEntryOut[ep])->Val ^= 0x0004;};
  2289  001630  0100               	movlb	0	; () banked
  2290  001632  5175               	movf	USBTransferOnePacket@ep& (0+255),w,b
  2291  001634  0D02               	mullw	2
  2292  001636  0E64               	movlw	low _pBDTEntryOut
  2293  001638  24F3               	addwf	prodl,w,c
  2294  00163A  6ED9               	movwf	fsr2l,c
  2295  00163C  0E00               	movlw	high _pBDTEntryOut
  2296  00163E                     L4:
  2297  00163E  20F4               	addwfc	prodh,w,c
  2298  001640  6EDA               	movwf	fsr2h,c
  2299  001642  0E04               	movlw	4
  2300  001644  1ADF               	xorwf	indf2,f,c
  2301  001646  D000               	goto	l3920
  2302  001648                     l3920:
  2303                           
  2304                           ; BSR set to: 0
  2305                           ;usb_device.c: 1063: }
  2306                           ;usb_device.c: 1064: return (void*)handle;
  2307  001648  C076  F071         	movff	USBTransferOnePacket@handle,?_USBTransferOnePacket
  2308  00164C  C077  F072         	movff	USBTransferOnePacket@handle+1,?_USBTransferOnePacket+1
  2309  001650  0012               	return	
  2310                           
  2311                           ; BSR set to: 0
  2312                           
  2313                           ; BSR set to: 0
  2314  001652  0012               	return		;funcret
  2315  001654                     __end_of_USBTransferOnePacket:
  2316                           	opt stack 0
  2317                           tblptru	equ	0xFF8
  2318                           prodh	equ	0xFF4
  2319                           prodl	equ	0xFF3
  2320                           intcon	equ	0xFF2
  2321                           postinc0	equ	0xFEE
  2322                           wreg	equ	0xFE8
  2323                           indf2	equ	0xFDF
  2324                           postinc2	equ	0xFDE
  2325                           postdec2	equ	0xFDD
  2326                           plusw2	equ	0xFDB
  2327                           fsr2h	equ	0xFDA
  2328                           fsr2l	equ	0xFD9
  2329                           status	equ	0xFD8
  2330                           
  2331 ;; *************** function _LED_Toggle *****************
  2332 ;; Defined at:
  2333 ;;		line 149 in file "../bsp_pic18f45k50/leds.c"
  2334 ;; Parameters:    Size  Location     Type
  2335 ;;  led             1    wreg     enum E2
  2336 ;; Auto vars:     Size  Location     Type
  2337 ;;  led             1    0[BANK0 ] enum E2
  2338 ;; Return value:  Size  Location     Type
  2339 ;;		None               void
  2340 ;; Registers used:
  2341 ;;		wreg, status,2, status,0
  2342 ;; Tracked objects:
  2343 ;;		On entry : 0/0
  2344 ;;		On exit  : 0/0
  2345 ;;		Unchanged: 0/0
  2346 ;; Data sizes:     COMRAM   BANK0   BANK1   BANK2   BANK3   BANK4   BANK5   BANK6   BANK7
  2347 ;;      Params:         0       0       0       0       0       0       0       0       0
  2348 ;;      Locals:         0       1       0       0       0       0       0       0       0
  2349 ;;      Temps:          0       0       0       0       0       0       0       0       0
  2350 ;;      Totals:         0       1       0       0       0       0       0       0       0
  2351 ;;Total ram usage:        1 bytes
  2352 ;; Hardware stack levels used:    1
  2353 ;; Hardware stack levels required when called:   10
  2354 ;; This function calls:
  2355 ;;		Nothing
  2356 ;; This function is called by:
  2357 ;;		_APP_DeviceCustomHIDTasks
  2358 ;; This function uses a non-reentrant model
  2359 ;;
  2360                           
  2361                           	psect	text11
  2362  0022AC                     __ptext11:
  2363                           	opt stack 0
  2364  0022AC                     _LED_Toggle:
  2365                           	opt stack 19
  2366                           
  2367                           ; BSR set to: 0
  2368                           ;incstack = 0
  2369                           ;LED_Toggle@led stored from wreg
  2370  0022AC  0100               	movlb	0	; () banked
  2371  0022AE  6F71               	movwf	LED_Toggle@led& (0+255),b
  2372                           
  2373                           ; BSR set to: 0
  2374                           ;leds.c: 151: switch(led)
  2375  0022B0  D002               	goto	l3886
  2376  0022B2                     l91:
  2377                           
  2378                           ; BSR set to: 0
  2379                           ;leds.c: 154: LATCbits.LATC2 ^= 1;
  2380  0022B2  748B               	btg	3979,2,c	;volatile
  2381                           
  2382                           ; BSR set to: 0
  2383                           ;leds.c: 170: }
  2384                           
  2385                           ; BSR set to: 0
  2386                           ;leds.c: 169: break;
  2387                           
  2388                           ;leds.c: 168: case LED_NONE:
  2389                           
  2390                           ;leds.c: 155: break;
  2391  0022B4  0012               	return	
  2392  0022B6                     l3886:
  2393                           
  2394                           ; BSR set to: 0
  2395  0022B6  0100               	movlb	0	; () banked
  2396  0022B8  5171               	movf	LED_Toggle@led& (0+255),w,b
  2397                           
  2398                           ; Switch size 1, requested type "space"
  2399                           ; Number of cases is 2, Range of values is 0 to 1
  2400                           ; switch strategies available:
  2401                           ; Name         Instructions Cycles
  2402                           ; simple_byte            7     4 (average)
  2403                           ;	Chosen strategy is simple_byte
  2404  0022BA  0A00               	xorlw	0	; case 0
  2405  0022BC  B4D8               	btfsc	status,2,c
  2406  0022BE  0012               	return	
  2407  0022C0  0A01               	xorlw	1	; case 1
  2408  0022C2  A4D8               	btfss	status,2,c
  2409  0022C4  0012               	return	
  2410  0022C6  D7F5               	goto	l91
  2411                           
  2412                           ; BSR set to: 0
  2413                           
  2414                           ; BSR set to: 0
  2415  0022C8  0012               	return		;funcret
  2416  0022CA                     __end_of_LED_Toggle:
  2417                           	opt stack 0
  2418                           tblptru	equ	0xFF8
  2419                           prodh	equ	0xFF4
  2420                           prodl	equ	0xFF3
  2421                           intcon	equ	0xFF2
  2422                           postinc0	equ	0xFEE
  2423                           wreg	equ	0xFE8
  2424                           indf2	equ	0xFDF
  2425                           postinc2	equ	0xFDE
  2426                           postdec2	equ	0xFDD
  2427                           plusw2	equ	0xFDB
  2428                           fsr2h	equ	0xFDA
  2429                           fsr2l	equ	0xFD9
  2430                           status	equ	0xFD8
  2431                           
  2432 ;; *************** function _BUTTON_IsPressed *****************
  2433 ;; Defined at:
  2434 ;;		line 63 in file "../bsp_pic18f45k50/buttons.c"
  2435 ;; Parameters:    Size  Location     Type
  2436 ;;  button          1    wreg     enum E6643
  2437 ;; Auto vars:     Size  Location     Type
  2438 ;;  button          1    0[BANK0 ] enum E6643
  2439 ;; Return value:  Size  Location     Type
  2440 ;;                  1    wreg      unsigned char 
  2441 ;; Registers used:
  2442 ;;		wreg, status,2, status,0
  2443 ;; Tracked objects:
  2444 ;;		On entry : 0/0
  2445 ;;		On exit  : 0/0
  2446 ;;		Unchanged: 0/0
  2447 ;; Data sizes:     COMRAM   BANK0   BANK1   BANK2   BANK3   BANK4   BANK5   BANK6   BANK7
  2448 ;;      Params:         0       0       0       0       0       0       0       0       0
  2449 ;;      Locals:         0       1       0       0       0       0       0       0       0
  2450 ;;      Temps:          0       0       0       0       0       0       0       0       0
  2451 ;;      Totals:         0       1       0       0       0       0       0       0       0
  2452 ;;Total ram usage:        1 bytes
  2453 ;; Hardware stack levels used:    1
  2454 ;; Hardware stack levels required when called:   10
  2455 ;; This function calls:
  2456 ;;		Nothing
  2457 ;; This function is called by:
  2458 ;;		_APP_DeviceCustomHIDTasks
  2459 ;; This function uses a non-reentrant model
  2460 ;;
  2461                           
  2462                           	psect	text12
  2463  00214A                     __ptext12:
  2464                           	opt stack 0
  2465  00214A                     _BUTTON_IsPressed:
  2466                           	opt stack 19
  2467                           
  2468                           ; BSR set to: 0
  2469                           ;incstack = 0
  2470                           ;BUTTON_IsPressed@button stored from wreg
  2471  00214A  0100               	movlb	0	; () banked
  2472  00214C  6F71               	movwf	BUTTON_IsPressed@button& (0+255),b
  2473                           
  2474                           ; BSR set to: 0
  2475                           ;buttons.c: 65: switch(button)
  2476  00214E  D009               	goto	l3840
  2477  002150                     l10:
  2478                           
  2479                           ; BSR set to: 0
  2480                           ;buttons.c: 68: return ( (PORTDbits.RD3 == 0) ? 1 : 0);
  2481  002150  B683               	btfsc	3971,3,c	;volatile
  2482  002152  D002               	goto	u2930
  2483  002154  0E01               	movlw	1
  2484  002156  0012               	return	
  2485  002158                     u2930:
  2486  002158  0E00               	movlw	0
  2487  00215A  0012               	return	
  2488  00215C                     l3834:
  2489                           
  2490                           ; BSR set to: 0
  2491                           ;buttons.c: 74: return 0;
  2492  00215C  0E00               	movlw	0
  2493                           
  2494                           ; BSR set to: 0
  2495  00215E  0012               	return	
  2496                           
  2497                           ; BSR set to: 0
  2498                           ;buttons.c: 75: }
  2499  002160  D009               	goto	l3842
  2500  002162                     l3840:
  2501                           
  2502                           ; BSR set to: 0
  2503  002162  0100               	movlb	0	; () banked
  2504  002164  5171               	movf	BUTTON_IsPressed@button& (0+255),w,b
  2505                           
  2506                           ; Switch size 1, requested type "space"
  2507                           ; Number of cases is 2, Range of values is 0 to 1
  2508                           ; switch strategies available:
  2509                           ; Name         Instructions Cycles
  2510                           ; simple_byte            7     4 (average)
  2511                           ;	Chosen strategy is simple_byte
  2512  002166  0A00               	xorlw	0	; case 0
  2513  002168  B4D8               	btfsc	status,2,c
  2514  00216A  D7F8               	goto	l3834
  2515  00216C  0A01               	xorlw	1	; case 1
  2516  00216E  B4D8               	btfsc	status,2,c
  2517  002170  D7EF               	goto	l10
  2518  002172  D000               	goto	l3842
  2519  002174                     l3842:
  2520                           
  2521                           ; BSR set to: 0
  2522                           ;buttons.c: 77: return 0;
  2523  002174  0E00               	movlw	0
  2524  002176  0012               	return	
  2525                           
  2526                           ; BSR set to: 0
  2527                           
  2528                           ; BSR set to: 0
  2529  002178  0012               	return		;funcret
  2530  00217A                     __end_of_BUTTON_IsPressed:
  2531                           	opt stack 0
  2532                           tblptru	equ	0xFF8
  2533                           prodh	equ	0xFF4
  2534                           prodl	equ	0xFF3
  2535                           intcon	equ	0xFF2
  2536                           postinc0	equ	0xFEE
  2537                           wreg	equ	0xFE8
  2538                           indf2	equ	0xFDF
  2539                           postinc2	equ	0xFDE
  2540                           postdec2	equ	0xFDD
  2541                           plusw2	equ	0xFDB
  2542                           fsr2h	equ	0xFDA
  2543                           fsr2l	equ	0xFD9
  2544                           status	equ	0xFD8
  2545                           
  2546 ;; *************** function _ADC_Read10bit *****************
  2547 ;; Defined at:
  2548 ;;		line 93 in file "../bsp_pic18f45k50/adc.c"
  2549 ;; Parameters:    Size  Location     Type
  2550 ;;  channel         1    wreg     enum E30
  2551 ;; Auto vars:     Size  Location     Type
  2552 ;;  channel         1    5[BANK0 ] enum E30
  2553 ;;  result          2    3[BANK0 ] unsigned int 
  2554 ;; Return value:  Size  Location     Type
  2555 ;;                  2    0[BANK0 ] unsigned int 
  2556 ;; Registers used:
  2557 ;;		wreg, status,2, status,0
  2558 ;; Tracked objects:
  2559 ;;		On entry : 0/0
  2560 ;;		On exit  : 0/0
  2561 ;;		Unchanged: 0/0
  2562 ;; Data sizes:     COMRAM   BANK0   BANK1   BANK2   BANK3   BANK4   BANK5   BANK6   BANK7
  2563 ;;      Params:         0       2       0       0       0       0       0       0       0
  2564 ;;      Locals:         0       3       0       0       0       0       0       0       0
  2565 ;;      Temps:          0       1       0       0       0       0       0       0       0
  2566 ;;      Totals:         0       6       0       0       0       0       0       0       0
  2567 ;;Total ram usage:        6 bytes
  2568 ;; Hardware stack levels used:    1
  2569 ;; Hardware stack levels required when called:   10
  2570 ;; This function calls:
  2571 ;;		Nothing
  2572 ;; This function is called by:
  2573 ;;		_APP_DeviceCustomHIDTasks
  2574 ;;		_ADC_ReadPercentage
  2575 ;; This function uses a non-reentrant model
  2576 ;;
  2577                           
  2578                           	psect	text13
  2579  001EB4                     __ptext13:
  2580                           	opt stack 0
  2581  001EB4                     _ADC_Read10bit:
  2582                           	opt stack 19
  2583                           
  2584                           ; BSR set to: 0
  2585                           ;incstack = 0
  2586                           ;ADC_Read10bit@channel stored from wreg
  2587  001EB4  0100               	movlb	0	; () banked
  2588  001EB6  6F76               	movwf	ADC_Read10bit@channel& (0+255),b
  2589                           
  2590                           ; BSR set to: 0
  2591                           ;adc.c: 95: uint16_t result;
  2592                           ;adc.c: 97: switch(channel)
  2593  001EB8  D006               	goto	l3856
  2594                           
  2595                           ; BSR set to: 0
  2596                           ;adc.c: 100: break;
  2597                           
  2598                           ;adc.c: 98: {
  2599                           ;adc.c: 99: case ADC_CHANNEL_0:
  2600  001EBA  D00A               	goto	l3858
  2601  001EBC                     l52:
  2602                           
  2603                           ; BSR set to: 0
  2604                           ;adc.c: 102: return 0xFFFF;
  2605  001EBC  0100               	movlb	0	; () banked
  2606  001EBE  6971               	setf	?_ADC_Read10bit& (0+255),b
  2607  001EC0  6972               	setf	(?_ADC_Read10bit+1)& (0+255),b
  2608  001EC2  0012               	return	
  2609                           
  2610                           ; BSR set to: 0
  2611                           ;adc.c: 103: }
  2612  001EC4  D005               	goto	l3858
  2613  001EC6                     l3856:
  2614                           
  2615                           ; BSR set to: 0
  2616  001EC6  0100               	movlb	0	; () banked
  2617  001EC8  5176               	movf	ADC_Read10bit@channel& (0+255),w,b
  2618                           
  2619                           ; Switch size 1, requested type "space"
  2620                           ; Number of cases is 1, Range of values is 0 to 0
  2621                           ; switch strategies available:
  2622                           ; Name         Instructions Cycles
  2623                           ; simple_byte            4     3 (average)
  2624                           ;	Chosen strategy is simple_byte
  2625  001ECA  0A00               	xorlw	0	; case 0
  2626  001ECC  A4D8               	btfss	status,2,c
  2627  001ECE  D7F6               	goto	l52
  2628  001ED0                     l3858:
  2629                           
  2630                           ; BSR set to: 0
  2631                           ;adc.c: 105: ADCON0bits.CHS = channel;
  2632  001ED0  C076  F073         	movff	ADC_Read10bit@channel,??_ADC_Read10bit
  2633  001ED4  0100               	movlb	0	; () banked
  2634  001ED6  4773               	rlncf	??_ADC_Read10bit& (0+255),f,b
  2635  001ED8  4773               	rlncf	??_ADC_Read10bit& (0+255),f,b
  2636  001EDA  50C2               	movf	4034,w,c	;volatile
  2637  001EDC  0100               	movlb	0	; () banked
  2638  001EDE  1973               	xorwf	??_ADC_Read10bit& (0+255),w,b
  2639  001EE0  0B83               	andlw	-125
  2640  001EE2  1973               	xorwf	??_ADC_Read10bit& (0+255),w,b
  2641  001EE4  6EC2               	movwf	4034,c	;volatile
  2642                           
  2643                           ; BSR set to: 0
  2644                           ;adc.c: 107: ADCON0bits.GO = 1;
  2645  001EE6  82C2               	bsf	4034,1,c	;volatile
  2646                           
  2647                           ;adc.c: 108: while(ADCON0bits.NOT_DONE);
  2648  001EE8  D000               	goto	l54
  2649  001EEA                     l54:
  2650                           
  2651                           ; BSR set to: 0
  2652  001EEA  B2C2               	btfsc	4034,1,c	;volatile
  2653  001EEC  D7FE               	goto	l54
  2654                           
  2655                           ; BSR set to: 0
  2656                           ;adc.c: 110: result = ADRESH;
  2657  001EEE  CFC4 F074          	movff	4036,ADC_Read10bit@result	;volatile
  2658  001EF2  0100               	movlb	0	; () banked
  2659  001EF4  6B75               	clrf	(ADC_Read10bit@result+1)& (0+255),b
  2660                           
  2661                           ; BSR set to: 0
  2662                           ;adc.c: 111: result <<=8;
  2663  001EF6  0100               	movlb	0	; () banked
  2664  001EF8  5174               	movf	ADC_Read10bit@result& (0+255),w,b
  2665  001EFA  6F75               	movwf	(ADC_Read10bit@result+1)& (0+255),b
  2666  001EFC  6B74               	clrf	ADC_Read10bit@result& (0+255),b
  2667                           
  2668                           ; BSR set to: 0
  2669                           ;adc.c: 112: result |= ADRESL;
  2670  001EFE  50C3               	movf	4035,w,c	;volatile
  2671  001F00  0100               	movlb	0	; () banked
  2672  001F02  1374               	iorwf	ADC_Read10bit@result& (0+255),f,b
  2673                           
  2674                           ; BSR set to: 0
  2675                           ;adc.c: 114: return result;
  2676  001F04  C074  F071         	movff	ADC_Read10bit@result,?_ADC_Read10bit
  2677  001F08  C075  F072         	movff	ADC_Read10bit@result+1,?_ADC_Read10bit+1
  2678  001F0C  0012               	return	
  2679                           
  2680                           ; BSR set to: 0
  2681                           
  2682                           ; BSR set to: 0
  2683  001F0E  0012               	return		;funcret
  2684  001F10                     __end_of_ADC_Read10bit:
  2685                           	opt stack 0
  2686                           tblptru	equ	0xFF8
  2687                           prodh	equ	0xFF4
  2688                           prodl	equ	0xFF3
  2689                           intcon	equ	0xFF2
  2690                           postinc0	equ	0xFEE
  2691                           wreg	equ	0xFE8
  2692                           indf2	equ	0xFDF
  2693                           postinc2	equ	0xFDE
  2694                           postdec2	equ	0xFDD
  2695                           plusw2	equ	0xFDB
  2696                           fsr2h	equ	0xFDA
  2697                           fsr2l	equ	0xFD9
  2698                           status	equ	0xFD8
  2699                           
  2700 ;; *************** function _SYS_InterruptHigh *****************
  2701 ;; Defined at:
  2702 ;;		line 124 in file "../src/system_config/pic18f45k50/system.c"
  2703 ;; Parameters:    Size  Location     Type
  2704 ;;		None
  2705 ;; Auto vars:     Size  Location     Type
  2706 ;;		None
  2707 ;; Return value:  Size  Location     Type
  2708 ;;		None               void
  2709 ;; Registers used:
  2710 ;;		wreg, fsr0l, fsr0h, fsr1l, fsr1h, fsr2l, fsr2h, status,2, status,0, tblptrl, tblptrh, tblptru, prodl, prodh, cstack
  2711 ;; Tracked objects:
  2712 ;;		On entry : 0/0
  2713 ;;		On exit  : 0/0
  2714 ;;		Unchanged: 0/0
  2715 ;; Data sizes:     COMRAM   BANK0   BANK1   BANK2   BANK3   BANK4   BANK5   BANK6   BANK7
  2716 ;;      Params:         0       0       0       0       0       0       0       0       0
  2717 ;;      Locals:         0       0       0       0       0       0       0       0       0
  2718 ;;      Temps:         14       0       0       0       0       0       0       0       0
  2719 ;;      Totals:        14       0       0       0       0       0       0       0       0
  2720 ;;Total ram usage:       14 bytes
  2721 ;; Hardware stack levels used:    1
  2722 ;; Hardware stack levels required when called:    9
  2723 ;; This function calls:
  2724 ;;		_USBDeviceTasks
  2725 ;; This function is called by:
  2726 ;;		Interrupt level 2
  2727 ;; This function uses a non-reentrant model
  2728 ;;
  2729                           
  2730                           	psect	intcode
  2731  000008                     __pintcode:
  2732                           	opt stack 0
  2733  000008                     _SYS_InterruptHigh:
  2734                           	opt stack 19
  2735                           
  2736                           ; BSR set to: 0
  2737                           ;incstack = 0
  2738  000008  CFFA F049          	movff	pclath,??_SYS_InterruptHigh
  2739  00000C  CFFB F04A          	movff	pclatu,??_SYS_InterruptHigh+1
  2740  000010  CFE9 F04B          	movff	fsr0l,??_SYS_InterruptHigh+2
  2741  000014  CFEA F04C          	movff	fsr0h,??_SYS_InterruptHigh+3
  2742  000018  CFE1 F04D          	movff	fsr1l,??_SYS_InterruptHigh+4
  2743  00001C  CFE2 F04E          	movff	fsr1h,??_SYS_InterruptHigh+5
  2744  000020  CFD9 F04F          	movff	fsr2l,??_SYS_InterruptHigh+6
  2745  000024  CFDA F050          	movff	fsr2h,??_SYS_InterruptHigh+7
  2746  000028  CFF3 F051          	movff	prodl,??_SYS_InterruptHigh+8
  2747  00002C  CFF4 F052          	movff	prodh,??_SYS_InterruptHigh+9
  2748  000030  CFF6 F053          	movff	tblptrl,??_SYS_InterruptHigh+10
  2749  000034  CFF7 F054          	movff	tblptrh,??_SYS_InterruptHigh+11
  2750  000038  CFF8 F055          	movff	tblptru,??_SYS_InterruptHigh+12
  2751  00003C  CFF5 F056          	movff	tablat,??_SYS_InterruptHigh+13
  2752                           
  2753                           ;system.c: 127: USBDeviceTasks();
  2754  000040  EC5C  F006         	call	_USBDeviceTasks	;wreg free
  2755  000044  C056  FFF5         	movff	??_SYS_InterruptHigh+13,tablat
  2756  000048  C055  FFF8         	movff	??_SYS_InterruptHigh+12,tblptru
  2757  00004C  C054  FFF7         	movff	??_SYS_InterruptHigh+11,tblptrh
  2758  000050  C053  FFF6         	movff	??_SYS_InterruptHigh+10,tblptrl
  2759  000054  C052  FFF4         	movff	??_SYS_InterruptHigh+9,prodh
  2760  000058  C051  FFF3         	movff	??_SYS_InterruptHigh+8,prodl
  2761  00005C  C050  FFDA         	movff	??_SYS_InterruptHigh+7,fsr2h
  2762  000060  C04F  FFD9         	movff	??_SYS_InterruptHigh+6,fsr2l
  2763  000064  C04E  FFE2         	movff	??_SYS_InterruptHigh+5,fsr1h
  2764  000068  C04D  FFE1         	movff	??_SYS_InterruptHigh+4,fsr1l
  2765  00006C  C04C  FFEA         	movff	??_SYS_InterruptHigh+3,fsr0h
  2766  000070  C04B  FFE9         	movff	??_SYS_InterruptHigh+2,fsr0l
  2767  000074  C04A  FFFB         	movff	??_SYS_InterruptHigh+1,pclatu
  2768  000078  C049  FFFA         	movff	??_SYS_InterruptHigh,pclath
  2769  00007C  0011               	retfie		f
  2770  00007E                     __end_of_SYS_InterruptHigh:
  2771                           	opt stack 0
  2772                           pclatu	equ	0xFFB
  2773                           pclath	equ	0xFFA
  2774                           tblptru	equ	0xFF8
  2775                           tblptrh	equ	0xFF7
  2776                           tblptrl	equ	0xFF6
  2777                           tablat	equ	0xFF5
  2778                           prodh	equ	0xFF4
  2779                           prodl	equ	0xFF3
  2780                           intcon	equ	0xFF2
  2781                           postinc0	equ	0xFEE
  2782                           fsr0h	equ	0xFEA
  2783                           fsr0l	equ	0xFE9
  2784                           wreg	equ	0xFE8
  2785                           fsr1h	equ	0xFE2
  2786                           fsr1l	equ	0xFE1
  2787                           indf2	equ	0xFDF
  2788                           postinc2	equ	0xFDE
  2789                           postdec2	equ	0xFDD
  2790                           plusw2	equ	0xFDB
  2791                           fsr2h	equ	0xFDA
  2792                           fsr2l	equ	0xFD9
  2793                           status	equ	0xFD8
  2794                           
  2795 ;; *************** function _USBDeviceTasks *****************
  2796 ;; Defined at:
  2797 ;;		line 495 in file "../../../../../../microchip/mla/v2015_08_10/framework/usb/src/usb_device.c"
  2798 ;; Parameters:    Size  Location     Type
  2799 ;;		None
  2800 ;; Auto vars:     Size  Location     Type
  2801 ;;  i               1   27[COMRAM] unsigned char 
  2802 ;; Return value:  Size  Location     Type
  2803 ;;		None               void
  2804 ;; Registers used:
  2805 ;;		wreg, fsr0l, fsr0h, fsr1l, fsr1h, fsr2l, fsr2h, status,2, status,0, tblptrl, tblptrh, tblptru, prodl, prodh, cstack
  2806 ;; Tracked objects:
  2807 ;;		On entry : 0/0
  2808 ;;		On exit  : 0/0
  2809 ;;		Unchanged: 0/0
  2810 ;; Data sizes:     COMRAM   BANK0   BANK1   BANK2   BANK3   BANK4   BANK5   BANK6   BANK7
  2811 ;;      Params:         0       0       0       0       0       0       0       0       0
  2812 ;;      Locals:         1       0       0       0       0       0       0       0       0
  2813 ;;      Temps:          0       0       0       0       0       0       0       0       0
  2814 ;;      Totals:         1       0       0       0       0       0       0       0       0
  2815 ;;Total ram usage:        1 bytes
  2816 ;; Hardware stack levels used:    1
  2817 ;; Hardware stack levels required when called:    8
  2818 ;; This function calls:
  2819 ;;		_USBCtrlEPAllowStatusStage
  2820 ;;		_USBCtrlEPService
  2821 ;;		_USBIncrement1msInternalTimers
  2822 ;;		_USBStallHandler
  2823 ;;		_USBSuspend
  2824 ;;		_USBWakeFromSuspend
  2825 ;;		_USER_USB_CALLBACK_EVENT_HANDLER
  2826 ;;		i2_USBDeviceInit
  2827 ;; This function is called by:
  2828 ;;		_SYS_InterruptHigh
  2829 ;; This function uses a non-reentrant model
  2830 ;;
  2831                           
  2832                           	psect	text15
  2833  000CB8                     __ptext15:
  2834                           	opt stack 0
  2835  000CB8                     _USBDeviceTasks:
  2836                           	opt stack 19
  2837                           
  2838                           ;usb_device.c: 497: uint8_t i;
  2839                           ;usb_device.c: 608: if(USBDeviceState == ATTACHED_STATE)
  2840                           
  2841                           ;incstack = 0
  2842  000CB8  041D               	decf	_USBDeviceState,w,c	;volatile
  2843  000CBA  B4D8               	btfsc	status,2,c
  2844                           
  2845                           ;usb_device.c: 609: {
  2846                           ;usb_device.c: 619: if(!UCONbits.SE0)
  2847  000CBC  BA60               	btfsc	3936,5,c	;volatile
  2848  000CBE  D007               	goto	i2l3556
  2849                           
  2850                           ;usb_device.c: 620: {
  2851                           ;usb_device.c: 626: {UIR = 0;};
  2852  000CC0  0E00               	movlw	0
  2853  000CC2  6E65               	movwf	3941,c	;volatile
  2854                           
  2855                           ;usb_device.c: 632: UIEbits.URSTIE = 1;
  2856  000CC4  8064               	bsf	3940,0,c	;volatile
  2857                           
  2858                           ;usb_device.c: 633: UIEbits.IDLEIE = 1;
  2859  000CC6  8864               	bsf	3940,4,c	;volatile
  2860                           
  2861                           ;usb_device.c: 634: USBDeviceState = POWERED_STATE;
  2862  000CC8  0E02               	movlw	2
  2863  000CCA  6E1D               	movwf	_USBDeviceState,c	;volatile
  2864  000CCC  D000               	goto	i2l3556
  2865  000CCE                     i2l3556:
  2866                           
  2867                           ;usb_device.c: 635: }
  2868                           ;usb_device.c: 636: }
  2869                           ;usb_device.c: 652: if(UIRbits.ACTVIF && UIEbits.ACTVIE)
  2870  000CCE  B465               	btfsc	3941,2,c	;volatile
  2871  000CD0  A464               	btfss	3940,2,c	;volatile
  2872  000CD2  D004               	goto	i2l3564
  2873                           
  2874                           ;usb_device.c: 653: {
  2875                           ;usb_device.c: 654: (UIR &= 0xFB);
  2876  000CD4  9465               	bcf	3941,2,c	;volatile
  2877                           
  2878                           ;usb_device.c: 658: USBWakeFromSuspend();
  2879  000CD6  EC56  F010         	call	_USBWakeFromSuspend	;wreg free
  2880  000CDA  D000               	goto	i2l3564
  2881  000CDC                     i2l3564:
  2882                           
  2883                           ;usb_device.c: 660: }
  2884                           ;usb_device.c: 665: if(UCONbits.SUSPND==1)
  2885  000CDC  A260               	btfss	3936,1,c	;volatile
  2886  000CDE  D002               	goto	i2l420
  2887                           
  2888                           ;usb_device.c: 666: {
  2889                           ;usb_device.c: 667: PIR3bits.USBIF = 0;;
  2890  000CE0  94A4               	bcf	4004,2,c	;volatile
  2891                           
  2892                           ;usb_device.c: 668: return;
  2893  000CE2  0012               	return	
  2894  000CE4                     i2l420:
  2895                           
  2896                           ;usb_device.c: 669: }
  2897                           ;usb_device.c: 681: if(UIRbits.URSTIF && UIEbits.URSTIE)
  2898  000CE4  B065               	btfsc	3941,0,c	;volatile
  2899  000CE6  A064               	btfss	3940,0,c	;volatile
  2900  000CE8  D007               	goto	i2l3578
  2901                           
  2902                           ;usb_device.c: 682: {
  2903                           ;usb_device.c: 683: USBDeviceInit();
  2904  000CEA  EC00  F007         	call	i2_USBDeviceInit	;wreg free
  2905                           
  2906                           ;usb_device.c: 687: {PIE3bits.USBIE = 1;};
  2907  000CEE  84A3               	bsf	4003,2,c	;volatile
  2908                           
  2909                           ;usb_device.c: 689: USBDeviceState = DEFAULT_STATE;
  2910  000CF0  0E04               	movlw	4
  2911  000CF2  6E1D               	movwf	_USBDeviceState,c	;volatile
  2912                           
  2913                           ;usb_device.c: 699: (UIR &= 0xFE);
  2914  000CF4  9065               	bcf	3941,0,c	;volatile
  2915  000CF6  D000               	goto	i2l3578
  2916  000CF8                     i2l3578:
  2917                           
  2918                           ;usb_device.c: 700: }
  2919                           ;usb_device.c: 705: if(UIRbits.IDLEIF && UIEbits.IDLEIE)
  2920  000CF8  B865               	btfsc	3941,4,c	;volatile
  2921  000CFA  A864               	btfss	3940,4,c	;volatile
  2922  000CFC  D003               	goto	i2l3584
  2923                           
  2924                           ;usb_device.c: 706: {
  2925                           ;usb_device.c: 712: USBSuspend();
  2926  000CFE  ECBD  F010         	call	_USBSuspend	;wreg free
  2927  000D02  D000               	goto	i2l3584
  2928  000D04                     i2l3584:
  2929                           
  2930                           ;usb_device.c: 714: }
  2931                           ;usb_device.c: 726: if(UIRbits.SOFIF)
  2932  000D04  AC65               	btfss	3941,6,c	;volatile
  2933  000D06  D01F               	goto	i2l3602
  2934                           
  2935                           ;usb_device.c: 727: {
  2936                           ;usb_device.c: 729: if(UIEbits.SOFIE)
  2937  000D08  AC64               	btfss	3940,6,c	;volatile
  2938  000D0A  D00F               	goto	i2l3590
  2939                           
  2940                           ;usb_device.c: 730: {
  2941                           ;usb_device.c: 731: USER_USB_CALLBACK_EVENT_HANDLER(EVENT_SOF,0,1);
  2942  000D0C  0E00               	movlw	0
  2943  000D0E  6E3A               	movwf	USER_USB_CALLBACK_EVENT_HANDLER@event+1,c
  2944  000D10  0E73               	movlw	115
  2945  000D12  6E39               	movwf	USER_USB_CALLBACK_EVENT_HANDLER@event,c
  2946  000D14  0E00               	movlw	0
  2947  000D16  6E3B               	movwf	USER_USB_CALLBACK_EVENT_HANDLER@pdata,c
  2948  000D18  0E00               	movlw	0
  2949  000D1A  6E3C               	movwf	USER_USB_CALLBACK_EVENT_HANDLER@pdata+1,c
  2950  000D1C  0E00               	movlw	0
  2951  000D1E  6E3E               	movwf	USER_USB_CALLBACK_EVENT_HANDLER@size+1,c
  2952  000D20  0E01               	movlw	1
  2953  000D22  6E3D               	movwf	USER_USB_CALLBACK_EVENT_HANDLER@size,c
  2954  000D24  ECEA  F00E         	call	_USER_USB_CALLBACK_EVENT_HANDLER	;wreg free
  2955  000D28  D000               	goto	i2l3590
  2956  000D2A                     i2l3590:
  2957                           
  2958                           ;usb_device.c: 732: }
  2959                           ;usb_device.c: 733: (UIR &= 0xBF);
  2960  000D2A  9C65               	bcf	3941,6,c	;volatile
  2961                           
  2962                           ;usb_device.c: 736: USBIncrement1msInternalTimers();
  2963  000D2C  EC00  F011         	call	_USBIncrement1msInternalTimers	;wreg free
  2964                           
  2965                           ;usb_device.c: 753: if(USBStatusStageTimeoutCounter != 0u)
  2966  000D30  5020               	movf	_USBStatusStageTimeoutCounter,w,c	;volatile
  2967  000D32  B4D8               	btfsc	status,2,c
  2968  000D34  D002               	goto	i2l3598
  2969                           
  2970                           ;usb_device.c: 754: {
  2971                           ;usb_device.c: 755: USBStatusStageTimeoutCounter--;
  2972  000D36  0620               	decf	_USBStatusStageTimeoutCounter,f,c	;volatile
  2973  000D38  D000               	goto	i2l3598
  2974  000D3A                     i2l3598:
  2975                           
  2976                           ;usb_device.c: 756: }
  2977                           ;usb_device.c: 762: if(USBStatusStageTimeoutCounter == 0)
  2978  000D3A  5020               	movf	_USBStatusStageTimeoutCounter,w,c	;volatile
  2979  000D3C  A4D8               	btfss	status,2,c
  2980  000D3E  D003               	goto	i2l3602
  2981                           
  2982                           ;usb_device.c: 763: {
  2983                           ;usb_device.c: 764: USBCtrlEPAllowStatusStage();
  2984  000D40  EC08  F00C         	call	_USBCtrlEPAllowStatusStage	;wreg free
  2985  000D44  D000               	goto	i2l3602
  2986  000D46                     i2l3602:
  2987                           
  2988                           ;usb_device.c: 765: }
  2989                           ;usb_device.c: 767: }
  2990                           ;usb_device.c: 769: if(UIRbits.STALLIF && UIEbits.STALLIE)
  2991  000D46  BA65               	btfsc	3941,5,c	;volatile
  2992  000D48  AA64               	btfss	3940,5,c	;volatile
  2993  000D4A  D003               	goto	i2l3608
  2994                           
  2995                           ;usb_device.c: 770: {
  2996                           ;usb_device.c: 771: USBStallHandler();
  2997  000D4C  ECD8  F00F         	call	_USBStallHandler	;wreg free
  2998  000D50  D000               	goto	i2l3608
  2999  000D52                     i2l3608:
  3000                           
  3001                           ;usb_device.c: 772: }
  3002                           ;usb_device.c: 774: if(UIRbits.UERRIF && UIEbits.UERRIE)
  3003  000D52  B265               	btfsc	3941,1,c	;volatile
  3004  000D54  A264               	btfss	3940,1,c	;volatile
  3005  000D56  D010               	goto	i2l3616
  3006                           
  3007                           ;usb_device.c: 775: {
  3008                           ;usb_device.c: 776: USER_USB_CALLBACK_EVENT_HANDLER(EVENT_BUS_ERROR,0,1);
  3009  000D58  0E7F               	movlw	127
  3010  000D5A  6E3A               	movwf	USER_USB_CALLBACK_EVENT_HANDLER@event+1,c
  3011  000D5C  6839               	setf	USER_USB_CALLBACK_EVENT_HANDLER@event,c
  3012  000D5E  0E00               	movlw	0
  3013  000D60  6E3B               	movwf	USER_USB_CALLBACK_EVENT_HANDLER@pdata,c
  3014  000D62  0E00               	movlw	0
  3015  000D64  6E3C               	movwf	USER_USB_CALLBACK_EVENT_HANDLER@pdata+1,c
  3016  000D66  0E00               	movlw	0
  3017  000D68  6E3E               	movwf	USER_USB_CALLBACK_EVENT_HANDLER@size+1,c
  3018  000D6A  0E01               	movlw	1
  3019  000D6C  6E3D               	movwf	USER_USB_CALLBACK_EVENT_HANDLER@size,c
  3020  000D6E  ECEA  F00E         	call	_USER_USB_CALLBACK_EVENT_HANDLER	;wreg free
  3021                           
  3022                           ;usb_device.c: 777: {UEIR = 0;};
  3023  000D72  0E00               	movlw	0
  3024  000D74  6E67               	movwf	3943,c	;volatile
  3025  000D76  D000               	goto	i2l3616
  3026  000D78                     i2l3616:
  3027                           
  3028                           ;usb_device.c: 785: }
  3029                           ;usb_device.c: 792: if(USBDeviceState < DEFAULT_STATE)
  3030  000D78  0E04               	movlw	4
  3031  000D7A  601D               	cpfslt	_USBDeviceState,c	;volatile
  3032  000D7C  D002               	goto	i2l430
  3033                           
  3034                           ;usb_device.c: 793: {
  3035                           ;usb_device.c: 794: PIR3bits.USBIF = 0;;
  3036  000D7E  94A4               	bcf	4004,2,c	;volatile
  3037                           
  3038                           ;usb_device.c: 795: return;
  3039  000D80  0012               	return	
  3040  000D82                     i2l430:
  3041                           
  3042                           ;usb_device.c: 796: }
  3043                           ;usb_device.c: 801: if(UIEbits.TRNIE)
  3044  000D82  A664               	btfss	3940,3,c	;volatile
  3045  000D84  D03B               	goto	i2l431
  3046                           
  3047                           ;usb_device.c: 802: {
  3048                           ;usb_device.c: 803: for(i = 0; i < 4u; i++)
  3049  000D86  0E00               	movlw	0
  3050  000D88  6E48               	movwf	USBDeviceTasks@i,c
  3051  000D8A                     i2l3622:
  3052  000D8A  0E03               	movlw	3
  3053  000D8C  6448               	cpfsgt	USBDeviceTasks@i,c
  3054  000D8E  D001               	goto	i2l432
  3055  000D90  D035               	goto	i2l431
  3056  000D92                     i2l432:
  3057                           
  3058                           ;usb_device.c: 804: {
  3059                           ;usb_device.c: 805: if(UIRbits.TRNIF)
  3060  000D92  A665               	btfss	3941,3,c	;volatile
  3061  000D94  D033               	goto	i2l431
  3062                           
  3063                           ;usb_device.c: 806: {
  3064                           ;usb_device.c: 808: USTATcopy.Val = USTAT;
  3065  000D96  CF61 F02C          	movff	3937,_USTATcopy	;volatile
  3066                           
  3067                           ;usb_device.c: 809: endpoint_number = USTATcopy.endpoint_number;
  3068  000D9A  302C               	rrcf	_USTATcopy,w,c	;volatile
  3069  000D9C  32E8               	rrcf	wreg,f,c
  3070  000D9E  32E8               	rrcf	wreg,f,c
  3071  000DA0  0B0F               	andlw	15
  3072  000DA2  6E22               	movwf	_endpoint_number,c	;volatile
  3073                           
  3074                           ;usb_device.c: 811: (UIR &= 0xF7);
  3075  000DA4  9665               	bcf	3941,3,c	;volatile
  3076                           
  3077                           ;usb_device.c: 816: if(USTATcopy.direction == 0)
  3078  000DA6  B42C               	btfsc	_USTATcopy,2,c	;volatile
  3079  000DA8  D007               	goto	i2l3636
  3080                           
  3081                           ;usb_device.c: 817: {
  3082                           ;usb_device.c: 818: ep_data_out[endpoint_number].bits.ping_pong_state ^= 1;
  3083  000DAA  5022               	movf	_endpoint_number,w,c	;volatile
  3084  000DAC  0D01               	mullw	1
  3085  000DAE  0E11               	movlw	low _ep_data_out
  3086  000DB0  24F3               	addwf	prodl,w,c
  3087  000DB2  6ED9               	movwf	fsr2l,c
  3088  000DB4  0E00               	movlw	high _ep_data_out
  3089  000DB6  D006               	goto	L5
  3090  000DB8                     i2l3636:
  3091                           
  3092                           ;usb_device.c: 820: else
  3093                           ;usb_device.c: 821: {
  3094                           ;usb_device.c: 822: ep_data_in[endpoint_number].bits.ping_pong_state ^= 1;
  3095  000DB8  5022               	movf	_endpoint_number,w,c	;volatile
  3096  000DBA  0D01               	mullw	1
  3097  000DBC  0E0F               	movlw	low _ep_data_in
  3098  000DBE  24F3               	addwf	prodl,w,c
  3099  000DC0  6ED9               	movwf	fsr2l,c
  3100  000DC2  0E00               	movlw	high _ep_data_in
  3101  000DC4                     L5:
  3102  000DC4  20F4               	addwfc	prodh,w,c
  3103  000DC6  6EDA               	movwf	fsr2h,c
  3104  000DC8  70DF               	btg	indf2,0,c
  3105  000DCA  D000               	goto	i2l3638
  3106  000DCC                     i2l3638:
  3107                           
  3108                           ;usb_device.c: 823: }
  3109                           ;usb_device.c: 828: if(endpoint_number == 0)
  3110  000DCC  5022               	movf	_endpoint_number,w,c	;volatile
  3111  000DCE  A4D8               	btfss	status,2,c
  3112  000DD0  D003               	goto	i2l3642
  3113                           
  3114                           ;usb_device.c: 829: {
  3115                           ;usb_device.c: 830: USBCtrlEPService();
  3116  000DD2  EC1D  F00E         	call	_USBCtrlEPService	;wreg free
  3117                           
  3118                           ;usb_device.c: 831: }
  3119  000DD6  D010               	goto	i2l3644
  3120  000DD8                     i2l3642:
  3121                           
  3122                           ;usb_device.c: 832: else
  3123                           ;usb_device.c: 833: {
  3124                           ;usb_device.c: 834: USER_USB_CALLBACK_EVENT_HANDLER(EVENT_TRANSFER,(uint8_t*)&USTATcopy.
      +                          Val,0);
  3125  000DD8  0E00               	movlw	0
  3126  000DDA  6E3A               	movwf	USER_USB_CALLBACK_EVENT_HANDLER@event+1,c
  3127  000DDC  0E72               	movlw	114
  3128  000DDE  6E39               	movwf	USER_USB_CALLBACK_EVENT_HANDLER@event,c
  3129  000DE0  0E2C               	movlw	low _USTATcopy
  3130  000DE2  6E3B               	movwf	USER_USB_CALLBACK_EVENT_HANDLER@pdata,c
  3131  000DE4  0E00               	movlw	high _USTATcopy
  3132  000DE6  6E3C               	movwf	USER_USB_CALLBACK_EVENT_HANDLER@pdata+1,c
  3133  000DE8  0E00               	movlw	0
  3134  000DEA  6E3E               	movwf	USER_USB_CALLBACK_EVENT_HANDLER@size+1,c
  3135  000DEC  0E00               	movlw	0
  3136  000DEE  6E3D               	movwf	USER_USB_CALLBACK_EVENT_HANDLER@size,c
  3137  000DF0  ECEA  F00E         	call	_USER_USB_CALLBACK_EVENT_HANDLER	;wreg free
  3138                           
  3139                           ;usb_device.c: 835: }
  3140                           ;usb_device.c: 836: }
  3141  000DF4  D001               	goto	i2l3644
  3142                           
  3143                           ;usb_device.c: 837: else
  3144                           ;usb_device.c: 838: {
  3145                           ;usb_device.c: 839: break;
  3146  000DF6  D002               	goto	i2l431
  3147  000DF8                     i2l3644:
  3148  000DF8  2A48               	incf	USBDeviceTasks@i,f,c
  3149  000DFA  D7C7               	goto	i2l3622
  3150  000DFC                     i2l431:
  3151                           
  3152                           ;usb_device.c: 840: }
  3153                           ;usb_device.c: 841: }
  3154                           ;usb_device.c: 842: }
  3155                           ;usb_device.c: 844: PIR3bits.USBIF = 0;;
  3156  000DFC  94A4               	bcf	4004,2,c	;volatile
  3157  000DFE  0012               	return		;funcret
  3158  000E00                     __end_of_USBDeviceTasks:
  3159                           	opt stack 0
  3160                           pclatu	equ	0xFFB
  3161                           pclath	equ	0xFFA
  3162                           tblptru	equ	0xFF8
  3163                           tblptrh	equ	0xFF7
  3164                           tblptrl	equ	0xFF6
  3165                           tablat	equ	0xFF5
  3166                           prodh	equ	0xFF4
  3167                           prodl	equ	0xFF3
  3168                           intcon	equ	0xFF2
  3169                           postinc0	equ	0xFEE
  3170                           fsr0h	equ	0xFEA
  3171                           fsr0l	equ	0xFE9
  3172                           wreg	equ	0xFE8
  3173                           fsr1h	equ	0xFE2
  3174                           fsr1l	equ	0xFE1
  3175                           indf2	equ	0xFDF
  3176                           postinc2	equ	0xFDE
  3177                           postdec2	equ	0xFDD
  3178                           plusw2	equ	0xFDB
  3179                           fsr2h	equ	0xFDA
  3180                           fsr2l	equ	0xFD9
  3181                           status	equ	0xFD8
  3182                           
  3183 ;; *************** function i2_USBDeviceInit *****************
  3184 ;; Defined at:
  3185 ;;		line 295 in file "../../../../../../microchip/mla/v2015_08_10/framework/usb/src/usb_device.c"
  3186 ;; Parameters:    Size  Location     Type
  3187 ;;		None
  3188 ;; Auto vars:     Size  Location     Type
  3189 ;;  USBDeviceIni    1    8[COMRAM] unsigned char 
  3190 ;; Return value:  Size  Location     Type
  3191 ;;		None               void
  3192 ;; Registers used:
  3193 ;;		wreg, fsr2l, fsr2h, status,2, status,0, prodl, prodh, cstack
  3194 ;; Tracked objects:
  3195 ;;		On entry : 0/0
  3196 ;;		On exit  : 0/0
  3197 ;;		Unchanged: 0/0
  3198 ;; Data sizes:     COMRAM   BANK0   BANK1   BANK2   BANK3   BANK4   BANK5   BANK6   BANK7
  3199 ;;      Params:         0       0       0       0       0       0       0       0       0
  3200 ;;      Locals:         1       0       0       0       0       0       0       0       0
  3201 ;;      Temps:          0       0       0       0       0       0       0       0       0
  3202 ;;      Totals:         1       0       0       0       0       0       0       0       0
  3203 ;;Total ram usage:        1 bytes
  3204 ;; Hardware stack levels used:    1
  3205 ;; Hardware stack levels required when called:    1
  3206 ;; This function calls:
  3207 ;;		i2_memset
  3208 ;; This function is called by:
  3209 ;;		_USBDeviceTasks
  3210 ;; This function uses a non-reentrant model
  3211 ;;
  3212                           
  3213                           	psect	text16
  3214  000E00                     __ptext16:
  3215                           	opt stack 0
  3216  000E00                     i2_USBDeviceInit:
  3217                           	opt stack 25
  3218                           
  3219                           ;usb_device.c: 297: uint8_t i;
  3220                           ;usb_device.c: 299: {PIE3bits.USBIE = 0;};
  3221                           
  3222                           ;incstack = 0
  3223  000E00  94A3               	bcf	4003,2,c	;volatile
  3224                           
  3225                           ;usb_device.c: 303: ;
  3226                           ;usb_device.c: 306: {UEIR = 0;};
  3227  000E02  0E00               	movlw	0
  3228  000E04  6E67               	movwf	3943,c	;volatile
  3229                           
  3230                           ;usb_device.c: 309: {UIR = 0;};
  3231  000E06  0E00               	movlw	0
  3232  000E08  6E65               	movwf	3941,c	;volatile
  3233                           
  3234                           ;usb_device.c: 312: UEP0 = 0;
  3235  000E0A  0E00               	movlw	0
  3236  000E0C  6E6A               	movwf	3946,c	;volatile
  3237                           
  3238                           ;usb_device.c: 314: memset((void*)&UEP1,0x00,(1));;
  3239  000E0E  0E6B               	movlw	107
  3240  000E10  6E2D               	movwf	i2memset@p1,c
  3241  000E12  0E0F               	movlw	15
  3242  000E14  6E2E               	movwf	i2memset@p1+1,c
  3243  000E16  0E00               	movlw	0
  3244  000E18  6E30               	movwf	i2memset@c+1,c
  3245  000E1A  0E00               	movlw	0
  3246  000E1C  6E2F               	movwf	i2memset@c,c
  3247  000E1E  0E00               	movlw	0
  3248  000E20  6E32               	movwf	i2memset@n+1,c
  3249  000E22  0E01               	movlw	1
  3250  000E24  6E31               	movwf	i2memset@n,c
  3251  000E26  ECD4  F010         	call	i2_memset	;wreg free
  3252                           
  3253                           ;usb_device.c: 316: { UCFG = 0x10 | 0x00 | 0x04 | 0x02; UEIE = 0x9F; UIE = 0x39 | 0x40 |
      +                           0x02; };
  3254  000E2A  0E16               	movlw	22
  3255  000E2C  6E62               	movwf	3938,c	;volatile
  3256  000E2E  0E9F               	movlw	159
  3257  000E30  6E66               	movwf	3942,c	;volatile
  3258  000E32  0E7B               	movlw	123
  3259  000E34  6E64               	movwf	3940,c	;volatile
  3260                           
  3261                           ;usb_device.c: 319: ;
  3262                           ;usb_device.c: 322: ;
  3263                           ;usb_device.c: 325: for(i = 0; i < (sizeof(BDT)/sizeof(BDT_ENTRY)); i++)
  3264  000E36  0E00               	movlw	0
  3265  000E38  6E35               	movwf	i2USBDeviceInit@i,c
  3266  000E3A  D00E               	goto	i2l3496
  3267  000E3C  D010               	goto	i2l409
  3268  000E3E                     i2l3492:
  3269                           
  3270                           ;usb_device.c: 326: {
  3271                           ;usb_device.c: 327: BDT[i].Val = 0x00;
  3272  000E3E  5035               	movf	i2USBDeviceInit@i,w,c
  3273  000E40  0D04               	mullw	4
  3274  000E42  0E00               	movlw	0
  3275  000E44  24F3               	addwf	prodl,w,c
  3276  000E46  6ED9               	movwf	fsr2l,c
  3277  000E48  0E04               	movlw	4
  3278  000E4A  20F4               	addwfc	prodh,w,c
  3279  000E4C  6EDA               	movwf	fsr2h,c
  3280  000E4E  6ADE               	clrf	postinc2,c
  3281  000E50  6ADE               	clrf	postinc2,c
  3282  000E52  6ADE               	clrf	postinc2,c
  3283  000E54  6ADD               	clrf	postdec2,c
  3284  000E56  2A35               	incf	i2USBDeviceInit@i,f,c
  3285  000E58                     i2l3496:
  3286  000E58  0E07               	movlw	7
  3287  000E5A  6435               	cpfsgt	i2USBDeviceInit@i,c
  3288  000E5C  D7F0               	goto	i2l3492
  3289  000E5E                     i2l409:
  3290                           
  3291                           ;usb_device.c: 328: }
  3292                           ;usb_device.c: 331: UCONbits.PPBRST = 1;
  3293  000E5E  8C60               	bsf	3936,6,c	;volatile
  3294                           
  3295                           ;usb_device.c: 334: UADDR = 0x00;
  3296  000E60  0E00               	movlw	0
  3297  000E62  6E63               	movwf	3939,c	;volatile
  3298                           
  3299                           ;usb_device.c: 337: UCONbits.PKTDIS = 0;
  3300  000E64  9860               	bcf	3936,4,c	;volatile
  3301                           
  3302                           ;usb_device.c: 340: UCONbits.PPBRST = 0;
  3303  000E66  9C60               	bcf	3936,6,c	;volatile
  3304  000E68  D000               	goto	i2l3504
  3305  000E6A                     i2l3504:
  3306                           
  3307                           ;usb_device.c: 344: {
  3308                           ;usb_device.c: 345: (UIR &= 0xF7);
  3309  000E6A  9665               	bcf	3941,3,c	;volatile
  3310                           
  3311                           ;usb_device.c: 347: inPipes[0].info.Val = 0;
  3312  000E6C  0E00               	movlw	0
  3313  000E6E  6E27               	movwf	_inPipes+3,c	;volatile
  3314                           
  3315                           ;usb_device.c: 348: outPipes[0].info.Val = 0;
  3316  000E70  0E00               	movlw	0
  3317  000E72  6E04               	movwf	_outPipes+3,c	;volatile
  3318                           
  3319                           ;usb_device.c: 349: outPipes[0].wCount.Val = 0;
  3320  000E74  0E00               	movlw	0
  3321  000E76  6E06               	movwf	_outPipes+5,c	;volatile
  3322  000E78  0E00               	movlw	0
  3323  000E7A  6E05               	movwf	_outPipes+4,c	;volatile
  3324                           
  3325                           ;usb_device.c: 350: }while(UIRbits.TRNIF == 1);
  3326  000E7C  B665               	btfsc	3941,3,c	;volatile
  3327  000E7E  D7F5               	goto	i2l3504
  3328                           
  3329                           ;usb_device.c: 354: USBStatusStageEnabledFlag1 = 1;
  3330  000E80  0E01               	movlw	1
  3331  000E82  6E1E               	movwf	_USBStatusStageEnabledFlag1,c	;volatile
  3332                           
  3333                           ;usb_device.c: 355: USBStatusStageEnabledFlag2 = 1;
  3334  000E84  0E01               	movlw	1
  3335  000E86  6E1F               	movwf	_USBStatusStageEnabledFlag2,c	;volatile
  3336                           
  3337                           ;usb_device.c: 357: USBDeferINDataStagePackets = 0;
  3338  000E88  0E00               	movlw	0
  3339  000E8A  6E1A               	movwf	_USBDeferINDataStagePackets,c	;volatile
  3340                           
  3341                           ;usb_device.c: 358: USBDeferOUTDataStagePackets = 0;
  3342  000E8C  0E00               	movlw	0
  3343  000E8E  6E1B               	movwf	_USBDeferOUTDataStagePackets,c	;volatile
  3344                           
  3345                           ;usb_device.c: 359: USBBusIsSuspended = 0;
  3346  000E90  0E00               	movlw	0
  3347  000E92  6E19               	movwf	_USBBusIsSuspended,c	;volatile
  3348                           
  3349                           ;usb_device.c: 363: for(i = 0; i < (uint8_t)(1+1u); i++)
  3350  000E94  0E00               	movlw	0
  3351  000E96  6E35               	movwf	i2USBDeviceInit@i,c
  3352  000E98                     i2l3516:
  3353  000E98  0E01               	movlw	1
  3354  000E9A  6435               	cpfsgt	i2USBDeviceInit@i,c
  3355  000E9C  D001               	goto	i2l3520
  3356  000E9E  D02E               	goto	i2l3526
  3357  000EA0                     i2l3520:
  3358                           
  3359                           ;usb_device.c: 364: {
  3360                           ;usb_device.c: 365: pBDTEntryIn[i] = 0u;
  3361  000EA0  5035               	movf	i2USBDeviceInit@i,w,c
  3362  000EA2  0D02               	mullw	2
  3363  000EA4  0E09               	movlw	low _pBDTEntryIn
  3364  000EA6  24F3               	addwf	prodl,w,c
  3365  000EA8  6ED9               	movwf	fsr2l,c
  3366  000EAA  0E00               	movlw	high _pBDTEntryIn
  3367  000EAC  20F4               	addwfc	prodh,w,c
  3368  000EAE  6EDA               	movwf	fsr2h,c
  3369  000EB0  0E00               	movlw	0
  3370  000EB2  6EDE               	movwf	postinc2,c
  3371  000EB4  0E00               	movlw	0
  3372  000EB6  6EDD               	movwf	postdec2,c
  3373                           
  3374                           ;usb_device.c: 366: pBDTEntryOut[i] = 0u;
  3375  000EB8  5035               	movf	i2USBDeviceInit@i,w,c
  3376  000EBA  0D02               	mullw	2
  3377  000EBC  0E64               	movlw	low _pBDTEntryOut
  3378  000EBE  24F3               	addwf	prodl,w,c
  3379  000EC0  6ED9               	movwf	fsr2l,c
  3380  000EC2  0E00               	movlw	high _pBDTEntryOut
  3381  000EC4  20F4               	addwfc	prodh,w,c
  3382  000EC6  6EDA               	movwf	fsr2h,c
  3383  000EC8  0E00               	movlw	0
  3384  000ECA  6EDE               	movwf	postinc2,c
  3385  000ECC  0E00               	movlw	0
  3386  000ECE  6EDD               	movwf	postdec2,c
  3387                           
  3388                           ;usb_device.c: 367: ep_data_in[i].Val = 0u;
  3389  000ED0  5035               	movf	i2USBDeviceInit@i,w,c
  3390  000ED2  0D01               	mullw	1
  3391  000ED4  0E0F               	movlw	low _ep_data_in
  3392  000ED6  24F3               	addwf	prodl,w,c
  3393  000ED8  6ED9               	movwf	fsr2l,c
  3394  000EDA  0E00               	movlw	high _ep_data_in
  3395  000EDC  20F4               	addwfc	prodh,w,c
  3396  000EDE  6EDA               	movwf	fsr2h,c
  3397  000EE0  0E00               	movlw	0
  3398  000EE2  6EDF               	movwf	indf2,c
  3399                           
  3400                           ;usb_device.c: 368: ep_data_out[i].Val = 0u;
  3401  000EE4  5035               	movf	i2USBDeviceInit@i,w,c
  3402  000EE6  0D01               	mullw	1
  3403  000EE8  0E11               	movlw	low _ep_data_out
  3404  000EEA  24F3               	addwf	prodl,w,c
  3405  000EEC  6ED9               	movwf	fsr2l,c
  3406  000EEE  0E00               	movlw	high _ep_data_out
  3407  000EF0  20F4               	addwfc	prodh,w,c
  3408  000EF2  6EDA               	movwf	fsr2h,c
  3409  000EF4  0E00               	movlw	0
  3410  000EF6  6EDF               	movwf	indf2,c
  3411  000EF8  2A35               	incf	i2USBDeviceInit@i,f,c
  3412  000EFA  D7CE               	goto	i2l3516
  3413  000EFC                     i2l3526:
  3414                           
  3415                           ;usb_device.c: 369: }
  3416                           ;usb_device.c: 372: pBDTEntryIn[0] = (volatile BDT_ENTRY*)&BDT[2];
  3417  000EFC  0E08               	movlw	8
  3418  000EFE  6E09               	movwf	_pBDTEntryIn,c
  3419  000F00  0E04               	movlw	4
  3420  000F02  6E0A               	movwf	_pBDTEntryIn+1,c
  3421                           
  3422                           ;usb_device.c: 374: UEP0 = 0x06|0x10;
  3423  000F04  0E16               	movlw	22
  3424  000F06  6E6A               	movwf	3946,c	;volatile
  3425                           
  3426                           ;usb_device.c: 376: BDT[0].ADR = ((uint16_t)(&SetupPkt));
  3427  000F08  0E04               	movlw	4
  3428  000F0A  0104               	movlb	4	; () banked
  3429  000F0C  6F03               	movwf	3,b	;volatile
  3430  000F0E  0E20               	movlw	32
  3431  000F10  6F02               	movwf	2,b	;volatile
  3432                           
  3433                           ; BSR set to: 4
  3434                           ;usb_device.c: 377: BDT[0].CNT = 8;
  3435  000F12  0E08               	movlw	8
  3436  000F14  0104               	movlb	4	; () banked
  3437  000F16  6F01               	movwf	1,b	;volatile
  3438                           
  3439                           ; BSR set to: 4
  3440                           ;usb_device.c: 378: BDT[0].STAT.Val = 0x00|0x04;
  3441  000F18  0E04               	movlw	4
  3442  000F1A  0104               	movlb	4	; () banked
  3443  000F1C  6F00               	movwf	0,b	;volatile
  3444                           
  3445                           ; BSR set to: 4
  3446                           ;usb_device.c: 379: BDT[0].STAT.Val |= 0x80;
  3447  000F1E  0104               	movlb	4	; () banked
  3448  000F20  8F00               	bsf	0,7,b	;volatile
  3449                           
  3450                           ; BSR set to: 4
  3451                           ;usb_device.c: 382: USBActiveConfiguration = 0;
  3452  000F22  0E00               	movlw	0
  3453  000F24  6E2A               	movwf	_USBActiveConfiguration,c	;volatile
  3454                           
  3455                           ; BSR set to: 4
  3456                           ;usb_device.c: 384: USB1msTickCount = 0;
  3457  000F26  0E00               	movlw	0
  3458  000F28  0100               	movlb	0	; () banked
  3459  000F2A  6F60               	movwf	_USB1msTickCount& (0+255),b	;volatile
  3460  000F2C  0E00               	movlw	0
  3461  000F2E  6F61               	movwf	(_USB1msTickCount+1)& (0+255),b	;volatile
  3462  000F30  0E00               	movlw	0
  3463  000F32  6F62               	movwf	(_USB1msTickCount+2)& (0+255),b	;volatile
  3464  000F34  0E00               	movlw	0
  3465  000F36  6F63               	movwf	(_USB1msTickCount+3)& (0+255),b	;volatile
  3466                           
  3467                           ; BSR set to: 0
  3468                           ;usb_device.c: 385: USBTicksSinceSuspendEnd = 0;
  3469  000F38  0E00               	movlw	0
  3470  000F3A  0100               	movlb	0	; () banked
  3471  000F3C  6F6E               	movwf	_USBTicksSinceSuspendEnd& (0+255),b	;volatile
  3472                           
  3473                           ; BSR set to: 0
  3474                           ;usb_device.c: 388: USBDeviceState = DETACHED_STATE;
  3475  000F3E  0E00               	movlw	0
  3476  000F40  6E1D               	movwf	_USBDeviceState,c	;volatile
  3477                           
  3478                           ; BSR set to: 0
  3479  000F42  0012               	return		;funcret
  3480  000F44                     __end_ofi2_USBDeviceInit:
  3481                           	opt stack 0
  3482                           pclatu	equ	0xFFB
  3483                           pclath	equ	0xFFA
  3484                           tblptru	equ	0xFF8
  3485                           tblptrh	equ	0xFF7
  3486                           tblptrl	equ	0xFF6
  3487                           tablat	equ	0xFF5
  3488                           prodh	equ	0xFF4
  3489                           prodl	equ	0xFF3
  3490                           intcon	equ	0xFF2
  3491                           postinc0	equ	0xFEE
  3492                           fsr0h	equ	0xFEA
  3493                           fsr0l	equ	0xFE9
  3494                           wreg	equ	0xFE8
  3495                           fsr1h	equ	0xFE2
  3496                           fsr1l	equ	0xFE1
  3497                           indf2	equ	0xFDF
  3498                           postinc2	equ	0xFDE
  3499                           postdec2	equ	0xFDD
  3500                           plusw2	equ	0xFDB
  3501                           fsr2h	equ	0xFDA
  3502                           fsr2l	equ	0xFD9
  3503                           status	equ	0xFD8
  3504                           
  3505 ;; *************** function _USBWakeFromSuspend *****************
  3506 ;; Defined at:
  3507 ;;		line 2321 in file "../../../../../../microchip/mla/v2015_08_10/framework/usb/src/usb_device.c"
  3508 ;; Parameters:    Size  Location     Type
  3509 ;;		None
  3510 ;; Auto vars:     Size  Location     Type
  3511 ;;		None
  3512 ;; Return value:  Size  Location     Type
  3513 ;;		None               void
  3514 ;; Registers used:
  3515 ;;		wreg, fsr2l, fsr2h, status,2, status,0, prodl, prodh, cstack
  3516 ;; Tracked objects:
  3517 ;;		On entry : 0/0
  3518 ;;		On exit  : 0/0
  3519 ;;		Unchanged: 0/0
  3520 ;; Data sizes:     COMRAM   BANK0   BANK1   BANK2   BANK3   BANK4   BANK5   BANK6   BANK7
  3521 ;;      Params:         0       0       0       0       0       0       0       0       0
  3522 ;;      Locals:         0       0       0       0       0       0       0       0       0
  3523 ;;      Temps:          0       0       0       0       0       0       0       0       0
  3524 ;;      Totals:         0       0       0       0       0       0       0       0       0
  3525 ;;Total ram usage:        0 bytes
  3526 ;; Hardware stack levels used:    1
  3527 ;; Hardware stack levels required when called:    4
  3528 ;; This function calls:
  3529 ;;		_USER_USB_CALLBACK_EVENT_HANDLER
  3530 ;; This function is called by:
  3531 ;;		_USBDeviceTasks
  3532 ;; This function uses a non-reentrant model
  3533 ;;
  3534                           
  3535                           	psect	text17
  3536  0020AC                     __ptext17:
  3537                           	opt stack 0
  3538  0020AC                     _USBWakeFromSuspend:
  3539                           	opt stack 22
  3540                           
  3541                           ;usb_device.c: 2323: USBBusIsSuspended = 0;
  3542                           
  3543                           ; BSR set to: 0
  3544                           ;incstack = 0
  3545  0020AC  0E00               	movlw	0
  3546  0020AE  6E19               	movwf	_USBBusIsSuspended,c	;volatile
  3547                           
  3548                           ;usb_device.c: 2329: USER_USB_CALLBACK_EVENT_HANDLER(EVENT_RESUME,0,0);
  3549  0020B0  0E00               	movlw	0
  3550  0020B2  6E3A               	movwf	USER_USB_CALLBACK_EVENT_HANDLER@event+1,c
  3551  0020B4  0E74               	movlw	116
  3552  0020B6  6E39               	movwf	USER_USB_CALLBACK_EVENT_HANDLER@event,c
  3553  0020B8  0E00               	movlw	0
  3554  0020BA  6E3B               	movwf	USER_USB_CALLBACK_EVENT_HANDLER@pdata,c
  3555  0020BC  0E00               	movlw	0
  3556  0020BE  6E3C               	movwf	USER_USB_CALLBACK_EVENT_HANDLER@pdata+1,c
  3557  0020C0  0E00               	movlw	0
  3558  0020C2  6E3E               	movwf	USER_USB_CALLBACK_EVENT_HANDLER@size+1,c
  3559  0020C4  0E00               	movlw	0
  3560  0020C6  6E3D               	movwf	USER_USB_CALLBACK_EVENT_HANDLER@size,c
  3561  0020C8  ECEA  F00E         	call	_USER_USB_CALLBACK_EVENT_HANDLER	;wreg free
  3562                           
  3563                           ;usb_device.c: 2336: UCONbits.SUSPND = 0;
  3564  0020CC  9260               	bcf	3936,1,c	;volatile
  3565                           
  3566                           ;usb_device.c: 2341: UIEbits.ACTVIE = 0;
  3567  0020CE  9464               	bcf	3940,2,c	;volatile
  3568                           
  3569                           ;usb_device.c: 2359: while(UIRbits.ACTVIF)
  3570  0020D0  D002               	goto	i2l3426
  3571  0020D2                     i2l3424:
  3572                           
  3573                           ;usb_device.c: 2361: {
  3574                           ;usb_device.c: 2362: (UIR &= 0xFB);
  3575  0020D2  9465               	bcf	3941,2,c	;volatile
  3576  0020D4  D000               	goto	i2l3426
  3577  0020D6                     i2l3426:
  3578  0020D6  B465               	btfsc	3941,2,c	;volatile
  3579  0020D8  D7FC               	goto	i2l3424
  3580                           
  3581                           ;usb_device.c: 2363: }
  3582                           ;usb_device.c: 2365: USBTicksSinceSuspendEnd = 0;
  3583  0020DA  0E00               	movlw	0
  3584  0020DC  0100               	movlb	0	; () banked
  3585  0020DE  6F6E               	movwf	_USBTicksSinceSuspendEnd& (0+255),b	;volatile
  3586                           
  3587                           ; BSR set to: 0
  3588  0020E0  0012               	return		;funcret
  3589  0020E2                     __end_of_USBWakeFromSuspend:
  3590                           	opt stack 0
  3591                           pclatu	equ	0xFFB
  3592                           pclath	equ	0xFFA
  3593                           tblptru	equ	0xFF8
  3594                           tblptrh	equ	0xFF7
  3595                           tblptrl	equ	0xFF6
  3596                           tablat	equ	0xFF5
  3597                           prodh	equ	0xFF4
  3598                           prodl	equ	0xFF3
  3599                           intcon	equ	0xFF2
  3600                           postinc0	equ	0xFEE
  3601                           fsr0h	equ	0xFEA
  3602                           fsr0l	equ	0xFE9
  3603                           wreg	equ	0xFE8
  3604                           fsr1h	equ	0xFE2
  3605                           fsr1l	equ	0xFE1
  3606                           indf2	equ	0xFDF
  3607                           postinc2	equ	0xFDE
  3608                           postdec2	equ	0xFDD
  3609                           plusw2	equ	0xFDB
  3610                           fsr2h	equ	0xFDA
  3611                           fsr2l	equ	0xFD9
  3612                           status	equ	0xFD8
  3613                           
  3614 ;; *************** function _USBSuspend *****************
  3615 ;; Defined at:
  3616 ;;		line 2263 in file "../../../../../../microchip/mla/v2015_08_10/framework/usb/src/usb_device.c"
  3617 ;; Parameters:    Size  Location     Type
  3618 ;;		None
  3619 ;; Auto vars:     Size  Location     Type
  3620 ;;		None
  3621 ;; Return value:  Size  Location     Type
  3622 ;;		None               void
  3623 ;; Registers used:
  3624 ;;		wreg, fsr2l, fsr2h, status,2, status,0, prodl, prodh, cstack
  3625 ;; Tracked objects:
  3626 ;;		On entry : 0/0
  3627 ;;		On exit  : 0/0
  3628 ;;		Unchanged: 0/0
  3629 ;; Data sizes:     COMRAM   BANK0   BANK1   BANK2   BANK3   BANK4   BANK5   BANK6   BANK7
  3630 ;;      Params:         0       0       0       0       0       0       0       0       0
  3631 ;;      Locals:         0       0       0       0       0       0       0       0       0
  3632 ;;      Temps:          0       0       0       0       0       0       0       0       0
  3633 ;;      Totals:         0       0       0       0       0       0       0       0       0
  3634 ;;Total ram usage:        0 bytes
  3635 ;; Hardware stack levels used:    1
  3636 ;; Hardware stack levels required when called:    4
  3637 ;; This function calls:
  3638 ;;		_USER_USB_CALLBACK_EVENT_HANDLER
  3639 ;; This function is called by:
  3640 ;;		_USBDeviceTasks
  3641 ;; This function uses a non-reentrant model
  3642 ;;
  3643                           
  3644                           	psect	text18
  3645  00217A                     __ptext18:
  3646                           	opt stack 0
  3647  00217A                     _USBSuspend:
  3648                           	opt stack 22
  3649                           
  3650                           ;usb_device.c: 2288: UIEbits.ACTVIE = 1;
  3651                           
  3652                           ; BSR set to: 0
  3653                           ;incstack = 0
  3654  00217A  8464               	bsf	3940,2,c	;volatile
  3655                           
  3656                           ;usb_device.c: 2289: (UIR &= 0xEF);
  3657  00217C  9865               	bcf	3941,4,c	;volatile
  3658                           
  3659                           ;usb_device.c: 2292: UCONbits.SUSPND = 1;
  3660  00217E  8260               	bsf	3936,1,c	;volatile
  3661                           
  3662                           ;usb_device.c: 2295: USBBusIsSuspended = 1;
  3663  002180  0E01               	movlw	1
  3664  002182  6E19               	movwf	_USBBusIsSuspended,c	;volatile
  3665                           
  3666                           ;usb_device.c: 2296: USBTicksSinceSuspendEnd = 0;
  3667  002184  0E00               	movlw	0
  3668  002186  0100               	movlb	0	; () banked
  3669  002188  6F6E               	movwf	_USBTicksSinceSuspendEnd& (0+255),b	;volatile
  3670                           
  3671                           ; BSR set to: 0
  3672                           ;usb_device.c: 2303: USER_USB_CALLBACK_EVENT_HANDLER(EVENT_SUSPEND,0,0);
  3673  00218A  0E00               	movlw	0
  3674  00218C  6E3A               	movwf	USER_USB_CALLBACK_EVENT_HANDLER@event+1,c
  3675  00218E  0E75               	movlw	117
  3676  002190  6E39               	movwf	USER_USB_CALLBACK_EVENT_HANDLER@event,c
  3677  002192  0E00               	movlw	0
  3678  002194  6E3B               	movwf	USER_USB_CALLBACK_EVENT_HANDLER@pdata,c
  3679  002196  0E00               	movlw	0
  3680  002198  6E3C               	movwf	USER_USB_CALLBACK_EVENT_HANDLER@pdata+1,c
  3681  00219A  0E00               	movlw	0
  3682  00219C  6E3E               	movwf	USER_USB_CALLBACK_EVENT_HANDLER@size+1,c
  3683  00219E  0E00               	movlw	0
  3684  0021A0  6E3D               	movwf	USER_USB_CALLBACK_EVENT_HANDLER@size,c
  3685  0021A2  ECEA  F00E         	call	_USER_USB_CALLBACK_EVENT_HANDLER	;wreg free
  3686  0021A6  0012               	return		;funcret
  3687  0021A8                     __end_of_USBSuspend:
  3688                           	opt stack 0
  3689                           pclatu	equ	0xFFB
  3690                           pclath	equ	0xFFA
  3691                           tblptru	equ	0xFF8
  3692                           tblptrh	equ	0xFF7
  3693                           tblptrl	equ	0xFF6
  3694                           tablat	equ	0xFF5
  3695                           prodh	equ	0xFF4
  3696                           prodl	equ	0xFF3
  3697                           intcon	equ	0xFF2
  3698                           postinc0	equ	0xFEE
  3699                           fsr0h	equ	0xFEA
  3700                           fsr0l	equ	0xFE9
  3701                           wreg	equ	0xFE8
  3702                           fsr1h	equ	0xFE2
  3703                           fsr1l	equ	0xFE1
  3704                           indf2	equ	0xFDF
  3705                           postinc2	equ	0xFDE
  3706                           postdec2	equ	0xFDD
  3707                           plusw2	equ	0xFDB
  3708                           fsr2h	equ	0xFDA
  3709                           fsr2l	equ	0xFD9
  3710                           status	equ	0xFD8
  3711                           
  3712 ;; *************** function _USBStallHandler *****************
  3713 ;; Defined at:
  3714 ;;		line 2220 in file "../../../../../../microchip/mla/v2015_08_10/framework/usb/src/usb_device.c"
  3715 ;; Parameters:    Size  Location     Type
  3716 ;;		None
  3717 ;; Auto vars:     Size  Location     Type
  3718 ;;		None
  3719 ;; Return value:  Size  Location     Type
  3720 ;;		None               void
  3721 ;; Registers used:
  3722 ;;		wreg, fsr2l, fsr2h, status,2, status,0
  3723 ;; Tracked objects:
  3724 ;;		On entry : 0/0
  3725 ;;		On exit  : 0/0
  3726 ;;		Unchanged: 0/0
  3727 ;; Data sizes:     COMRAM   BANK0   BANK1   BANK2   BANK3   BANK4   BANK5   BANK6   BANK7
  3728 ;;      Params:         0       0       0       0       0       0       0       0       0
  3729 ;;      Locals:         0       0       0       0       0       0       0       0       0
  3730 ;;      Temps:          1       0       0       0       0       0       0       0       0
  3731 ;;      Totals:         1       0       0       0       0       0       0       0       0
  3732 ;;Total ram usage:        1 bytes
  3733 ;; Hardware stack levels used:    1
  3734 ;; This function calls:
  3735 ;;		Nothing
  3736 ;; This function is called by:
  3737 ;;		_USBDeviceTasks
  3738 ;; This function uses a non-reentrant model
  3739 ;;
  3740                           
  3741                           	psect	text19
  3742  001FB0                     __ptext19:
  3743                           	opt stack 0
  3744  001FB0                     _USBStallHandler:
  3745                           	opt stack 26
  3746                           
  3747                           ;usb_device.c: 2232: if(UEP0bits.EPSTALL == 1)
  3748                           
  3749                           ;incstack = 0
  3750  001FB0  A06A               	btfss	3946,0,c	;volatile
  3751  001FB2  D01E               	goto	i2l570
  3752                           
  3753                           ;usb_device.c: 2233: {
  3754                           ;usb_device.c: 2235: if((pBDTEntryEP0OutCurrent->STAT.Val == 0x80) && (pBDTEntryIn[0]->S
      +                          TAT.Val == (0x80|0x04)))
  3755  001FB4  C013  FFD9         	movff	_pBDTEntryEP0OutCurrent,fsr2l
  3756  001FB8  C014  FFDA         	movff	_pBDTEntryEP0OutCurrent+1,fsr2h
  3757  001FBC  0E80               	movlw	128
  3758  001FBE  18DE               	xorwf	postinc2,w,c
  3759  001FC0  A4D8               	btfss	status,2,c
  3760  001FC2  D015               	goto	i2l2224
  3761  001FC4  C009  FFD9         	movff	_pBDTEntryIn,fsr2l
  3762  001FC8  C00A  FFDA         	movff	_pBDTEntryIn+1,fsr2h
  3763  001FCC  0E84               	movlw	132
  3764  001FCE  18DE               	xorwf	postinc2,w,c
  3765  001FD0  A4D8               	btfss	status,2,c
  3766  001FD2  D00D               	goto	i2l2224
  3767                           
  3768                           ;usb_device.c: 2236: {
  3769                           ;usb_device.c: 2238: pBDTEntryEP0OutCurrent->STAT.Val = 0x00|(0x08 & 0x08)|0x04;
  3770  001FD4  C013  FFD9         	movff	_pBDTEntryEP0OutCurrent,fsr2l
  3771  001FD8  C014  FFDA         	movff	_pBDTEntryEP0OutCurrent+1,fsr2h
  3772  001FDC  0E0C               	movlw	12
  3773  001FDE  6EDF               	movwf	indf2,c
  3774                           
  3775                           ;usb_device.c: 2239: pBDTEntryEP0OutCurrent->STAT.Val |= 0x80;
  3776  001FE0  C013  FFD9         	movff	_pBDTEntryEP0OutCurrent,fsr2l
  3777  001FE4  C014  FFDA         	movff	_pBDTEntryEP0OutCurrent+1,fsr2h
  3778  001FE8  0E00               	movlw	0
  3779  001FEA  8EDB               	bsf	plusw2,7,c
  3780  001FEC  D000               	goto	i2l2224
  3781  001FEE                     i2l2224:
  3782                           
  3783                           ;usb_device.c: 2240: }
  3784                           ;usb_device.c: 2241: UEP0bits.EPSTALL = 0;
  3785  001FEE  906A               	bcf	3946,0,c	;volatile
  3786  001FF0                     i2l570:
  3787                           
  3788                           ;usb_device.c: 2242: }
  3789                           ;usb_device.c: 2244: (UIR &= 0xDF);
  3790  001FF0  9A65               	bcf	3941,5,c	;volatile
  3791  001FF2  0012               	return		;funcret
  3792  001FF4                     __end_of_USBStallHandler:
  3793                           	opt stack 0
  3794                           pclatu	equ	0xFFB
  3795                           pclath	equ	0xFFA
  3796                           tblptru	equ	0xFF8
  3797                           tblptrh	equ	0xFF7
  3798                           tblptrl	equ	0xFF6
  3799                           tablat	equ	0xFF5
  3800                           prodh	equ	0xFF4
  3801                           prodl	equ	0xFF3
  3802                           intcon	equ	0xFF2
  3803                           postinc0	equ	0xFEE
  3804                           fsr0h	equ	0xFEA
  3805                           fsr0l	equ	0xFE9
  3806                           wreg	equ	0xFE8
  3807                           fsr1h	equ	0xFE2
  3808                           fsr1l	equ	0xFE1
  3809                           indf2	equ	0xFDF
  3810                           postinc2	equ	0xFDE
  3811                           postdec2	equ	0xFDD
  3812                           plusw2	equ	0xFDB
  3813                           fsr2h	equ	0xFDA
  3814                           fsr2l	equ	0xFD9
  3815                           status	equ	0xFD8
  3816                           
  3817 ;; *************** function _USBIncrement1msInternalTimers *****************
  3818 ;; Defined at:
  3819 ;;		line 3042 in file "../../../../../../microchip/mla/v2015_08_10/framework/usb/src/usb_device.c"
  3820 ;; Parameters:    Size  Location     Type
  3821 ;;		None
  3822 ;; Auto vars:     Size  Location     Type
  3823 ;;		None
  3824 ;; Return value:  Size  Location     Type
  3825 ;;		None               void
  3826 ;; Registers used:
  3827 ;;		wreg, status,2, status,0
  3828 ;; Tracked objects:
  3829 ;;		On entry : 0/0
  3830 ;;		On exit  : 0/0
  3831 ;;		Unchanged: 0/0
  3832 ;; Data sizes:     COMRAM   BANK0   BANK1   BANK2   BANK3   BANK4   BANK5   BANK6   BANK7
  3833 ;;      Params:         0       0       0       0       0       0       0       0       0
  3834 ;;      Locals:         0       0       0       0       0       0       0       0       0
  3835 ;;      Temps:          0       0       0       0       0       0       0       0       0
  3836 ;;      Totals:         0       0       0       0       0       0       0       0       0
  3837 ;;Total ram usage:        0 bytes
  3838 ;; Hardware stack levels used:    1
  3839 ;; This function calls:
  3840 ;;		Nothing
  3841 ;; This function is called by:
  3842 ;;		_USBDeviceTasks
  3843 ;; This function uses a non-reentrant model
  3844 ;;
  3845                           
  3846                           	psect	text20
  3847  002200                     __ptext20:
  3848                           	opt stack 0
  3849  002200                     _USBIncrement1msInternalTimers:
  3850                           	opt stack 26
  3851                           
  3852                           ;usb_device.c: 3050: USB1msTickCount++;
  3853                           
  3854                           ;incstack = 0
  3855  002200  0E01               	movlw	1
  3856  002202  0100               	movlb	0	; () banked
  3857  002204  2760               	addwf	_USB1msTickCount& (0+255),f,b	;volatile
  3858  002206  0E00               	movlw	0
  3859  002208  2361               	addwfc	(_USB1msTickCount+1)& (0+255),f,b	;volatile
  3860  00220A  2362               	addwfc	(_USB1msTickCount+2)& (0+255),f,b	;volatile
  3861  00220C  2363               	addwfc	(_USB1msTickCount+3)& (0+255),f,b	;volatile
  3862                           
  3863                           ; BSR set to: 0
  3864                           ;usb_device.c: 3051: if(USBBusIsSuspended == 0)
  3865  00220E  5019               	movf	_USBBusIsSuspended,w,c	;volatile
  3866  002210  A4D8               	btfss	status,2,c
  3867  002212  0012               	return	
  3868                           
  3869                           ; BSR set to: 0
  3870                           ;usb_device.c: 3052: {
  3871                           ;usb_device.c: 3053: USBTicksSinceSuspendEnd++;
  3872  002214  0100               	movlb	0	; () banked
  3873  002216  2B6E               	incf	_USBTicksSinceSuspendEnd& (0+255),f,b	;volatile
  3874                           
  3875                           ; BSR set to: 0
  3876                           ;usb_device.c: 3055: if(USBTicksSinceSuspendEnd == 0)
  3877  002218  0100               	movlb	0	; () banked
  3878  00221A  516E               	movf	_USBTicksSinceSuspendEnd& (0+255),w,b	;volatile
  3879  00221C  A4D8               	btfss	status,2,c
  3880  00221E  0012               	return	
  3881                           
  3882                           ; BSR set to: 0
  3883                           ;usb_device.c: 3056: {
  3884                           ;usb_device.c: 3057: USBTicksSinceSuspendEnd = 255;
  3885  002220  0100               	movlb	0	; () banked
  3886  002222  696E               	setf	_USBTicksSinceSuspendEnd& (0+255),b	;volatile
  3887                           
  3888                           ; BSR set to: 0
  3889  002224  0012               	return	
  3890                           
  3891                           ; BSR set to: 0
  3892                           
  3893                           ; BSR set to: 0
  3894  002226  0012               	return		;funcret
  3895  002228                     __end_of_USBIncrement1msInternalTimers:
  3896                           	opt stack 0
  3897                           pclatu	equ	0xFFB
  3898                           pclath	equ	0xFFA
  3899                           tblptru	equ	0xFF8
  3900                           tblptrh	equ	0xFF7
  3901                           tblptrl	equ	0xFF6
  3902                           tablat	equ	0xFF5
  3903                           prodh	equ	0xFF4
  3904                           prodl	equ	0xFF3
  3905                           intcon	equ	0xFF2
  3906                           postinc0	equ	0xFEE
  3907                           fsr0h	equ	0xFEA
  3908                           fsr0l	equ	0xFE9
  3909                           wreg	equ	0xFE8
  3910                           fsr1h	equ	0xFE2
  3911                           fsr1l	equ	0xFE1
  3912                           indf2	equ	0xFDF
  3913                           postinc2	equ	0xFDE
  3914                           postdec2	equ	0xFDD
  3915                           plusw2	equ	0xFDB
  3916                           fsr2h	equ	0xFDA
  3917                           fsr2l	equ	0xFD9
  3918                           status	equ	0xFD8
  3919                           
  3920 ;; *************** function _USBCtrlEPService *****************
  3921 ;; Defined at:
  3922 ;;		line 2390 in file "../../../../../../microchip/mla/v2015_08_10/framework/usb/src/usb_device.c"
  3923 ;; Parameters:    Size  Location     Type
  3924 ;;		None
  3925 ;; Auto vars:     Size  Location     Type
  3926 ;;		None
  3927 ;; Return value:  Size  Location     Type
  3928 ;;		None               void
  3929 ;; Registers used:
  3930 ;;		wreg, fsr0l, fsr0h, fsr1l, fsr1h, fsr2l, fsr2h, status,2, status,0, tblptrl, tblptrh, tblptru, prodl, prodh, cstack
  3931 ;; Tracked objects:
  3932 ;;		On entry : 0/0
  3933 ;;		On exit  : 0/0
  3934 ;;		Unchanged: 0/0
  3935 ;; Data sizes:     COMRAM   BANK0   BANK1   BANK2   BANK3   BANK4   BANK5   BANK6   BANK7
  3936 ;;      Params:         0       0       0       0       0       0       0       0       0
  3937 ;;      Locals:         0       0       0       0       0       0       0       0       0
  3938 ;;      Temps:          1       0       0       0       0       0       0       0       0
  3939 ;;      Totals:         1       0       0       0       0       0       0       0       0
  3940 ;;Total ram usage:        1 bytes
  3941 ;; Hardware stack levels used:    1
  3942 ;; Hardware stack levels required when called:    7
  3943 ;; This function calls:
  3944 ;;		_USBCtrlTrfInHandler
  3945 ;;		_USBCtrlTrfOutHandler
  3946 ;;		_USBCtrlTrfSetupHandler
  3947 ;;		_memcpy
  3948 ;; This function is called by:
  3949 ;;		_USBDeviceTasks
  3950 ;; This function uses a non-reentrant model
  3951 ;;
  3952                           
  3953                           	psect	text21
  3954  001C3A                     __ptext21:
  3955                           	opt stack 0
  3956  001C3A                     _USBCtrlEPService:
  3957                           	opt stack 19
  3958                           
  3959                           ;usb_device.c: 2396: USBStatusStageTimeoutCounter = (uint8_t)45;
  3960                           
  3961                           ; BSR set to: 0
  3962                           ;incstack = 0
  3963  001C3A  0E2D               	movlw	45
  3964  001C3C  6E20               	movwf	_USBStatusStageTimeoutCounter,c	;volatile
  3965                           
  3966                           ;usb_device.c: 2400: if((USTATcopy.Val & ~0x02) == 0x00)
  3967  001C3E  C02C  F047         	movff	_USTATcopy,??_USBCtrlEPService	;volatile
  3968  001C42  0EFD               	movlw	253
  3969  001C44  1647               	andwf	??_USBCtrlEPService,f,c
  3970  001C46  A4D8               	btfss	status,2,c
  3971  001C48  D038               	goto	i2l3470
  3972                           
  3973                           ;usb_device.c: 2401: {
  3974                           ;usb_device.c: 2404: pBDTEntryEP0OutCurrent = (volatile BDT_ENTRY*)&BDT[(USTATcopy.Val &
      +                           0x7E)>>1];
  3975  001C4A  C02C  F047         	movff	_USTATcopy,??_USBCtrlEPService	;volatile
  3976  001C4E  90D8               	bcf	status,0,c
  3977  001C50  3247               	rrcf	??_USBCtrlEPService,f,c
  3978  001C52  0E3F               	movlw	63
  3979  001C54  1647               	andwf	??_USBCtrlEPService,f,c
  3980  001C56  5047               	movf	??_USBCtrlEPService,w,c
  3981  001C58  0D04               	mullw	4
  3982  001C5A  0E00               	movlw	0
  3983  001C5C  24F3               	addwf	prodl,w,c
  3984  001C5E  6E13               	movwf	_pBDTEntryEP0OutCurrent,c
  3985  001C60  0E04               	movlw	4
  3986  001C62  20F4               	addwfc	prodh,w,c
  3987  001C64  6E14               	movwf	_pBDTEntryEP0OutCurrent+1,c
  3988                           
  3989                           ;usb_device.c: 2412: pBDTEntryEP0OutNext = pBDTEntryEP0OutCurrent;
  3990  001C66  C013  F015         	movff	_pBDTEntryEP0OutCurrent,_pBDTEntryEP0OutNext
  3991  001C6A  C014  F016         	movff	_pBDTEntryEP0OutCurrent+1,_pBDTEntryEP0OutNext+1
  3992                           
  3993                           ;usb_device.c: 2414: ((uint8_t_VAL*)&pBDTEntryEP0OutNext)->Val ^= 0x0004;
  3994  001C6E  0E04               	movlw	4
  3995  001C70  1A15               	xorwf	_pBDTEntryEP0OutNext,f,c
  3996                           
  3997                           ;usb_device.c: 2417: if(pBDTEntryEP0OutCurrent->STAT.PID == 0xD)
  3998  001C72  C013  FFD9         	movff	_pBDTEntryEP0OutCurrent,fsr2l
  3999  001C76  C014  FFDA         	movff	_pBDTEntryEP0OutCurrent+1,fsr2h
  4000  001C7A  30DF               	rrcf	indf2,w,c
  4001  001C7C  32E8               	rrcf	wreg,f,c
  4002  001C7E  0B0F               	andlw	15
  4003  001C80  0A0D               	xorlw	13
  4004  001C82  A4D8               	btfss	status,2,c
  4005  001C84  D017               	goto	i2l3468
  4006                           
  4007                           ;usb_device.c: 2418: {
  4008                           ;usb_device.c: 2423: memcpy((uint8_t*)&SetupPkt, (uint8_t*)((void *)(pBDTEntryEP0OutCurr
      +                          ent->ADR)), 8);
  4009  001C86  0E20               	movlw	32
  4010  001C88  6E2D               	movwf	memcpy@d1,c
  4011  001C8A  0E04               	movlw	4
  4012  001C8C  6E2E               	movwf	memcpy@d1+1,c
  4013  001C8E  EE20 F002          	lfsr	2,2
  4014  001C92  5013               	movf	_pBDTEntryEP0OutCurrent,w,c
  4015  001C94  26D9               	addwf	fsr2l,f,c
  4016  001C96  5014               	movf	_pBDTEntryEP0OutCurrent+1,w,c
  4017  001C98  22DA               	addwfc	fsr2h,f,c
  4018  001C9A  CFDE F02F          	movff	postinc2,memcpy@s1
  4019  001C9E  CFDD F030          	movff	postdec2,memcpy@s1+1
  4020  001CA2  0E00               	movlw	0
  4021  001CA4  6E32               	movwf	memcpy@n+1,c
  4022  001CA6  0E08               	movlw	8
  4023  001CA8  6E31               	movwf	memcpy@n,c
  4024  001CAA  ECFA  F00F         	call	_memcpy	;wreg free
  4025                           
  4026                           ;usb_device.c: 2426: USBCtrlTrfSetupHandler();
  4027  001CAE  ECA9  F00E         	call	_USBCtrlTrfSetupHandler	;wreg free
  4028                           
  4029                           ;usb_device.c: 2427: }
  4030  001CB2  0012               	return	
  4031  001CB4                     i2l3468:
  4032                           
  4033                           ;usb_device.c: 2428: else
  4034                           ;usb_device.c: 2429: {
  4035                           ;usb_device.c: 2431: USBCtrlTrfOutHandler();
  4036  001CB4  EC2B  F00F         	call	_USBCtrlTrfOutHandler	;wreg free
  4037                           
  4038                           ;usb_device.c: 2432: }
  4039                           ;usb_device.c: 2433: }
  4040  001CB8  0012               	return	
  4041  001CBA                     i2l3470:
  4042                           
  4043                           ;usb_device.c: 2434: else if((USTATcopy.Val & ~0x02) == 0x04)
  4044  001CBA  502C               	movf	_USTATcopy,w,c	;volatile
  4045  001CBC  0BFD               	andlw	253
  4046  001CBE  0A04               	xorlw	4
  4047  001CC0  A4D8               	btfss	status,2,c
  4048  001CC2  0012               	return	
  4049                           
  4050                           ;usb_device.c: 2435: {
  4051                           ;usb_device.c: 2438: USBCtrlTrfInHandler();
  4052  001CC4  ECCA  F00C         	call	_USBCtrlTrfInHandler	;wreg free
  4053  001CC8  0012               	return	
  4054  001CCA  0012               	return		;funcret
  4055  001CCC                     __end_of_USBCtrlEPService:
  4056                           	opt stack 0
  4057                           pclatu	equ	0xFFB
  4058                           pclath	equ	0xFFA
  4059                           tblptru	equ	0xFF8
  4060                           tblptrh	equ	0xFF7
  4061                           tblptrl	equ	0xFF6
  4062                           tablat	equ	0xFF5
  4063                           prodh	equ	0xFF4
  4064                           prodl	equ	0xFF3
  4065                           intcon	equ	0xFF2
  4066                           postinc0	equ	0xFEE
  4067                           fsr0h	equ	0xFEA
  4068                           fsr0l	equ	0xFE9
  4069                           wreg	equ	0xFE8
  4070                           fsr1h	equ	0xFE2
  4071                           fsr1l	equ	0xFE1
  4072                           indf2	equ	0xFDF
  4073                           postinc2	equ	0xFDE
  4074                           postdec2	equ	0xFDD
  4075                           plusw2	equ	0xFDB
  4076                           fsr2h	equ	0xFDA
  4077                           fsr2l	equ	0xFD9
  4078                           status	equ	0xFD8
  4079                           
  4080 ;; *************** function _memcpy *****************
  4081 ;; Defined at:
  4082 ;;		line 11 in file "C:\Program Files (x86)\Microchip\xc8\v1.34\sources\common\memcpy.c"
  4083 ;; Parameters:    Size  Location     Type
  4084 ;;  d1              2    0[COMRAM] PTR void 
  4085 ;;		 -> SetupPkt(8), 
  4086 ;;  s1              2    2[COMRAM] PTR const void 
  4087 ;;		 -> RAM(2047), CtrlTrfData(8), SetupPkt(8), ToSendDataBuffer(64), 
  4088 ;;		 -> ReceivedDataBuffer(64), 
  4089 ;;  n               2    4[COMRAM] unsigned int 
  4090 ;; Auto vars:     Size  Location     Type
  4091 ;;  s               2    8[COMRAM] PTR const unsigned char 
  4092 ;;		 -> RAM(2047), CtrlTrfData(8), SetupPkt(8), ToSendDataBuffer(64), 
  4093 ;;		 -> ReceivedDataBuffer(64), 
  4094 ;;  d               2    6[COMRAM] PTR unsigned char 
  4095 ;;		 -> SetupPkt(8), 
  4096 ;; Return value:  Size  Location     Type
  4097 ;;                  2    0[COMRAM] PTR void 
  4098 ;; Registers used:
  4099 ;;		wreg, fsr1l, fsr1h, fsr2l, fsr2h, status,2, status,0
  4100 ;; Tracked objects:
  4101 ;;		On entry : 0/0
  4102 ;;		On exit  : 0/0
  4103 ;;		Unchanged: 0/0
  4104 ;; Data sizes:     COMRAM   BANK0   BANK1   BANK2   BANK3   BANK4   BANK5   BANK6   BANK7
  4105 ;;      Params:         6       0       0       0       0       0       0       0       0
  4106 ;;      Locals:         4       0       0       0       0       0       0       0       0
  4107 ;;      Temps:          0       0       0       0       0       0       0       0       0
  4108 ;;      Totals:        10       0       0       0       0       0       0       0       0
  4109 ;;Total ram usage:       10 bytes
  4110 ;; Hardware stack levels used:    1
  4111 ;; This function calls:
  4112 ;;		Nothing
  4113 ;; This function is called by:
  4114 ;;		_USBCtrlEPService
  4115 ;; This function uses a non-reentrant model
  4116 ;;
  4117                           
  4118                           	psect	text22
  4119  001FF4                     __ptext22:
  4120                           	opt stack 0
  4121  001FF4                     _memcpy:
  4122                           	opt stack 25
  4123                           
  4124                           ;incstack = 0
  4125  001FF4  C02F  F035         	movff	memcpy@s1,memcpy@s
  4126  001FF8  C030  F036         	movff	memcpy@s1+1,memcpy@s+1
  4127  001FFC  C02D  F033         	movff	memcpy@d1,memcpy@d
  4128  002000  C02E  F034         	movff	memcpy@d1+1,memcpy@d+1
  4129  002004  D00F               	goto	i2l3272
  4130  002006                     i2l3266:
  4131  002006  C035  FFD9         	movff	memcpy@s,fsr2l
  4132  00200A  C036  FFDA         	movff	memcpy@s+1,fsr2h
  4133  00200E  C033  FFE1         	movff	memcpy@d,fsr1l
  4134  002012  C034  FFE2         	movff	memcpy@d+1,fsr1h
  4135  002016  CFDF FFE7          	movff	indf2,indf1
  4136  00201A  4A35               	infsnz	memcpy@s,f,c
  4137  00201C  2A36               	incf	memcpy@s+1,f,c
  4138  00201E  4A33               	infsnz	memcpy@d,f,c
  4139  002020  2A34               	incf	memcpy@d+1,f,c
  4140  002022  D000               	goto	i2l3272
  4141  002024                     i2l3272:
  4142  002024  0631               	decf	memcpy@n,f,c
  4143  002026  A0D8               	btfss	status,0,c
  4144  002028  0632               	decf	memcpy@n+1,f,c
  4145  00202A  2831               	incf	memcpy@n,w,c
  4146  00202C  E1EC               	bnz	i2l3266
  4147  00202E  2832               	incf	memcpy@n+1,w,c
  4148  002030  A4D8               	btfss	status,2,c
  4149  002032  D7E9               	goto	i2l3266
  4150                           
  4151                           ;	Return value of _memcpy is never used
  4152  002034  0012               	return		;funcret
  4153  002036                     __end_of_memcpy:
  4154                           	opt stack 0
  4155                           pclatu	equ	0xFFB
  4156                           pclath	equ	0xFFA
  4157                           tblptru	equ	0xFF8
  4158                           tblptrh	equ	0xFF7
  4159                           tblptrl	equ	0xFF6
  4160                           tablat	equ	0xFF5
  4161                           prodh	equ	0xFF4
  4162                           prodl	equ	0xFF3
  4163                           intcon	equ	0xFF2
  4164                           postinc0	equ	0xFEE
  4165                           fsr0h	equ	0xFEA
  4166                           fsr0l	equ	0xFE9
  4167                           wreg	equ	0xFE8
  4168                           indf1	equ	0xFE7
  4169                           fsr1h	equ	0xFE2
  4170                           fsr1l	equ	0xFE1
  4171                           indf2	equ	0xFDF
  4172                           postinc2	equ	0xFDE
  4173                           postdec2	equ	0xFDD
  4174                           plusw2	equ	0xFDB
  4175                           fsr2h	equ	0xFDA
  4176                           fsr2l	equ	0xFD9
  4177                           status	equ	0xFD8
  4178                           
  4179 ;; *************** function _USBCtrlTrfSetupHandler *****************
  4180 ;; Defined at:
  4181 ;;		line 2483 in file "../../../../../../microchip/mla/v2015_08_10/framework/usb/src/usb_device.c"
  4182 ;; Parameters:    Size  Location     Type
  4183 ;;		None
  4184 ;; Auto vars:     Size  Location     Type
  4185 ;;		None
  4186 ;; Return value:  Size  Location     Type
  4187 ;;		None               void
  4188 ;; Registers used:
  4189 ;;		wreg, fsr0l, fsr0h, fsr2l, fsr2h, status,2, status,0, tblptrl, tblptrh, tblptru, prodl, prodh, cstack
  4190 ;; Tracked objects:
  4191 ;;		On entry : 0/0
  4192 ;;		On exit  : 0/0
  4193 ;;		Unchanged: 0/0
  4194 ;; Data sizes:     COMRAM   BANK0   BANK1   BANK2   BANK3   BANK4   BANK5   BANK6   BANK7
  4195 ;;      Params:         0       0       0       0       0       0       0       0       0
  4196 ;;      Locals:         0       0       0       0       0       0       0       0       0
  4197 ;;      Temps:          0       0       0       0       0       0       0       0       0
  4198 ;;      Totals:         0       0       0       0       0       0       0       0       0
  4199 ;;Total ram usage:        0 bytes
  4200 ;; Hardware stack levels used:    1
  4201 ;; Hardware stack levels required when called:    6
  4202 ;; This function calls:
  4203 ;;		_USBCheckStdRequest
  4204 ;;		_USBCtrlEPServiceComplete
  4205 ;;		_USER_USB_CALLBACK_EVENT_HANDLER
  4206 ;; This function is called by:
  4207 ;;		_USBCtrlEPService
  4208 ;; This function uses a non-reentrant model
  4209 ;;
  4210                           
  4211                           	psect	text23
  4212  001D52                     __ptext23:
  4213                           	opt stack 0
  4214  001D52                     _USBCtrlTrfSetupHandler:
  4215                           	opt stack 19
  4216                           
  4217                           ;usb_device.c: 2488: shortPacketStatus = 0;
  4218                           
  4219                           ;incstack = 0
  4220  001D52  0E00               	movlw	0
  4221  001D54  6E23               	movwf	_shortPacketStatus,c	;volatile
  4222                           
  4223                           ;usb_device.c: 2489: USBDeferStatusStagePacket = 0;
  4224  001D56  0E00               	movlw	0
  4225  001D58  6E1C               	movwf	_USBDeferStatusStagePacket,c	;volatile
  4226                           
  4227                           ;usb_device.c: 2490: USBDeferINDataStagePackets = 0;
  4228  001D5A  0E00               	movlw	0
  4229  001D5C  6E1A               	movwf	_USBDeferINDataStagePackets,c	;volatile
  4230                           
  4231                           ;usb_device.c: 2491: USBDeferOUTDataStagePackets = 0;
  4232  001D5E  0E00               	movlw	0
  4233  001D60  6E1B               	movwf	_USBDeferOUTDataStagePackets,c	;volatile
  4234                           
  4235                           ;usb_device.c: 2492: BothEP0OutUOWNsSet = 0;
  4236  001D62  0E00               	movlw	0
  4237  001D64  6E17               	movwf	_BothEP0OutUOWNsSet,c	;volatile
  4238                           
  4239                           ;usb_device.c: 2493: controlTransferState = 0;
  4240  001D66  0E00               	movlw	0
  4241  001D68  6E21               	movwf	_controlTransferState,c	;volatile
  4242                           
  4243                           ;usb_device.c: 2502: pBDTEntryIn[0]->STAT.Val &= ~(0x80);
  4244  001D6A  C009  FFD9         	movff	_pBDTEntryIn,fsr2l
  4245  001D6E  C00A  FFDA         	movff	_pBDTEntryIn+1,fsr2h
  4246  001D72  0E7F               	movlw	127
  4247  001D74  16DF               	andwf	indf2,f,c
  4248                           
  4249                           ;usb_device.c: 2503: ((uint8_t_VAL*)&pBDTEntryIn[0])->Val ^= 0x0004;
  4250  001D76  0E04               	movlw	4
  4251  001D78  1A09               	xorwf	_pBDTEntryIn,f,c
  4252                           
  4253                           ;usb_device.c: 2504: pBDTEntryIn[0]->STAT.Val &= ~(0x80);
  4254  001D7A  C009  FFD9         	movff	_pBDTEntryIn,fsr2l
  4255  001D7E  C00A  FFDA         	movff	_pBDTEntryIn+1,fsr2h
  4256  001D82  0E7F               	movlw	127
  4257  001D84  16DF               	andwf	indf2,f,c
  4258                           
  4259                           ;usb_device.c: 2505: ((uint8_t_VAL*)&pBDTEntryIn[0])->Val ^= 0x0004;
  4260  001D86  0E04               	movlw	4
  4261  001D88  1A09               	xorwf	_pBDTEntryIn,f,c
  4262                           
  4263                           ;usb_device.c: 2506: pBDTEntryEP0OutNext->STAT.Val &= ~(0x80);
  4264  001D8A  C015  FFD9         	movff	_pBDTEntryEP0OutNext,fsr2l
  4265  001D8E  C016  FFDA         	movff	_pBDTEntryEP0OutNext+1,fsr2h
  4266  001D92  0E7F               	movlw	127
  4267  001D94  16DF               	andwf	indf2,f,c
  4268                           
  4269                           ;usb_device.c: 2508: inPipes[0].info.Val = 0;
  4270  001D96  0E00               	movlw	0
  4271  001D98  6E27               	movwf	_inPipes+3,c	;volatile
  4272                           
  4273                           ;usb_device.c: 2509: inPipes[0].wCount.Val = 0;
  4274  001D9A  0E00               	movlw	0
  4275  001D9C  6E29               	movwf	_inPipes+5,c	;volatile
  4276  001D9E  0E00               	movlw	0
  4277  001DA0  6E28               	movwf	_inPipes+4,c	;volatile
  4278                           
  4279                           ;usb_device.c: 2510: outPipes[0].info.Val = 0;
  4280  001DA2  0E00               	movlw	0
  4281  001DA4  6E04               	movwf	_outPipes+3,c	;volatile
  4282                           
  4283                           ;usb_device.c: 2511: outPipes[0].wCount.Val = 0;
  4284  001DA6  0E00               	movlw	0
  4285  001DA8  6E06               	movwf	_outPipes+5,c	;volatile
  4286  001DAA  0E00               	movlw	0
  4287  001DAC  6E05               	movwf	_outPipes+4,c	;volatile
  4288                           
  4289                           ;usb_device.c: 2517: USBCheckStdRequest();
  4290  001DAE  EC4A  F00A         	call	_USBCheckStdRequest	;wreg free
  4291                           
  4292                           ;usb_device.c: 2518: USER_USB_CALLBACK_EVENT_HANDLER(EVENT_EP0_REQUEST,0,0);
  4293  001DB2  0E00               	movlw	0
  4294  001DB4  6E3A               	movwf	USER_USB_CALLBACK_EVENT_HANDLER@event+1,c
  4295  001DB6  0E03               	movlw	3
  4296  001DB8  6E39               	movwf	USER_USB_CALLBACK_EVENT_HANDLER@event,c
  4297  001DBA  0E00               	movlw	0
  4298  001DBC  6E3B               	movwf	USER_USB_CALLBACK_EVENT_HANDLER@pdata,c
  4299  001DBE  0E00               	movlw	0
  4300  001DC0  6E3C               	movwf	USER_USB_CALLBACK_EVENT_HANDLER@pdata+1,c
  4301  001DC2  0E00               	movlw	0
  4302  001DC4  6E3E               	movwf	USER_USB_CALLBACK_EVENT_HANDLER@size+1,c
  4303  001DC6  0E00               	movlw	0
  4304  001DC8  6E3D               	movwf	USER_USB_CALLBACK_EVENT_HANDLER@size,c
  4305  001DCA  ECEA  F00E         	call	_USER_USB_CALLBACK_EVENT_HANDLER	;wreg free
  4306                           
  4307                           ;usb_device.c: 2531: USBCtrlEPServiceComplete();
  4308  001DCE  EC55  F009         	call	_USBCtrlEPServiceComplete	;wreg free
  4309  001DD2  0012               	return		;funcret
  4310  001DD4                     __end_of_USBCtrlTrfSetupHandler:
  4311                           	opt stack 0
  4312                           pclatu	equ	0xFFB
  4313                           pclath	equ	0xFFA
  4314                           tblptru	equ	0xFF8
  4315                           tblptrh	equ	0xFF7
  4316                           tblptrl	equ	0xFF6
  4317                           tablat	equ	0xFF5
  4318                           prodh	equ	0xFF4
  4319                           prodl	equ	0xFF3
  4320                           intcon	equ	0xFF2
  4321                           postinc0	equ	0xFEE
  4322                           fsr0h	equ	0xFEA
  4323                           fsr0l	equ	0xFE9
  4324                           wreg	equ	0xFE8
  4325                           indf1	equ	0xFE7
  4326                           fsr1h	equ	0xFE2
  4327                           fsr1l	equ	0xFE1
  4328                           indf2	equ	0xFDF
  4329                           postinc2	equ	0xFDE
  4330                           postdec2	equ	0xFDD
  4331                           plusw2	equ	0xFDB
  4332                           fsr2h	equ	0xFDA
  4333                           fsr2l	equ	0xFD9
  4334                           status	equ	0xFD8
  4335                           
  4336 ;; *************** function _USBCtrlEPServiceComplete *****************
  4337 ;; Defined at:
  4338 ;;		line 1634 in file "../../../../../../microchip/mla/v2015_08_10/framework/usb/src/usb_device.c"
  4339 ;; Parameters:    Size  Location     Type
  4340 ;;		None
  4341 ;; Auto vars:     Size  Location     Type
  4342 ;;		None
  4343 ;; Return value:  Size  Location     Type
  4344 ;;		None               void
  4345 ;; Registers used:
  4346 ;;		wreg, fsr0l, fsr0h, fsr2l, fsr2h, status,2, status,0, tblptrl, tblptrh, tblptru, cstack
  4347 ;; Tracked objects:
  4348 ;;		On entry : 0/0
  4349 ;;		On exit  : 0/0
  4350 ;;		Unchanged: 0/0
  4351 ;; Data sizes:     COMRAM   BANK0   BANK1   BANK2   BANK3   BANK4   BANK5   BANK6   BANK7
  4352 ;;      Params:         0       0       0       0       0       0       0       0       0
  4353 ;;      Locals:         0       0       0       0       0       0       0       0       0
  4354 ;;      Temps:          0       0       0       0       0       0       0       0       0
  4355 ;;      Totals:         0       0       0       0       0       0       0       0       0
  4356 ;;Total ram usage:        0 bytes
  4357 ;; Hardware stack levels used:    1
  4358 ;; Hardware stack levels required when called:    2
  4359 ;; This function calls:
  4360 ;;		_USBCtrlEPAllowDataStage
  4361 ;;		_USBCtrlEPAllowStatusStage
  4362 ;; This function is called by:
  4363 ;;		_USBCtrlTrfSetupHandler
  4364 ;; This function uses a non-reentrant model
  4365 ;;
  4366                           
  4367                           	psect	text24
  4368  0012AA                     __ptext24:
  4369                           	opt stack 0
  4370  0012AA                     _USBCtrlEPServiceComplete:
  4371                           	opt stack 22
  4372                           
  4373                           ;usb_device.c: 1640: UCONbits.PKTDIS = 0;
  4374                           
  4375                           ;incstack = 0
  4376  0012AA  9860               	bcf	3936,4,c	;volatile
  4377                           
  4378                           ;usb_device.c: 1646: if(inPipes[0].info.bits.busy == 0)
  4379  0012AC  BE27               	btfsc	_inPipes+3,7,c	;volatile
  4380  0012AE  D03A               	goto	i2l494
  4381                           
  4382                           ;usb_device.c: 1647: {
  4383                           ;usb_device.c: 1648: if(outPipes[0].info.bits.busy == 1)
  4384  0012B0  AE04               	btfss	_outPipes+3,7,c	;volatile
  4385  0012B2  D00D               	goto	i2l3188
  4386                           
  4387                           ;usb_device.c: 1649: {
  4388                           ;usb_device.c: 1650: controlTransferState = 2;
  4389  0012B4  0E02               	movlw	2
  4390  0012B6  6E21               	movwf	_controlTransferState,c	;volatile
  4391                           
  4392                           ;usb_device.c: 1661: if(USBDeferOUTDataStagePackets == 0)
  4393  0012B8  501B               	movf	_USBDeferOUTDataStagePackets,w,c	;volatile
  4394  0012BA  A4D8               	btfss	status,2,c
  4395  0012BC  D003               	goto	i2l3184
  4396                           
  4397                           ;usb_device.c: 1662: {
  4398                           ;usb_device.c: 1663: USBCtrlEPAllowDataStage();
  4399  0012BE  EC84  F00D         	call	_USBCtrlEPAllowDataStage	;wreg free
  4400  0012C2  D000               	goto	i2l3184
  4401  0012C4                     i2l3184:
  4402                           
  4403                           ;usb_device.c: 1664: }
  4404                           ;usb_device.c: 1668: USBStatusStageEnabledFlag2 = 0;
  4405  0012C4  0E00               	movlw	0
  4406  0012C6  6E1F               	movwf	_USBStatusStageEnabledFlag2,c	;volatile
  4407                           
  4408                           ;usb_device.c: 1669: USBStatusStageEnabledFlag1 = 0;
  4409  0012C8  0E00               	movlw	0
  4410  0012CA  6E1E               	movwf	_USBStatusStageEnabledFlag1,c	;volatile
  4411                           
  4412                           ;usb_device.c: 1670: }
  4413  0012CC  0012               	return	
  4414  0012CE                     i2l3188:
  4415                           
  4416                           ;usb_device.c: 1671: else
  4417                           ;usb_device.c: 1672: {
  4418                           ;usb_device.c: 1677: pBDTEntryEP0OutNext->CNT = 8;
  4419  0012CE  EE20 F001          	lfsr	2,1
  4420  0012D2  5015               	movf	_pBDTEntryEP0OutNext,w,c
  4421  0012D4  26D9               	addwf	fsr2l,f,c
  4422  0012D6  5016               	movf	_pBDTEntryEP0OutNext+1,w,c
  4423  0012D8  22DA               	addwfc	fsr2h,f,c
  4424  0012DA  0E08               	movlw	8
  4425  0012DC  6EDF               	movwf	indf2,c
  4426                           
  4427                           ;usb_device.c: 1678: pBDTEntryEP0OutNext->ADR = ((uint16_t)(&SetupPkt));
  4428  0012DE  EE20 F002          	lfsr	2,2
  4429  0012E2  5015               	movf	_pBDTEntryEP0OutNext,w,c
  4430  0012E4  26D9               	addwf	fsr2l,f,c
  4431  0012E6  5016               	movf	_pBDTEntryEP0OutNext+1,w,c
  4432  0012E8  22DA               	addwfc	fsr2h,f,c
  4433  0012EA  0E20               	movlw	32
  4434  0012EC  6EDE               	movwf	postinc2,c
  4435  0012EE  0E04               	movlw	4
  4436  0012F0  6EDD               	movwf	postdec2,c
  4437                           
  4438                           ;usb_device.c: 1679: pBDTEntryEP0OutNext->STAT.Val = 0x00|(0x08 & 0x08)|0x04;
  4439  0012F2  C015  FFD9         	movff	_pBDTEntryEP0OutNext,fsr2l
  4440  0012F6  C016  FFDA         	movff	_pBDTEntryEP0OutNext+1,fsr2h
  4441  0012FA  0E0C               	movlw	12
  4442  0012FC  6EDF               	movwf	indf2,c
  4443                           
  4444                           ;usb_device.c: 1680: pBDTEntryEP0OutNext->STAT.Val |= 0x80;
  4445  0012FE  C015  FFD9         	movff	_pBDTEntryEP0OutNext,fsr2l
  4446  001302  C016  FFDA         	movff	_pBDTEntryEP0OutNext+1,fsr2h
  4447  001306  0E00               	movlw	0
  4448  001308  8EDB               	bsf	plusw2,7,c
  4449                           
  4450                           ;usb_device.c: 1681: pBDTEntryIn[0]->STAT.Val = 0x04;
  4451  00130A  C009  FFD9         	movff	_pBDTEntryIn,fsr2l
  4452  00130E  C00A  FFDA         	movff	_pBDTEntryIn+1,fsr2h
  4453  001312  0E04               	movlw	4
  4454  001314  6EDF               	movwf	indf2,c
  4455                           
  4456                           ;usb_device.c: 1682: pBDTEntryIn[0]->STAT.Val |= 0x80;
  4457  001316  C009  FFD9         	movff	_pBDTEntryIn,fsr2l
  4458  00131A  C00A  FFDA         	movff	_pBDTEntryIn+1,fsr2h
  4459  00131E  0E00               	movlw	0
  4460  001320  8EDB               	bsf	plusw2,7,c
  4461                           
  4462                           ;usb_device.c: 1683: }
  4463                           ;usb_device.c: 1684: }
  4464  001322  0012               	return	
  4465  001324                     i2l494:
  4466                           
  4467                           ;usb_device.c: 1685: else
  4468                           ;usb_device.c: 1686: {
  4469                           ;usb_device.c: 1687: if(SetupPkt.DataDir == (0x80>>7))
  4470  001324  0104               	movlb	4	; () banked
  4471  001326  AF20               	btfss	32,7,b	;volatile
  4472  001328  D012               	goto	i2l3208
  4473                           
  4474                           ; BSR set to: 4
  4475                           ;usb_device.c: 1688: {
  4476                           ;usb_device.c: 1689: controlTransferState = 1;
  4477  00132A  0E01               	movlw	1
  4478  00132C  6E21               	movwf	_controlTransferState,c	;volatile
  4479                           
  4480                           ;usb_device.c: 1703: if(USBDeferINDataStagePackets == 0)
  4481  00132E  501A               	movf	_USBDeferINDataStagePackets,w,c	;volatile
  4482  001330  A4D8               	btfss	status,2,c
  4483  001332  D003               	goto	i2l3200
  4484                           
  4485                           ; BSR set to: 4
  4486                           ;usb_device.c: 1704: {
  4487                           ;usb_device.c: 1705: USBCtrlEPAllowDataStage();
  4488  001334  EC84  F00D         	call	_USBCtrlEPAllowDataStage	;wreg free
  4489  001338  D000               	goto	i2l3200
  4490  00133A                     i2l3200:
  4491                           
  4492                           ;usb_device.c: 1706: }
  4493                           ;usb_device.c: 1728: USBStatusStageEnabledFlag2 = 0;
  4494  00133A  0E00               	movlw	0
  4495  00133C  6E1F               	movwf	_USBStatusStageEnabledFlag2,c	;volatile
  4496                           
  4497                           ;usb_device.c: 1729: USBStatusStageEnabledFlag1 = 0;
  4498  00133E  0E00               	movlw	0
  4499  001340  6E1E               	movwf	_USBStatusStageEnabledFlag1,c	;volatile
  4500                           
  4501                           ;usb_device.c: 1730: if(USBDeferStatusStagePacket == 0)
  4502  001342  501C               	movf	_USBDeferStatusStagePacket,w,c	;volatile
  4503  001344  A4D8               	btfss	status,2,c
  4504  001346  0012               	return	
  4505                           
  4506                           ;usb_device.c: 1731: {
  4507                           ;usb_device.c: 1732: USBCtrlEPAllowStatusStage();
  4508  001348  EC08  F00C         	call	_USBCtrlEPAllowStatusStage	;wreg free
  4509                           
  4510                           ;usb_device.c: 1733: }
  4511                           ;usb_device.c: 1734: }
  4512  00134C  0012               	return	
  4513  00134E                     i2l3208:
  4514                           
  4515                           ;usb_device.c: 1735: else
  4516                           ;usb_device.c: 1736: {
  4517                           ;usb_device.c: 1747: controlTransferState = 2;
  4518  00134E  0E02               	movlw	2
  4519  001350  6E21               	movwf	_controlTransferState,c	;volatile
  4520                           
  4521                           ;usb_device.c: 1750: pBDTEntryEP0OutNext->CNT = 8;
  4522  001352  EE20 F001          	lfsr	2,1
  4523  001356  5015               	movf	_pBDTEntryEP0OutNext,w,c
  4524  001358  26D9               	addwf	fsr2l,f,c
  4525  00135A  5016               	movf	_pBDTEntryEP0OutNext+1,w,c
  4526  00135C  22DA               	addwfc	fsr2h,f,c
  4527  00135E  0E08               	movlw	8
  4528  001360  6EDF               	movwf	indf2,c
  4529                           
  4530                           ;usb_device.c: 1751: pBDTEntryEP0OutNext->ADR = ((uint16_t)(&SetupPkt));
  4531  001362  EE20 F002          	lfsr	2,2
  4532  001366  5015               	movf	_pBDTEntryEP0OutNext,w,c
  4533  001368  26D9               	addwf	fsr2l,f,c
  4534  00136A  5016               	movf	_pBDTEntryEP0OutNext+1,w,c
  4535  00136C  22DA               	addwfc	fsr2h,f,c
  4536  00136E  0E20               	movlw	32
  4537  001370  6EDE               	movwf	postinc2,c
  4538  001372  0E04               	movlw	4
  4539  001374  6EDD               	movwf	postdec2,c
  4540                           
  4541                           ;usb_device.c: 1752: pBDTEntryEP0OutNext->STAT.Val = 0x04;
  4542  001376  C015  FFD9         	movff	_pBDTEntryEP0OutNext,fsr2l
  4543  00137A  C016  FFDA         	movff	_pBDTEntryEP0OutNext+1,fsr2h
  4544  00137E  0E04               	movlw	4
  4545  001380  6EDF               	movwf	indf2,c
  4546                           
  4547                           ;usb_device.c: 1753: pBDTEntryEP0OutNext->STAT.Val |= 0x80;
  4548  001382  C015  FFD9         	movff	_pBDTEntryEP0OutNext,fsr2l
  4549  001386  C016  FFDA         	movff	_pBDTEntryEP0OutNext+1,fsr2h
  4550  00138A  0E00               	movlw	0
  4551  00138C  8EDB               	bsf	plusw2,7,c
  4552                           
  4553                           ;usb_device.c: 1756: USBStatusStageEnabledFlag2 = 0;
  4554  00138E  0E00               	movlw	0
  4555  001390  6E1F               	movwf	_USBStatusStageEnabledFlag2,c	;volatile
  4556                           
  4557                           ;usb_device.c: 1757: USBStatusStageEnabledFlag1 = 0;
  4558  001392  0E00               	movlw	0
  4559  001394  6E1E               	movwf	_USBStatusStageEnabledFlag1,c	;volatile
  4560                           
  4561                           ;usb_device.c: 1758: if(USBDeferStatusStagePacket == 0)
  4562  001396  501C               	movf	_USBDeferStatusStagePacket,w,c	;volatile
  4563  001398  A4D8               	btfss	status,2,c
  4564  00139A  0012               	return	
  4565                           
  4566                           ;usb_device.c: 1759: {
  4567                           ;usb_device.c: 1760: USBCtrlEPAllowStatusStage();
  4568  00139C  EC08  F00C         	call	_USBCtrlEPAllowStatusStage	;wreg free
  4569  0013A0  0012               	return	
  4570  0013A2  0012               	return		;funcret
  4571  0013A4                     __end_of_USBCtrlEPServiceComplete:
  4572                           	opt stack 0
  4573                           pclatu	equ	0xFFB
  4574                           pclath	equ	0xFFA
  4575                           tblptru	equ	0xFF8
  4576                           tblptrh	equ	0xFF7
  4577                           tblptrl	equ	0xFF6
  4578                           tablat	equ	0xFF5
  4579                           prodh	equ	0xFF4
  4580                           prodl	equ	0xFF3
  4581                           intcon	equ	0xFF2
  4582                           postinc0	equ	0xFEE
  4583                           fsr0h	equ	0xFEA
  4584                           fsr0l	equ	0xFE9
  4585                           wreg	equ	0xFE8
  4586                           indf1	equ	0xFE7
  4587                           fsr1h	equ	0xFE2
  4588                           fsr1l	equ	0xFE1
  4589                           indf2	equ	0xFDF
  4590                           postinc2	equ	0xFDE
  4591                           postdec2	equ	0xFDD
  4592                           plusw2	equ	0xFDB
  4593                           fsr2h	equ	0xFDA
  4594                           fsr2l	equ	0xFD9
  4595                           status	equ	0xFD8
  4596                           
  4597 ;; *************** function _USBCtrlEPAllowDataStage *****************
  4598 ;; Defined at:
  4599 ;;		line 1506 in file "../../../../../../microchip/mla/v2015_08_10/framework/usb/src/usb_device.c"
  4600 ;; Parameters:    Size  Location     Type
  4601 ;;		None
  4602 ;; Auto vars:     Size  Location     Type
  4603 ;;		None
  4604 ;; Return value:  Size  Location     Type
  4605 ;;		None               void
  4606 ;; Registers used:
  4607 ;;		wreg, fsr0l, fsr0h, fsr2l, fsr2h, status,2, status,0, tblptrl, tblptrh, tblptru, cstack
  4608 ;; Tracked objects:
  4609 ;;		On entry : 0/0
  4610 ;;		On exit  : 0/0
  4611 ;;		Unchanged: 0/0
  4612 ;; Data sizes:     COMRAM   BANK0   BANK1   BANK2   BANK3   BANK4   BANK5   BANK6   BANK7
  4613 ;;      Params:         0       0       0       0       0       0       0       0       0
  4614 ;;      Locals:         0       0       0       0       0       0       0       0       0
  4615 ;;      Temps:          0       0       0       0       0       0       0       0       0
  4616 ;;      Totals:         0       0       0       0       0       0       0       0       0
  4617 ;;Total ram usage:        0 bytes
  4618 ;; Hardware stack levels used:    1
  4619 ;; Hardware stack levels required when called:    1
  4620 ;; This function calls:
  4621 ;;		_USBCtrlTrfTxService
  4622 ;; This function is called by:
  4623 ;;		_USBCtrlEPServiceComplete
  4624 ;; This function uses a non-reentrant model
  4625 ;;
  4626                           
  4627                           	psect	text25
  4628  001B08                     __ptext25:
  4629                           	opt stack 0
  4630  001B08                     _USBCtrlEPAllowDataStage:
  4631                           	opt stack 22
  4632                           
  4633                           ;usb_device.c: 1508: USBDeferINDataStagePackets = 0;
  4634                           
  4635                           ;incstack = 0
  4636  001B08  0E00               	movlw	0
  4637  001B0A  6E1A               	movwf	_USBDeferINDataStagePackets,c	;volatile
  4638                           
  4639                           ;usb_device.c: 1509: USBDeferOUTDataStagePackets = 0;
  4640  001B0C  0E00               	movlw	0
  4641  001B0E  6E1B               	movwf	_USBDeferOUTDataStagePackets,c	;volatile
  4642                           
  4643                           ;usb_device.c: 1511: if(controlTransferState == 2)
  4644  001B10  0E02               	movlw	2
  4645  001B12  1821               	xorwf	_controlTransferState,w,c	;volatile
  4646  001B14  A4D8               	btfss	status,2,c
  4647  001B16  D01F               	goto	i2l2982
  4648                           
  4649                           ;usb_device.c: 1512: {
  4650                           ;usb_device.c: 1514: pBDTEntryEP0OutNext->CNT = 8;
  4651  001B18  EE20 F001          	lfsr	2,1
  4652  001B1C  5015               	movf	_pBDTEntryEP0OutNext,w,c
  4653  001B1E  26D9               	addwf	fsr2l,f,c
  4654  001B20  5016               	movf	_pBDTEntryEP0OutNext+1,w,c
  4655  001B22  22DA               	addwfc	fsr2h,f,c
  4656  001B24  0E08               	movlw	8
  4657  001B26  6EDF               	movwf	indf2,c
  4658                           
  4659                           ;usb_device.c: 1515: pBDTEntryEP0OutNext->ADR = ((uint16_t)(&CtrlTrfData));
  4660  001B28  EE20 F002          	lfsr	2,2
  4661  001B2C  5015               	movf	_pBDTEntryEP0OutNext,w,c
  4662  001B2E  26D9               	addwf	fsr2l,f,c
  4663  001B30  5016               	movf	_pBDTEntryEP0OutNext+1,w,c
  4664  001B32  22DA               	addwfc	fsr2h,f,c
  4665  001B34  0E28               	movlw	40
  4666  001B36  6EDE               	movwf	postinc2,c
  4667  001B38  0E04               	movlw	4
  4668  001B3A  6EDD               	movwf	postdec2,c
  4669                           
  4670                           ;usb_device.c: 1516: pBDTEntryEP0OutNext->STAT.Val = 0x40|(0x08 & 0x08);
  4671  001B3C  C015  FFD9         	movff	_pBDTEntryEP0OutNext,fsr2l
  4672  001B40  C016  FFDA         	movff	_pBDTEntryEP0OutNext+1,fsr2h
  4673  001B44  0E48               	movlw	72
  4674  001B46  6EDF               	movwf	indf2,c
  4675                           
  4676                           ;usb_device.c: 1517: pBDTEntryEP0OutNext->STAT.Val |= 0x80;
  4677  001B48  C015  FFD9         	movff	_pBDTEntryEP0OutNext,fsr2l
  4678  001B4C  C016  FFDA         	movff	_pBDTEntryEP0OutNext+1,fsr2h
  4679  001B50  0E00               	movlw	0
  4680  001B52  8EDB               	bsf	plusw2,7,c
  4681                           
  4682                           ;usb_device.c: 1518: }
  4683  001B54  0012               	return	
  4684  001B56                     i2l2982:
  4685                           
  4686                           ;usb_device.c: 1519: else
  4687                           ;usb_device.c: 1520: {
  4688                           ;usb_device.c: 1523: if(SetupPkt.wLength < inPipes[0].wCount.Val)
  4689  001B56  5028               	movf	_inPipes+4,w,c	;volatile
  4690  001B58  0104               	movlb	4	; () banked
  4691  001B5A  5D26               	subwf	38,w,b	;volatile
  4692  001B5C  5029               	movf	_inPipes+5,w,c	;volatile
  4693  001B5E  0104               	movlb	4	; () banked
  4694  001B60  5927               	subwfb	39,w,b	;volatile
  4695  001B62  B0D8               	btfsc	status,0,c
  4696  001B64  D005               	goto	i2l2986
  4697                           
  4698                           ; BSR set to: 4
  4699                           ;usb_device.c: 1524: {
  4700                           ;usb_device.c: 1525: inPipes[0].wCount.Val = SetupPkt.wLength;
  4701  001B66  C426 F028          	movff	1062,_inPipes+4	;volatile
  4702  001B6A  C427 F029          	movff	1063,_inPipes+5	;volatile
  4703  001B6E  D000               	goto	i2l2986
  4704  001B70                     i2l2986:
  4705                           
  4706                           ; BSR set to: 4
  4707                           ;usb_device.c: 1526: }
  4708                           ;usb_device.c: 1527: USBCtrlTrfTxService();
  4709  001B70  EC99  F00B         	call	_USBCtrlTrfTxService	;wreg free
  4710                           
  4711                           ;usb_device.c: 1532: pBDTEntryIn[0]->ADR = ((uint16_t)(&CtrlTrfData));
  4712  001B74  EE20 F002          	lfsr	2,2
  4713  001B78  5009               	movf	_pBDTEntryIn,w,c
  4714  001B7A  26D9               	addwf	fsr2l,f,c
  4715  001B7C  500A               	movf	_pBDTEntryIn+1,w,c
  4716  001B7E  22DA               	addwfc	fsr2h,f,c
  4717  001B80  0E28               	movlw	40
  4718  001B82  6EDE               	movwf	postinc2,c
  4719  001B84  0E04               	movlw	4
  4720  001B86  6EDD               	movwf	postdec2,c
  4721                           
  4722                           ;usb_device.c: 1533: pBDTEntryIn[0]->STAT.Val = 0x40|(0x08 & 0x08);
  4723  001B88  C009  FFD9         	movff	_pBDTEntryIn,fsr2l
  4724  001B8C  C00A  FFDA         	movff	_pBDTEntryIn+1,fsr2h
  4725  001B90  0E48               	movlw	72
  4726  001B92  6EDF               	movwf	indf2,c
  4727                           
  4728                           ;usb_device.c: 1534: pBDTEntryIn[0]->STAT.Val |= 0x80;
  4729  001B94  C009  FFD9         	movff	_pBDTEntryIn,fsr2l
  4730  001B98  C00A  FFDA         	movff	_pBDTEntryIn+1,fsr2h
  4731  001B9C  0E00               	movlw	0
  4732  001B9E  8EDB               	bsf	plusw2,7,c
  4733  001BA0  0012               	return	
  4734  001BA2  0012               	return		;funcret
  4735  001BA4                     __end_of_USBCtrlEPAllowDataStage:
  4736                           	opt stack 0
  4737                           pclatu	equ	0xFFB
  4738                           pclath	equ	0xFFA
  4739                           tblptru	equ	0xFF8
  4740                           tblptrh	equ	0xFF7
  4741                           tblptrl	equ	0xFF6
  4742                           tablat	equ	0xFF5
  4743                           prodh	equ	0xFF4
  4744                           prodl	equ	0xFF3
  4745                           intcon	equ	0xFF2
  4746                           postinc0	equ	0xFEE
  4747                           fsr0h	equ	0xFEA
  4748                           fsr0l	equ	0xFE9
  4749                           wreg	equ	0xFE8
  4750                           indf1	equ	0xFE7
  4751                           fsr1h	equ	0xFE2
  4752                           fsr1l	equ	0xFE1
  4753                           indf2	equ	0xFDF
  4754                           postinc2	equ	0xFDE
  4755                           postdec2	equ	0xFDD
  4756                           plusw2	equ	0xFDB
  4757                           fsr2h	equ	0xFDA
  4758                           fsr2l	equ	0xFD9
  4759                           status	equ	0xFD8
  4760                           
  4761 ;; *************** function _USBCheckStdRequest *****************
  4762 ;; Defined at:
  4763 ;;		line 2703 in file "../../../../../../microchip/mla/v2015_08_10/framework/usb/src/usb_device.c"
  4764 ;; Parameters:    Size  Location     Type
  4765 ;;		None
  4766 ;; Auto vars:     Size  Location     Type
  4767 ;;		None
  4768 ;; Return value:  Size  Location     Type
  4769 ;;		None               void
  4770 ;; Registers used:
  4771 ;;		wreg, fsr0l, fsr0h, fsr2l, fsr2h, status,2, status,0, tblptrl, tblptrh, tblptru, prodl, prodh, cstack
  4772 ;; Tracked objects:
  4773 ;;		On entry : 0/0
  4774 ;;		On exit  : 0/0
  4775 ;;		Unchanged: 0/0
  4776 ;; Data sizes:     COMRAM   BANK0   BANK1   BANK2   BANK3   BANK4   BANK5   BANK6   BANK7
  4777 ;;      Params:         0       0       0       0       0       0       0       0       0
  4778 ;;      Locals:         0       0       0       0       0       0       0       0       0
  4779 ;;      Temps:          0       0       0       0       0       0       0       0       0
  4780 ;;      Totals:         0       0       0       0       0       0       0       0       0
  4781 ;;Total ram usage:        0 bytes
  4782 ;; Hardware stack levels used:    1
  4783 ;; Hardware stack levels required when called:    5
  4784 ;; This function calls:
  4785 ;;		_USBStdFeatureReqHandler
  4786 ;;		_USBStdGetDscHandler
  4787 ;;		_USBStdGetStatusHandler
  4788 ;;		_USBStdSetCfgHandler
  4789 ;;		_USER_USB_CALLBACK_EVENT_HANDLER
  4790 ;; This function is called by:
  4791 ;;		_USBCtrlTrfSetupHandler
  4792 ;; This function uses a non-reentrant model
  4793 ;;
  4794                           
  4795                           	psect	text26
  4796  001494                     __ptext26:
  4797                           	opt stack 0
  4798  001494                     _USBCheckStdRequest:
  4799                           	opt stack 19
  4800                           
  4801                           ;usb_device.c: 2705: if(SetupPkt.RequestType != (0x00>>5)) return;
  4802                           
  4803                           ;incstack = 0
  4804  001494  0104               	movlb	4	; () banked
  4805  001496  3920               	swapf	32,w,b	;volatile
  4806  001498  32E8               	rrcf	wreg,f,c
  4807  00149A  0B03               	andlw	3
  4808  00149C  0900               	iorlw	0
  4809  00149E  A4D8               	btfss	status,2,c
  4810  0014A0  0012               	return	
  4811  0014A2  D046               	goto	i2l3262
  4812                           
  4813                           ; BSR set to: 4
  4814  0014A4  0012               	return	
  4815                           
  4816                           ; BSR set to: 4
  4817                           ;usb_device.c: 2707: switch(SetupPkt.bRequest)
  4818  0014A6  D044               	goto	i2l3262
  4819  0014A8                     i2l619:
  4820                           
  4821                           ; BSR set to: 4
  4822                           ;usb_device.c: 2710: inPipes[0].info.bits.busy = 1;
  4823  0014A8  8E27               	bsf	_inPipes+3,7,c	;volatile
  4824                           
  4825                           ; BSR set to: 4
  4826                           ;usb_device.c: 2711: USBDeviceState = ADR_PENDING_STATE;
  4827  0014AA  0E08               	movlw	8
  4828  0014AC  6E1D               	movwf	_USBDeviceState,c	;volatile
  4829                           
  4830                           ;usb_device.c: 2713: break;
  4831  0014AE  0012               	return	
  4832  0014B0                     i2l3232:
  4833                           
  4834                           ; BSR set to: 4
  4835                           ;usb_device.c: 2715: USBStdGetDscHandler();
  4836  0014B0  EC39  F008         	call	_USBStdGetDscHandler	;wreg free
  4837                           
  4838                           ;usb_device.c: 2716: break;
  4839  0014B4  0012               	return	
  4840  0014B6                     i2l3234:
  4841                           
  4842                           ;usb_device.c: 2718: USBStdSetCfgHandler();
  4843  0014B6  EC2A  F00B         	call	_USBStdSetCfgHandler	;wreg free
  4844                           
  4845                           ;usb_device.c: 2719: break;
  4846  0014BA  0012               	return	
  4847  0014BC                     i2l3236:
  4848                           
  4849                           ;usb_device.c: 2721: inPipes[0].pSrc.bRam = (uint8_t*)&USBActiveConfiguration;
  4850  0014BC  0E2A               	movlw	low _USBActiveConfiguration
  4851  0014BE  6E24               	movwf	_inPipes,c	;volatile
  4852  0014C0  0E00               	movlw	high _USBActiveConfiguration
  4853  0014C2  6E25               	movwf	_inPipes+1,c	;volatile
  4854                           
  4855                           ;usb_device.c: 2722: inPipes[0].info.bits.ctrl_trf_mem = 0x01;
  4856  0014C4  8027               	bsf	_inPipes+3,0,c	;volatile
  4857                           
  4858                           ;usb_device.c: 2723: inPipes[0].wCount.v[0] = 1;
  4859  0014C6  0E01               	movlw	1
  4860  0014C8  6E28               	movwf	_inPipes+4,c	;volatile
  4861                           
  4862                           ;usb_device.c: 2724: inPipes[0].info.bits.busy = 1;
  4863  0014CA  8E27               	bsf	_inPipes+3,7,c	;volatile
  4864                           
  4865                           ;usb_device.c: 2725: break;
  4866  0014CC  0012               	return	
  4867  0014CE                     i2l3244:
  4868                           
  4869                           ;usb_device.c: 2727: USBStdGetStatusHandler();
  4870  0014CE  EC29  F00D         	call	_USBStdGetStatusHandler	;wreg free
  4871                           
  4872                           ;usb_device.c: 2728: break;
  4873  0014D2  0012               	return	
  4874                           
  4875                           ;usb_device.c: 2729: case 1:
  4876  0014D4  D000               	goto	i2l3246
  4877  0014D6                     i2l3246:
  4878                           
  4879                           ;usb_device.c: 2730: case 3:
  4880                           ;usb_device.c: 2731: USBStdFeatureReqHandler();
  4881  0014D6  EC64  F004         	call	_USBStdFeatureReqHandler	;wreg free
  4882                           
  4883                           ;usb_device.c: 2732: break;
  4884  0014DA  0012               	return	
  4885  0014DC                     i2l3248:
  4886                           
  4887                           ;usb_device.c: 2734: inPipes[0].pSrc.bRam = (uint8_t*)&USBAlternateInterface[SetupPkt.bI
      +                          ntfID];
  4888  0014DC  0104               	movlb	4	; () banked
  4889  0014DE  5124               	movf	36,w,b	;volatile
  4890  0014E0  0D01               	mullw	1
  4891  0014E2  0E2B               	movlw	low _USBAlternateInterface
  4892  0014E4  24F3               	addwf	prodl,w,c
  4893  0014E6  6E24               	movwf	_inPipes,c	;volatile
  4894  0014E8  0E00               	movlw	high _USBAlternateInterface
  4895  0014EA  20F4               	addwfc	prodh,w,c
  4896  0014EC  6E25               	movwf	_inPipes+1,c	;volatile
  4897                           
  4898                           ; BSR set to: 4
  4899                           ;usb_device.c: 2735: inPipes[0].info.bits.ctrl_trf_mem = 0x01;
  4900  0014EE  8027               	bsf	_inPipes+3,0,c	;volatile
  4901                           
  4902                           ; BSR set to: 4
  4903                           ;usb_device.c: 2736: inPipes[0].wCount.v[0] = 1;
  4904  0014F0  0E01               	movlw	1
  4905  0014F2  6E28               	movwf	_inPipes+4,c	;volatile
  4906                           
  4907                           ; BSR set to: 4
  4908                           ;usb_device.c: 2737: inPipes[0].info.bits.busy = 1;
  4909  0014F4  8E27               	bsf	_inPipes+3,7,c	;volatile
  4910                           
  4911                           ;usb_device.c: 2738: break;
  4912  0014F6  0012               	return	
  4913  0014F8                     i2l628:
  4914                           
  4915                           ; BSR set to: 4
  4916                           ;usb_device.c: 2740: inPipes[0].info.bits.busy = 1;
  4917  0014F8  8E27               	bsf	_inPipes+3,7,c	;volatile
  4918                           
  4919                           ; BSR set to: 4
  4920                           ;usb_device.c: 2741: USBAlternateInterface[SetupPkt.bIntfID] = SetupPkt.bAltID;
  4921  0014FA  0104               	movlb	4	; () banked
  4922  0014FC  5124               	movf	36,w,b	;volatile
  4923  0014FE  0D01               	mullw	1
  4924  001500  0E2B               	movlw	low _USBAlternateInterface
  4925  001502  24F3               	addwf	prodl,w,c
  4926  001504  6ED9               	movwf	fsr2l,c
  4927  001506  0E00               	movlw	high _USBAlternateInterface
  4928  001508  20F4               	addwfc	prodh,w,c
  4929  00150A  6EDA               	movwf	fsr2h,c
  4930  00150C  C422 FFDF          	movff	1058,indf2	;volatile
  4931                           
  4932                           ;usb_device.c: 2742: break;
  4933  001510  0012               	return	
  4934  001512                     i2l3258:
  4935                           
  4936                           ; BSR set to: 4
  4937                           ;usb_device.c: 2744: USER_USB_CALLBACK_EVENT_HANDLER(EVENT_SET_DESCRIPTOR,0,0);
  4938  001512  0E00               	movlw	0
  4939  001514  6E3A               	movwf	USER_USB_CALLBACK_EVENT_HANDLER@event+1,c
  4940  001516  0E02               	movlw	2
  4941  001518  6E39               	movwf	USER_USB_CALLBACK_EVENT_HANDLER@event,c
  4942  00151A  0E00               	movlw	0
  4943  00151C  6E3B               	movwf	USER_USB_CALLBACK_EVENT_HANDLER@pdata,c
  4944  00151E  0E00               	movlw	0
  4945  001520  6E3C               	movwf	USER_USB_CALLBACK_EVENT_HANDLER@pdata+1,c
  4946  001522  0E00               	movlw	0
  4947  001524  6E3E               	movwf	USER_USB_CALLBACK_EVENT_HANDLER@size+1,c
  4948  001526  0E00               	movlw	0
  4949  001528  6E3D               	movwf	USER_USB_CALLBACK_EVENT_HANDLER@size,c
  4950  00152A  ECEA  F00E         	call	_USER_USB_CALLBACK_EVENT_HANDLER	;wreg free
  4951                           
  4952                           ;usb_device.c: 2749: }
  4953                           
  4954                           ;usb_device.c: 2748: break;
  4955                           
  4956                           ;usb_device.c: 2747: default:
  4957                           
  4958                           ;usb_device.c: 2746: case 12:
  4959                           
  4960                           ;usb_device.c: 2745: break;
  4961  00152E  0012               	return	
  4962  001530                     i2l3262:
  4963  001530  0104               	movlb	4	; () banked
  4964  001532  5121               	movf	33,w,b	;volatile
  4965                           
  4966                           ; Switch size 1, requested type "space"
  4967                           ; Number of cases is 11, Range of values is 0 to 12
  4968                           ; switch strategies available:
  4969                           ; Name         Instructions Cycles
  4970                           ; simple_byte           34    18 (average)
  4971                           ;	Chosen strategy is simple_byte
  4972  001534  0A00               	xorlw	0	; case 0
  4973  001536  B4D8               	btfsc	status,2,c
  4974  001538  D7CA               	goto	i2l3244
  4975  00153A  0A01               	xorlw	1	; case 1
  4976  00153C  B4D8               	btfsc	status,2,c
  4977  00153E  D7CB               	goto	i2l3246
  4978  001540  0A02               	xorlw	2	; case 3
  4979  001542  B4D8               	btfsc	status,2,c
  4980  001544  D7C8               	goto	i2l3246
  4981  001546  0A06               	xorlw	6	; case 5
  4982  001548  B4D8               	btfsc	status,2,c
  4983  00154A  D7AE               	goto	i2l619
  4984  00154C  0A03               	xorlw	3	; case 6
  4985  00154E  B4D8               	btfsc	status,2,c
  4986  001550  D7AF               	goto	i2l3232
  4987  001552  0A01               	xorlw	1	; case 7
  4988  001554  B4D8               	btfsc	status,2,c
  4989  001556  D7DD               	goto	i2l3258
  4990  001558  0A0F               	xorlw	15	; case 8
  4991  00155A  B4D8               	btfsc	status,2,c
  4992  00155C  D7AF               	goto	i2l3236
  4993  00155E  0A01               	xorlw	1	; case 9
  4994  001560  B4D8               	btfsc	status,2,c
  4995  001562  D7A9               	goto	i2l3234
  4996  001564  0A03               	xorlw	3	; case 10
  4997  001566  B4D8               	btfsc	status,2,c
  4998  001568  D7B9               	goto	i2l3248
  4999  00156A  0A01               	xorlw	1	; case 11
  5000  00156C  B4D8               	btfsc	status,2,c
  5001  00156E  D7C4               	goto	i2l628
  5002  001570  0A07               	xorlw	7	; case 12
  5003  001572  0012               	return	
  5004                           
  5005                           ; BSR set to: 4
  5006  001574  0012               	return		;funcret
  5007  001576                     __end_of_USBCheckStdRequest:
  5008                           	opt stack 0
  5009                           pclatu	equ	0xFFB
  5010                           pclath	equ	0xFFA
  5011                           tblptru	equ	0xFF8
  5012                           tblptrh	equ	0xFF7
  5013                           tblptrl	equ	0xFF6
  5014                           tablat	equ	0xFF5
  5015                           prodh	equ	0xFF4
  5016                           prodl	equ	0xFF3
  5017                           intcon	equ	0xFF2
  5018                           postinc0	equ	0xFEE
  5019                           fsr0h	equ	0xFEA
  5020                           fsr0l	equ	0xFE9
  5021                           wreg	equ	0xFE8
  5022                           indf1	equ	0xFE7
  5023                           fsr1h	equ	0xFE2
  5024                           fsr1l	equ	0xFE1
  5025                           indf2	equ	0xFDF
  5026                           postinc2	equ	0xFDE
  5027                           postdec2	equ	0xFDD
  5028                           plusw2	equ	0xFDB
  5029                           fsr2h	equ	0xFDA
  5030                           fsr2l	equ	0xFD9
  5031                           status	equ	0xFD8
  5032                           
  5033 ;; *************** function _USBStdSetCfgHandler *****************
  5034 ;; Defined at:
  5035 ;;		line 1986 in file "../../../../../../microchip/mla/v2015_08_10/framework/usb/src/usb_device.c"
  5036 ;; Parameters:    Size  Location     Type
  5037 ;;		None
  5038 ;; Auto vars:     Size  Location     Type
  5039 ;;  i               1   20[COMRAM] unsigned char 
  5040 ;; Return value:  Size  Location     Type
  5041 ;;		None               void
  5042 ;; Registers used:
  5043 ;;		wreg, fsr2l, fsr2h, status,2, status,0, prodl, prodh, cstack
  5044 ;; Tracked objects:
  5045 ;;		On entry : 0/0
  5046 ;;		On exit  : 0/0
  5047 ;;		Unchanged: 0/0
  5048 ;; Data sizes:     COMRAM   BANK0   BANK1   BANK2   BANK3   BANK4   BANK5   BANK6   BANK7
  5049 ;;      Params:         0       0       0       0       0       0       0       0       0
  5050 ;;      Locals:         1       0       0       0       0       0       0       0       0
  5051 ;;      Temps:          0       0       0       0       0       0       0       0       0
  5052 ;;      Totals:         1       0       0       0       0       0       0       0       0
  5053 ;;Total ram usage:        1 bytes
  5054 ;; Hardware stack levels used:    1
  5055 ;; Hardware stack levels required when called:    4
  5056 ;; This function calls:
  5057 ;;		_USER_USB_CALLBACK_EVENT_HANDLER
  5058 ;;		i2_memset
  5059 ;; This function is called by:
  5060 ;;		_USBCheckStdRequest
  5061 ;; This function uses a non-reentrant model
  5062 ;;
  5063                           
  5064                           	psect	text27
  5065  001654                     __ptext27:
  5066                           	opt stack 0
  5067  001654                     _USBStdSetCfgHandler:
  5068                           	opt stack 19
  5069                           
  5070                           ;usb_device.c: 1988: uint8_t i;
  5071                           ;usb_device.c: 1991: inPipes[0].info.bits.busy = 1;
  5072                           
  5073                           ;incstack = 0
  5074  001654  8E27               	bsf	_inPipes+3,7,c	;volatile
  5075                           
  5076                           ;usb_device.c: 1994: memset((void*)&UEP1,0x00,(1));;
  5077  001656  0E6B               	movlw	107
  5078  001658  6E2D               	movwf	i2memset@p1,c
  5079  00165A  0E0F               	movlw	15
  5080  00165C  6E2E               	movwf	i2memset@p1+1,c
  5081  00165E  0E00               	movlw	0
  5082  001660  6E30               	movwf	i2memset@c+1,c
  5083  001662  0E00               	movlw	0
  5084  001664  6E2F               	movwf	i2memset@c,c
  5085  001666  0E00               	movlw	0
  5086  001668  6E32               	movwf	i2memset@n+1,c
  5087  00166A  0E01               	movlw	1
  5088  00166C  6E31               	movwf	i2memset@n,c
  5089  00166E  ECD4  F010         	call	i2_memset	;wreg free
  5090                           
  5091                           ;usb_device.c: 1997: memset((void*)&BDT[0], 0x00, sizeof(BDT));
  5092  001672  0E00               	movlw	0
  5093  001674  6E2D               	movwf	i2memset@p1,c
  5094  001676  0E04               	movlw	4
  5095  001678  6E2E               	movwf	i2memset@p1+1,c
  5096  00167A  0E00               	movlw	0
  5097  00167C  6E30               	movwf	i2memset@c+1,c
  5098  00167E  0E00               	movlw	0
  5099  001680  6E2F               	movwf	i2memset@c,c
  5100  001682  0E00               	movlw	0
  5101  001684  6E32               	movwf	i2memset@n+1,c
  5102  001686  0E20               	movlw	32
  5103  001688  6E31               	movwf	i2memset@n,c
  5104  00168A  ECD4  F010         	call	i2_memset	;wreg free
  5105                           
  5106                           ;usb_device.c: 2000: UCONbits.PPBRST = 1;
  5107  00168E  8C60               	bsf	3936,6,c	;volatile
  5108                           
  5109                           ;usb_device.c: 2005: for(i = 0; i < (uint8_t)(1+1u); i++)
  5110  001690  0E00               	movlw	0
  5111  001692  6E41               	movwf	USBStdSetCfgHandler@i,c
  5112  001694                     i2l3002:
  5113  001694  0E01               	movlw	1
  5114  001696  6441               	cpfsgt	USBStdSetCfgHandler@i,c
  5115  001698  D001               	goto	i2l3006
  5116  00169A  D016               	goto	i2l3012
  5117  00169C                     i2l3006:
  5118                           
  5119                           ;usb_device.c: 2006: {
  5120                           ;usb_device.c: 2007: ep_data_in[i].Val = 0u;
  5121  00169C  5041               	movf	USBStdSetCfgHandler@i,w,c
  5122  00169E  0D01               	mullw	1
  5123  0016A0  0E0F               	movlw	low _ep_data_in
  5124  0016A2  24F3               	addwf	prodl,w,c
  5125  0016A4  6ED9               	movwf	fsr2l,c
  5126  0016A6  0E00               	movlw	high _ep_data_in
  5127  0016A8  20F4               	addwfc	prodh,w,c
  5128  0016AA  6EDA               	movwf	fsr2h,c
  5129  0016AC  0E00               	movlw	0
  5130  0016AE  6EDF               	movwf	indf2,c
  5131                           
  5132                           ;usb_device.c: 2008: ep_data_out[i].Val = 0u;
  5133  0016B0  5041               	movf	USBStdSetCfgHandler@i,w,c
  5134  0016B2  0D01               	mullw	1
  5135  0016B4  0E11               	movlw	low _ep_data_out
  5136  0016B6  24F3               	addwf	prodl,w,c
  5137  0016B8  6ED9               	movwf	fsr2l,c
  5138  0016BA  0E00               	movlw	high _ep_data_out
  5139  0016BC  20F4               	addwfc	prodh,w,c
  5140  0016BE  6EDA               	movwf	fsr2h,c
  5141  0016C0  0E00               	movlw	0
  5142  0016C2  6EDF               	movwf	indf2,c
  5143  0016C4  2A41               	incf	USBStdSetCfgHandler@i,f,c
  5144  0016C6  D7E6               	goto	i2l3002
  5145  0016C8                     i2l3012:
  5146                           
  5147                           ;usb_device.c: 2009: }
  5148                           ;usb_device.c: 2012: memset((void*)&USBAlternateInterface,0x00,1);
  5149  0016C8  0E2B               	movlw	low _USBAlternateInterface
  5150  0016CA  6E2D               	movwf	i2memset@p1,c
  5151  0016CC  0E00               	movlw	high _USBAlternateInterface
  5152  0016CE  6E2E               	movwf	i2memset@p1+1,c
  5153  0016D0  0E00               	movlw	0
  5154  0016D2  6E30               	movwf	i2memset@c+1,c
  5155  0016D4  0E00               	movlw	0
  5156  0016D6  6E2F               	movwf	i2memset@c,c
  5157  0016D8  0E00               	movlw	0
  5158  0016DA  6E32               	movwf	i2memset@n+1,c
  5159  0016DC  0E01               	movlw	1
  5160  0016DE  6E31               	movwf	i2memset@n,c
  5161  0016E0  ECD4  F010         	call	i2_memset	;wreg free
  5162                           
  5163                           ;usb_device.c: 2015: UCONbits.PPBRST = 0;
  5164  0016E4  9C60               	bcf	3936,6,c	;volatile
  5165                           
  5166                           ;usb_device.c: 2017: pBDTEntryIn[0] = (volatile BDT_ENTRY*)&BDT[2];
  5167  0016E6  0E08               	movlw	8
  5168  0016E8  6E09               	movwf	_pBDTEntryIn,c
  5169  0016EA  0E04               	movlw	4
  5170  0016EC  6E0A               	movwf	_pBDTEntryIn+1,c
  5171                           
  5172                           ;usb_device.c: 2020: pBDTEntryEP0OutCurrent = (volatile BDT_ENTRY*)&BDT[0];
  5173  0016EE  0E00               	movlw	0
  5174  0016F0  6E13               	movwf	_pBDTEntryEP0OutCurrent,c
  5175  0016F2  0E04               	movlw	4
  5176  0016F4  6E14               	movwf	_pBDTEntryEP0OutCurrent+1,c
  5177                           
  5178                           ;usb_device.c: 2021: pBDTEntryEP0OutNext = pBDTEntryEP0OutCurrent;
  5179  0016F6  C013  F015         	movff	_pBDTEntryEP0OutCurrent,_pBDTEntryEP0OutNext
  5180  0016FA  C014  F016         	movff	_pBDTEntryEP0OutCurrent+1,_pBDTEntryEP0OutNext+1
  5181                           
  5182                           ;usb_device.c: 2024: USBActiveConfiguration = SetupPkt.bConfigurationValue;
  5183  0016FE  C422 F02A          	movff	1058,_USBActiveConfiguration	;volatile
  5184                           
  5185                           ;usb_device.c: 2027: if(USBActiveConfiguration == 0)
  5186  001702  502A               	movf	_USBActiveConfiguration,w,c	;volatile
  5187  001704  A4D8               	btfss	status,2,c
  5188  001706  D003               	goto	i2l3028
  5189                           
  5190                           ;usb_device.c: 2028: {
  5191                           ;usb_device.c: 2030: USBDeviceState = ADDRESS_STATE;
  5192  001708  0E10               	movlw	16
  5193  00170A  6E1D               	movwf	_USBDeviceState,c	;volatile
  5194                           
  5195                           ;usb_device.c: 2031: }
  5196  00170C  0012               	return	
  5197  00170E                     i2l3028:
  5198                           
  5199                           ;usb_device.c: 2032: else
  5200                           ;usb_device.c: 2033: {
  5201                           ;usb_device.c: 2035: USER_USB_CALLBACK_EVENT_HANDLER(EVENT_CONFIGURED,(void*)&USBActiveC
      +                          onfiguration,1);
  5202  00170E  0E00               	movlw	0
  5203  001710  6E3A               	movwf	USER_USB_CALLBACK_EVENT_HANDLER@event+1,c
  5204  001712  0E01               	movlw	1
  5205  001714  6E39               	movwf	USER_USB_CALLBACK_EVENT_HANDLER@event,c
  5206  001716  0E2A               	movlw	low _USBActiveConfiguration
  5207  001718  6E3B               	movwf	USER_USB_CALLBACK_EVENT_HANDLER@pdata,c
  5208  00171A  0E00               	movlw	high _USBActiveConfiguration
  5209  00171C  6E3C               	movwf	USER_USB_CALLBACK_EVENT_HANDLER@pdata+1,c
  5210  00171E  0E00               	movlw	0
  5211  001720  6E3E               	movwf	USER_USB_CALLBACK_EVENT_HANDLER@size+1,c
  5212  001722  0E01               	movlw	1
  5213  001724  6E3D               	movwf	USER_USB_CALLBACK_EVENT_HANDLER@size,c
  5214  001726  ECEA  F00E         	call	_USER_USB_CALLBACK_EVENT_HANDLER	;wreg free
  5215                           
  5216                           ;usb_device.c: 2040: USBDeviceState = CONFIGURED_STATE;
  5217  00172A  0E20               	movlw	32
  5218  00172C  6E1D               	movwf	_USBDeviceState,c	;volatile
  5219  00172E  0012               	return	
  5220  001730  0012               	return		;funcret
  5221  001732                     __end_of_USBStdSetCfgHandler:
  5222                           	opt stack 0
  5223                           pclatu	equ	0xFFB
  5224                           pclath	equ	0xFFA
  5225                           tblptru	equ	0xFF8
  5226                           tblptrh	equ	0xFF7
  5227                           tblptrl	equ	0xFF6
  5228                           tablat	equ	0xFF5
  5229                           prodh	equ	0xFF4
  5230                           prodl	equ	0xFF3
  5231                           intcon	equ	0xFF2
  5232                           postinc0	equ	0xFEE
  5233                           fsr0h	equ	0xFEA
  5234                           fsr0l	equ	0xFE9
  5235                           wreg	equ	0xFE8
  5236                           indf1	equ	0xFE7
  5237                           fsr1h	equ	0xFE2
  5238                           fsr1l	equ	0xFE1
  5239                           indf2	equ	0xFDF
  5240                           postinc2	equ	0xFDE
  5241                           postdec2	equ	0xFDD
  5242                           plusw2	equ	0xFDB
  5243                           fsr2h	equ	0xFDA
  5244                           fsr2l	equ	0xFD9
  5245                           status	equ	0xFD8
  5246                           
  5247 ;; *************** function i2_memset *****************
  5248 ;; Defined at:
  5249 ;;		line 8 in file "C:\Program Files (x86)\Microchip\xc8\v1.34\sources\common\memset.c"
  5250 ;; Parameters:    Size  Location     Type
  5251 ;;  p1              2    0[COMRAM] PTR void 
  5252 ;;		 -> USBAlternateInterface(1), BDT(32), UEP1(1), 
  5253 ;;  c               2    2[COMRAM] int 
  5254 ;;  n               2    4[COMRAM] unsigned int 
  5255 ;; Auto vars:     Size  Location     Type
  5256 ;;  memset          2    6[COMRAM] PTR unsigned char 
  5257 ;;		 -> USBAlternateInterface(1), BDT(32), UEP1(1), 
  5258 ;; Return value:  Size  Location     Type
  5259 ;;                  2    0[COMRAM] PTR void 
  5260 ;; Registers used:
  5261 ;;		wreg, fsr2l, fsr2h, status,2, status,0
  5262 ;; Tracked objects:
  5263 ;;		On entry : 0/0
  5264 ;;		On exit  : 0/0
  5265 ;;		Unchanged: 0/0
  5266 ;; Data sizes:     COMRAM   BANK0   BANK1   BANK2   BANK3   BANK4   BANK5   BANK6   BANK7
  5267 ;;      Params:         6       0       0       0       0       0       0       0       0
  5268 ;;      Locals:         2       0       0       0       0       0       0       0       0
  5269 ;;      Temps:          0       0       0       0       0       0       0       0       0
  5270 ;;      Totals:         8       0       0       0       0       0       0       0       0
  5271 ;;Total ram usage:        8 bytes
  5272 ;; Hardware stack levels used:    1
  5273 ;; This function calls:
  5274 ;;		Nothing
  5275 ;; This function is called by:
  5276 ;;		_USBStdSetCfgHandler
  5277 ;;		i2_USBDeviceInit
  5278 ;; This function uses a non-reentrant model
  5279 ;;
  5280                           
  5281                           	psect	text28
  5282  0021A8                     __ptext28:
  5283                           	opt stack 0
  5284  0021A8                     i2_memset:
  5285                           	opt stack 25
  5286                           
  5287                           ;incstack = 0
  5288  0021A8  C02D  F033         	movff	i2memset@p1,i2memset@p
  5289  0021AC  C02E  F034         	movff	i2memset@p1+1,i2memset@p+1
  5290  0021B0  D009               	goto	i2l2970
  5291  0021B2                     i2l2966:
  5292  0021B2  C033  FFD9         	movff	i2memset@p,fsr2l
  5293  0021B6  C034  FFDA         	movff	i2memset@p+1,fsr2h
  5294  0021BA  C02F  FFDF         	movff	i2memset@c,indf2
  5295  0021BE  4A33               	infsnz	i2memset@p,f,c
  5296  0021C0  2A34               	incf	i2memset@p+1,f,c
  5297  0021C2  D000               	goto	i2l2970
  5298  0021C4                     i2l2970:
  5299  0021C4  0631               	decf	i2memset@n,f,c
  5300  0021C6  A0D8               	btfss	status,0,c
  5301  0021C8  0632               	decf	i2memset@n+1,f,c
  5302  0021CA  2831               	incf	i2memset@n,w,c
  5303  0021CC  E1F2               	bnz	i2l2966
  5304  0021CE  2832               	incf	i2memset@n+1,w,c
  5305  0021D0  A4D8               	btfss	status,2,c
  5306  0021D2  D7EF               	goto	i2l2966
  5307                           
  5308                           ;	Return value of i2_memset is never used
  5309  0021D4  0012               	return		;funcret
  5310  0021D6                     __end_ofi2_memset:
  5311                           	opt stack 0
  5312                           pclatu	equ	0xFFB
  5313                           pclath	equ	0xFFA
  5314                           tblptru	equ	0xFF8
  5315                           tblptrh	equ	0xFF7
  5316                           tblptrl	equ	0xFF6
  5317                           tablat	equ	0xFF5
  5318                           prodh	equ	0xFF4
  5319                           prodl	equ	0xFF3
  5320                           intcon	equ	0xFF2
  5321                           postinc0	equ	0xFEE
  5322                           fsr0h	equ	0xFEA
  5323                           fsr0l	equ	0xFE9
  5324                           wreg	equ	0xFE8
  5325                           indf1	equ	0xFE7
  5326                           fsr1h	equ	0xFE2
  5327                           fsr1l	equ	0xFE1
  5328                           indf2	equ	0xFDF
  5329                           postinc2	equ	0xFDE
  5330                           postdec2	equ	0xFDD
  5331                           plusw2	equ	0xFDB
  5332                           fsr2h	equ	0xFDA
  5333                           fsr2l	equ	0xFD9
  5334                           status	equ	0xFD8
  5335                           
  5336 ;; *************** function _USBStdGetStatusHandler *****************
  5337 ;; Defined at:
  5338 ;;		line 2147 in file "../../../../../../microchip/mla/v2015_08_10/framework/usb/src/usb_device.c"
  5339 ;; Parameters:    Size  Location     Type
  5340 ;;		None
  5341 ;; Auto vars:     Size  Location     Type
  5342 ;;  p               2    1[COMRAM] PTR struct __BDT
  5343 ;;		 -> BDT(32), NULL(0), 
  5344 ;; Return value:  Size  Location     Type
  5345 ;;		None               void
  5346 ;; Registers used:
  5347 ;;		wreg, fsr2l, fsr2h, status,2, status,0, prodl, prodh
  5348 ;; Tracked objects:
  5349 ;;		On entry : 0/0
  5350 ;;		On exit  : 0/0
  5351 ;;		Unchanged: 0/0
  5352 ;; Data sizes:     COMRAM   BANK0   BANK1   BANK2   BANK3   BANK4   BANK5   BANK6   BANK7
  5353 ;;      Params:         0       0       0       0       0       0       0       0       0
  5354 ;;      Locals:         2       0       0       0       0       0       0       0       0
  5355 ;;      Temps:          1       0       0       0       0       0       0       0       0
  5356 ;;      Totals:         3       0       0       0       0       0       0       0       0
  5357 ;;Total ram usage:        3 bytes
  5358 ;; Hardware stack levels used:    1
  5359 ;; This function calls:
  5360 ;;		Nothing
  5361 ;; This function is called by:
  5362 ;;		_USBCheckStdRequest
  5363 ;; This function uses a non-reentrant model
  5364 ;;
  5365                           
  5366                           	psect	text29
  5367  001A52                     __ptext29:
  5368                           	opt stack 0
  5369  001A52                     _USBStdGetStatusHandler:
  5370                           	opt stack 23
  5371                           
  5372                           ;usb_device.c: 2149: CtrlTrfData[0] = 0;
  5373                           
  5374                           ;incstack = 0
  5375  001A52  0E00               	movlw	0
  5376  001A54  0104               	movlb	4	; () banked
  5377  001A56  6F28               	movwf	40,b	;volatile
  5378                           
  5379                           ;usb_device.c: 2150: CtrlTrfData[1] = 0;
  5380  001A58  0E00               	movlw	0
  5381  001A5A  0104               	movlb	4	; () banked
  5382  001A5C  6F29               	movwf	41,b	;volatile
  5383                           
  5384                           ;usb_device.c: 2152: switch(SetupPkt.Recipient)
  5385  001A5E  D03D               	goto	i2l3084
  5386  001A60                     i2l557:
  5387                           
  5388                           ; BSR set to: 4
  5389                           ;usb_device.c: 2155: inPipes[0].info.bits.busy = 1;
  5390  001A60  8E27               	bsf	_inPipes+3,7,c	;volatile
  5391                           
  5392                           ;usb_device.c: 2160: if(0 == 1)
  5393  001A62  D003               	goto	i2l3068
  5394                           
  5395                           ; BSR set to: 4
  5396                           ;usb_device.c: 2161: {
  5397                           ;usb_device.c: 2162: CtrlTrfData[0]|=0x01;
  5398  001A64  0104               	movlb	4	; () banked
  5399  001A66  8128               	bsf	40,0,b	;volatile
  5400  001A68  D000               	goto	i2l3068
  5401  001A6A                     i2l3068:
  5402                           
  5403                           ; BSR set to: 4
  5404                           ;usb_device.c: 2163: }
  5405                           ;usb_device.c: 2165: if(RemoteWakeup == 1)
  5406  001A6A  0418               	decf	_RemoteWakeup,w,c	;volatile
  5407  001A6C  A4D8               	btfss	status,2,c
  5408  001A6E  D041               	goto	i2l560
  5409                           
  5410                           ; BSR set to: 4
  5411                           ;usb_device.c: 2166: {
  5412                           ;usb_device.c: 2167: CtrlTrfData[0]|=0x02;
  5413  001A70  0104               	movlb	4	; () banked
  5414  001A72  8328               	bsf	40,1,b	;volatile
  5415                           
  5416                           ; BSR set to: 4
  5417                           ;usb_device.c: 2168: }
  5418                           ;usb_device.c: 2169: break;
  5419  001A74  D03E               	goto	i2l560
  5420  001A76                     i2l561:
  5421                           
  5422                           ; BSR set to: 4
  5423                           ;usb_device.c: 2171: inPipes[0].info.bits.busy = 1;
  5424  001A76  8E27               	bsf	_inPipes+3,7,c	;volatile
  5425                           
  5426                           ;usb_device.c: 2172: break;
  5427  001A78  D03C               	goto	i2l560
  5428  001A7A                     i2l562:
  5429                           
  5430                           ; BSR set to: 4
  5431                           ;usb_device.c: 2174: inPipes[0].info.bits.busy = 1;
  5432  001A7A  8E27               	bsf	_inPipes+3,7,c	;volatile
  5433                           
  5434                           ;usb_device.c: 2178: {
  5435                           ;usb_device.c: 2179: BDT_ENTRY *p;
  5436                           ;usb_device.c: 2181: if(SetupPkt.EPDir == 0)
  5437  001A7C  0104               	movlb	4	; () banked
  5438  001A7E  BF24               	btfsc	36,7,b	;volatile
  5439  001A80  D00B               	goto	i2l3074
  5440                           
  5441                           ; BSR set to: 4
  5442                           ;usb_device.c: 2182: {
  5443                           ;usb_device.c: 2183: p = (BDT_ENTRY*)pBDTEntryOut[SetupPkt.EPNum];
  5444  001A82  0104               	movlb	4	; () banked
  5445  001A84  5124               	movf	36,w,b	;volatile
  5446  001A86  0B0F               	andlw	15
  5447  001A88  6E2D               	movwf	??_USBStdGetStatusHandler& (0+255),c
  5448  001A8A  502D               	movf	??_USBStdGetStatusHandler,w,c
  5449  001A8C  0D02               	mullw	2
  5450  001A8E  0E64               	movlw	low _pBDTEntryOut
  5451  001A90  24F3               	addwf	prodl,w,c
  5452  001A92  6ED9               	movwf	fsr2l,c
  5453  001A94  0E00               	movlw	high _pBDTEntryOut
  5454  001A96  D00A               	goto	L6
  5455  001A98                     i2l3074:
  5456                           
  5457                           ; BSR set to: 4
  5458                           ;usb_device.c: 2185: else
  5459                           ;usb_device.c: 2186: {
  5460                           ;usb_device.c: 2187: p = (BDT_ENTRY*)pBDTEntryIn[SetupPkt.EPNum];
  5461  001A98  0104               	movlb	4	; () banked
  5462  001A9A  5124               	movf	36,w,b	;volatile
  5463  001A9C  0B0F               	andlw	15
  5464  001A9E  6E2D               	movwf	??_USBStdGetStatusHandler& (0+255),c
  5465  001AA0  502D               	movf	??_USBStdGetStatusHandler,w,c
  5466  001AA2  0D02               	mullw	2
  5467  001AA4  0E09               	movlw	low _pBDTEntryIn
  5468  001AA6  24F3               	addwf	prodl,w,c
  5469  001AA8  6ED9               	movwf	fsr2l,c
  5470  001AAA  0E00               	movlw	high _pBDTEntryIn
  5471  001AAC                     L6:
  5472  001AAC  20F4               	addwfc	prodh,w,c
  5473  001AAE  6EDA               	movwf	fsr2h,c
  5474  001AB0  CFDE F02E          	movff	postinc2,USBStdGetStatusHandler@p
  5475  001AB4  CFDD F02F          	movff	postdec2,USBStdGetStatusHandler@p+1
  5476  001AB8  D000               	goto	i2l3076
  5477  001ABA                     i2l3076:
  5478                           
  5479                           ; BSR set to: 4
  5480                           ;usb_device.c: 2188: }
  5481                           ;usb_device.c: 2190: if((p->STAT.UOWN == 1) && (p->STAT.BSTALL == 1))
  5482  001ABA  C02E  FFD9         	movff	USBStdGetStatusHandler@p,fsr2l
  5483  001ABE  C02F  FFDA         	movff	USBStdGetStatusHandler@p+1,fsr2h
  5484  001AC2  AEDF               	btfss	indf2,7,c
  5485  001AC4  D016               	goto	i2l560
  5486                           
  5487                           ; BSR set to: 4
  5488  001AC6  C02E  FFD9         	movff	USBStdGetStatusHandler@p,fsr2l
  5489  001ACA  C02F  FFDA         	movff	USBStdGetStatusHandler@p+1,fsr2h
  5490  001ACE  A4DF               	btfss	indf2,2,c
  5491  001AD0  D010               	goto	i2l560
  5492                           
  5493                           ; BSR set to: 4
  5494                           ;usb_device.c: 2191: CtrlTrfData[0]=0x01;
  5495  001AD2  0E01               	movlw	1
  5496  001AD4  0104               	movlb	4	; () banked
  5497  001AD6  6F28               	movwf	40,b	;volatile
  5498                           
  5499                           ; BSR set to: 4
  5500                           ;usb_device.c: 2193: }
  5501                           ;usb_device.c: 2194: }
  5502                           
  5503                           ; BSR set to: 4
  5504                           ;usb_device.c: 2192: break;
  5505  001AD8  D00C               	goto	i2l560
  5506  001ADA                     i2l3084:
  5507                           
  5508                           ; BSR set to: 4
  5509  001ADA  0104               	movlb	4	; () banked
  5510  001ADC  5120               	movf	32,w,b	;volatile
  5511  001ADE  0B1F               	andlw	31
  5512                           
  5513                           ; Switch size 1, requested type "space"
  5514                           ; Number of cases is 3, Range of values is 0 to 2
  5515                           ; switch strategies available:
  5516                           ; Name         Instructions Cycles
  5517                           ; simple_byte           10     6 (average)
  5518                           ;	Chosen strategy is simple_byte
  5519  001AE0  0A00               	xorlw	0	; case 0
  5520  001AE2  B4D8               	btfsc	status,2,c
  5521  001AE4  D7BD               	goto	i2l557
  5522  001AE6  0A01               	xorlw	1	; case 1
  5523  001AE8  B4D8               	btfsc	status,2,c
  5524  001AEA  D7C5               	goto	i2l561
  5525  001AEC  0A03               	xorlw	3	; case 2
  5526  001AEE  B4D8               	btfsc	status,2,c
  5527  001AF0  D7C4               	goto	i2l562
  5528  001AF2                     i2l560:
  5529                           
  5530                           ; BSR set to: 4
  5531                           ;usb_device.c: 2196: if(inPipes[0].info.bits.busy == 1)
  5532  001AF2  AE27               	btfss	_inPipes+3,7,c	;volatile
  5533  001AF4  0012               	return	
  5534                           
  5535                           ; BSR set to: 4
  5536                           ;usb_device.c: 2197: {
  5537                           ;usb_device.c: 2198: inPipes[0].pSrc.bRam = (uint8_t*)&CtrlTrfData;
  5538  001AF6  0E28               	movlw	40
  5539  001AF8  6E24               	movwf	_inPipes,c	;volatile
  5540  001AFA  0E04               	movlw	4
  5541  001AFC  6E25               	movwf	_inPipes+1,c	;volatile
  5542                           
  5543                           ; BSR set to: 4
  5544                           ;usb_device.c: 2199: inPipes[0].info.bits.ctrl_trf_mem = 0x01;
  5545  001AFE  8027               	bsf	_inPipes+3,0,c	;volatile
  5546                           
  5547                           ; BSR set to: 4
  5548                           ;usb_device.c: 2200: inPipes[0].wCount.v[0] = 2;
  5549  001B00  0E02               	movlw	2
  5550  001B02  6E28               	movwf	_inPipes+4,c	;volatile
  5551  001B04  0012               	return	
  5552                           
  5553                           ; BSR set to: 4
  5554                           
  5555                           ; BSR set to: 4
  5556  001B06  0012               	return		;funcret
  5557  001B08                     __end_of_USBStdGetStatusHandler:
  5558                           	opt stack 0
  5559                           pclatu	equ	0xFFB
  5560                           pclath	equ	0xFFA
  5561                           tblptru	equ	0xFF8
  5562                           tblptrh	equ	0xFF7
  5563                           tblptrl	equ	0xFF6
  5564                           tablat	equ	0xFF5
  5565                           prodh	equ	0xFF4
  5566                           prodl	equ	0xFF3
  5567                           intcon	equ	0xFF2
  5568                           postinc0	equ	0xFEE
  5569                           fsr0h	equ	0xFEA
  5570                           fsr0l	equ	0xFE9
  5571                           wreg	equ	0xFE8
  5572                           indf1	equ	0xFE7
  5573                           fsr1h	equ	0xFE2
  5574                           fsr1l	equ	0xFE1
  5575                           indf2	equ	0xFDF
  5576                           postinc2	equ	0xFDE
  5577                           postdec2	equ	0xFDD
  5578                           plusw2	equ	0xFDB
  5579                           fsr2h	equ	0xFDA
  5580                           fsr2l	equ	0xFD9
  5581                           status	equ	0xFD8
  5582                           
  5583 ;; *************** function _USBStdGetDscHandler *****************
  5584 ;; Defined at:
  5585 ;;		line 2061 in file "../../../../../../microchip/mla/v2015_08_10/framework/usb/src/usb_device.c"
  5586 ;; Parameters:    Size  Location     Type
  5587 ;;		None
  5588 ;; Auto vars:     Size  Location     Type
  5589 ;;		None
  5590 ;; Return value:  Size  Location     Type
  5591 ;;		None               void
  5592 ;; Registers used:
  5593 ;;		wreg, fsr0l, fsr0h, status,2, status,0, tblptrl, tblptrh, tblptru, prodl, prodh
  5594 ;; Tracked objects:
  5595 ;;		On entry : 0/0
  5596 ;;		On exit  : 0/0
  5597 ;;		Unchanged: 0/0
  5598 ;; Data sizes:     COMRAM   BANK0   BANK1   BANK2   BANK3   BANK4   BANK5   BANK6   BANK7
  5599 ;;      Params:         0       0       0       0       0       0       0       0       0
  5600 ;;      Locals:         0       0       0       0       0       0       0       0       0
  5601 ;;      Temps:          2       0       0       0       0       0       0       0       0
  5602 ;;      Totals:         2       0       0       0       0       0       0       0       0
  5603 ;;Total ram usage:        2 bytes
  5604 ;; Hardware stack levels used:    1
  5605 ;; This function calls:
  5606 ;;		Nothing
  5607 ;; This function is called by:
  5608 ;;		_USBCheckStdRequest
  5609 ;; This function uses a non-reentrant model
  5610 ;;
  5611                           
  5612                           	psect	text30
  5613  001072                     __ptext30:
  5614                           	opt stack 0
  5615  001072                     _USBStdGetDscHandler:
  5616                           	opt stack 23
  5617                           
  5618                           ;usb_device.c: 2063: if(SetupPkt.bmRequestType == 0x80)
  5619                           
  5620                           ; BSR set to: 4
  5621                           ;incstack = 0
  5622  001072  0E80               	movlw	128
  5623  001074  0104               	movlb	4	; () banked
  5624  001076  1920               	xorwf	32,w,b	;volatile
  5625  001078  A4D8               	btfss	status,2,c
  5626  00107A  0012               	return	
  5627                           
  5628                           ; BSR set to: 4
  5629                           ;usb_device.c: 2064: {
  5630                           ;usb_device.c: 2065: inPipes[0].info.Val = 0x00 | 0x80 | 0x40;
  5631  00107C  0EC0               	movlw	192
  5632  00107E  6E27               	movwf	_inPipes+3,c	;volatile
  5633                           
  5634                           ;usb_device.c: 2067: switch(SetupPkt.bDescriptorType)
  5635  001080  D07C               	goto	i2l3062
  5636  001082                     i2l3036:
  5637                           
  5638                           ; BSR set to: 4
  5639                           ;usb_device.c: 2073: inPipes[0].pSrc.bRom = (const uint8_t*)&device_dsc;
  5640  001082  0EB1               	movlw	low _device_dsc
  5641  001084  6E24               	movwf	_inPipes,c	;volatile
  5642  001086  0E08               	movlw	high _device_dsc
  5643  001088  6E25               	movwf	_inPipes+1,c	;volatile
  5644                           
  5645                           ; BSR set to: 4
  5646                           ;usb_device.c: 2075: inPipes[0].wCount.Val = sizeof(device_dsc);
  5647  00108A  0E00               	movlw	0
  5648  00108C  6E29               	movwf	_inPipes+5,c	;volatile
  5649  00108E  0E12               	movlw	18
  5650  001090  6E28               	movwf	_inPipes+4,c	;volatile
  5651                           
  5652                           ;usb_device.c: 2076: break;
  5653  001092  0012               	return	
  5654  001094                     i2l3040:
  5655                           
  5656                           ; BSR set to: 4
  5657                           ;usb_device.c: 2081: if(SetupPkt.bDscIndex < 1)
  5658  001094  0104               	movlb	4	; () banked
  5659  001096  5122               	movf	34,w,b	;volatile
  5660  001098  A4D8               	btfss	status,2,c
  5661  00109A  D03E               	goto	i2l3048
  5662                           
  5663                           ; BSR set to: 4
  5664                           ;usb_device.c: 2082: {
  5665                           ;usb_device.c: 2086: inPipes[0].pSrc.bRom = *(USB_CD_Ptr+SetupPkt.bDscIndex);
  5666  00109C  0104               	movlb	4	; () banked
  5667  00109E  5122               	movf	34,w,b	;volatile
  5668  0010A0  0D02               	mullw	2
  5669  0010A2  0E07               	movlw	low _USB_CD_Ptr
  5670  0010A4  24F3               	addwf	prodl,w,c
  5671  0010A6  6EF6               	movwf	tblptrl,c
  5672  0010A8  0E08               	movlw	high _USB_CD_Ptr
  5673  0010AA  20F4               	addwfc	prodh,w,c
  5674  0010AC  6EF7               	movwf	tblptrh,c
  5675  0010AE                     	if	0	;There are less than 3 active tblptr bytes
  5676  0010AE                     	endif
  5677  0010AE  0009               	tblrd		*+
  5678  0010B0  CFF5 F024          	movff	tablat,_inPipes	;volatile
  5679  0010B4  000A               	tblrd		*-
  5680  0010B6  CFF5 F025          	movff	tablat,_inPipes+1	;volatile
  5681                           
  5682                           ; BSR set to: 4
  5683                           ;usb_device.c: 2092: inPipes[0].wCount.byte.LB = *(inPipes[0].pSrc.bRom+2);
  5684  0010BA  0E02               	movlw	2
  5685  0010BC  2424               	addwf	_inPipes,w,c	;volatile
  5686  0010BE  6E2D               	movwf	??_USBStdGetDscHandler& (0+255),c
  5687  0010C0  0E00               	movlw	0
  5688  0010C2  2025               	addwfc	_inPipes+1,w,c	;volatile
  5689  0010C4  6E2E               	movwf	(??_USBStdGetDscHandler+1)& (0+255),c
  5690  0010C6  C02D  FFF6         	movff	??_USBStdGetDscHandler,tblptrl
  5691  0010CA  C02E  FFF7         	movff	??_USBStdGetDscHandler+1,tblptrh
  5692  0010CE  6AF8               	clrf	tblptru,c
  5693  0010D0  0E07               	movlw	(high __ramtop+-1)
  5694  0010D2  64F7               	cpfsgt	tblptrh,c
  5695  0010D4  D003               	bra	i2u193_47
  5696  0010D6  0008               	tblrd		*
  5697  0010D8  50F5               	movf	tablat,w,c
  5698  0010DA  D005               	bra	i2u193_40
  5699  0010DC                     i2u193_47:
  5700  0010DC  CFF6 FFE9          	movff	tblptrl,fsr0l
  5701  0010E0  CFF7 FFEA          	movff	tblptrh,fsr0h
  5702  0010E4  50EF               	movf	indf0,w,c
  5703  0010E6                     i2u193_40:
  5704  0010E6  6E28               	movwf	_inPipes+4,c	;volatile
  5705                           
  5706                           ;usb_device.c: 2093: inPipes[0].wCount.byte.HB = *(inPipes[0].pSrc.bRom+3);
  5707  0010E8  0E03               	movlw	3
  5708  0010EA  2424               	addwf	_inPipes,w,c	;volatile
  5709  0010EC  6E2D               	movwf	??_USBStdGetDscHandler& (0+255),c
  5710  0010EE  0E00               	movlw	0
  5711  0010F0  2025               	addwfc	_inPipes+1,w,c	;volatile
  5712  0010F2  6E2E               	movwf	(??_USBStdGetDscHandler+1)& (0+255),c
  5713  0010F4  C02D  FFF6         	movff	??_USBStdGetDscHandler,tblptrl
  5714  0010F8  C02E  FFF7         	movff	??_USBStdGetDscHandler+1,tblptrh
  5715  0010FC  6AF8               	clrf	tblptru,c
  5716  0010FE  0E07               	movlw	(high __ramtop+-1)
  5717  001100  64F7               	cpfsgt	tblptrh,c
  5718  001102  D003               	bra	i2u194_47
  5719  001104  0008               	tblrd		*
  5720  001106  50F5               	movf	tablat,w,c
  5721  001108  D005               	bra	i2u194_40
  5722  00110A                     i2u194_47:
  5723  00110A  CFF6 FFE9          	movff	tblptrl,fsr0l
  5724  00110E  CFF7 FFEA          	movff	tblptrh,fsr0h
  5725  001112  50EF               	movf	indf0,w,c
  5726  001114                     i2u194_40:
  5727  001114  6E29               	movwf	_inPipes+5,c	;volatile
  5728                           
  5729                           ;usb_device.c: 2094: }
  5730  001116  0012               	return	
  5731  001118                     i2l3048:
  5732                           
  5733                           ;usb_device.c: 2095: else
  5734                           ;usb_device.c: 2096: {
  5735                           ;usb_device.c: 2097: inPipes[0].info.Val = 0;
  5736  001118  0E00               	movlw	0
  5737  00111A  6E27               	movwf	_inPipes+3,c	;volatile
  5738                           
  5739                           ;usb_device.c: 2098: }
  5740                           ;usb_device.c: 2099: break;
  5741  00111C  0012               	return	
  5742  00111E                     i2l3050:
  5743                           
  5744                           ;usb_device.c: 2104: if(SetupPkt.bDscIndex<3)
  5745  00111E  0E03               	movlw	3
  5746  001120  0104               	movlb	4	; () banked
  5747  001122  6122               	cpfslt	34,b	;volatile
  5748  001124  D024               	goto	i2l3056
  5749                           
  5750                           ; BSR set to: 4
  5751                           ;usb_device.c: 2105: {
  5752                           ;usb_device.c: 2107: inPipes[0].pSrc.bRom = *(USB_SD_Ptr+SetupPkt.bDscIndex);
  5753  001126  0104               	movlb	4	; () banked
  5754  001128  5122               	movf	34,w,b	;volatile
  5755  00112A  0D02               	mullw	2
  5756  00112C  0E01               	movlw	low _USB_SD_Ptr
  5757  00112E  24F3               	addwf	prodl,w,c
  5758  001130  6EF6               	movwf	tblptrl,c
  5759  001132  0E08               	movlw	high _USB_SD_Ptr
  5760  001134  20F4               	addwfc	prodh,w,c
  5761  001136  6EF7               	movwf	tblptrh,c
  5762  001138                     	if	0	;There are less than 3 active tblptr bytes
  5763  001138                     	endif
  5764  001138  0009               	tblrd		*+
  5765  00113A  CFF5 F024          	movff	tablat,_inPipes	;volatile
  5766  00113E  000A               	tblrd		*-
  5767  001140  CFF5 F025          	movff	tablat,_inPipes+1	;volatile
  5768                           
  5769                           ; BSR set to: 4
  5770                           ;usb_device.c: 2109: inPipes[0].wCount.Val = *inPipes[0].pSrc.bRom;
  5771  001144  C024  FFF6         	movff	_inPipes,tblptrl	;volatile
  5772  001148  C025  FFF7         	movff	_inPipes+1,tblptrh	;volatile
  5773  00114C  6AF8               	clrf	tblptru,c
  5774  00114E  0E07               	movlw	(high __ramtop+-1)
  5775  001150  64F7               	cpfsgt	tblptrh,c
  5776  001152  D003               	bra	i2u196_47
  5777  001154  0008               	tblrd		*
  5778  001156  50F5               	movf	tablat,w,c
  5779  001158  D005               	bra	i2u196_40
  5780  00115A                     i2u196_47:
  5781  00115A  CFF6 FFE9          	movff	tblptrl,fsr0l
  5782  00115E  CFF7 FFEA          	movff	tblptrh,fsr0h
  5783  001162  50EF               	movf	indf0,w,c
  5784  001164                     i2u196_40:
  5785  001164  6E2D               	movwf	??_USBStdGetDscHandler& (0+255),c
  5786  001166  502D               	movf	??_USBStdGetDscHandler,w,c
  5787  001168  6E28               	movwf	_inPipes+4,c	;volatile
  5788  00116A  6A29               	clrf	_inPipes+5,c	;volatile
  5789                           
  5790                           ;usb_device.c: 2110: }
  5791  00116C  0012               	return	
  5792  00116E                     i2l3056:
  5793                           
  5794                           ;usb_device.c: 2120: else
  5795                           ;usb_device.c: 2121: {
  5796                           ;usb_device.c: 2122: inPipes[0].info.Val = 0;
  5797  00116E  0E00               	movlw	0
  5798  001170  6E27               	movwf	_inPipes+3,c	;volatile
  5799                           
  5800                           ;usb_device.c: 2123: }
  5801                           ;usb_device.c: 2124: break;
  5802  001172  0012               	return	
  5803  001174                     i2l3058:
  5804                           
  5805                           ;usb_device.c: 2126: inPipes[0].info.Val = 0;
  5806  001174  0E00               	movlw	0
  5807  001176  6E27               	movwf	_inPipes+3,c	;volatile
  5808                           
  5809                           ;usb_device.c: 2128: }
  5810                           
  5811                           ;usb_device.c: 2127: break;
  5812  001178  0012               	return	
  5813  00117A                     i2l3062:
  5814  00117A  0104               	movlb	4	; () banked
  5815  00117C  5123               	movf	35,w,b	;volatile
  5816                           
  5817                           ; Switch size 1, requested type "space"
  5818                           ; Number of cases is 3, Range of values is 1 to 3
  5819                           ; switch strategies available:
  5820                           ; Name         Instructions Cycles
  5821                           ; simple_byte           10     6 (average)
  5822                           ;	Chosen strategy is simple_byte
  5823  00117E  0A01               	xorlw	1	; case 1
  5824  001180  B4D8               	btfsc	status,2,c
  5825  001182  D77F               	goto	i2l3036
  5826  001184  0A03               	xorlw	3	; case 2
  5827  001186  B4D8               	btfsc	status,2,c
  5828  001188  D785               	goto	i2l3040
  5829  00118A  0A01               	xorlw	1	; case 3
  5830  00118C  B4D8               	btfsc	status,2,c
  5831  00118E  D7C7               	goto	i2l3050
  5832  001190  D7F1               	goto	i2l3058
  5833                           
  5834                           ; BSR set to: 4
  5835  001192  0012               	return	
  5836                           
  5837                           ; BSR set to: 4
  5838  001194  0012               	return		;funcret
  5839  001196                     __end_of_USBStdGetDscHandler:
  5840                           	opt stack 0
  5841                           pclatu	equ	0xFFB
  5842                           pclath	equ	0xFFA
  5843                           tblptru	equ	0xFF8
  5844                           tblptrh	equ	0xFF7
  5845                           tblptrl	equ	0xFF6
  5846                           tablat	equ	0xFF5
  5847                           prodh	equ	0xFF4
  5848                           prodl	equ	0xFF3
  5849                           intcon	equ	0xFF2
  5850                           indf0	equ	0xFEF
  5851                           postinc0	equ	0xFEE
  5852                           fsr0h	equ	0xFEA
  5853                           fsr0l	equ	0xFE9
  5854                           wreg	equ	0xFE8
  5855                           indf1	equ	0xFE7
  5856                           fsr1h	equ	0xFE2
  5857                           fsr1l	equ	0xFE1
  5858                           indf2	equ	0xFDF
  5859                           postinc2	equ	0xFDE
  5860                           postdec2	equ	0xFDD
  5861                           plusw2	equ	0xFDB
  5862                           fsr2h	equ	0xFDA
  5863                           fsr2l	equ	0xFD9
  5864                           status	equ	0xFD8
  5865                           
  5866 ;; *************** function _USBStdFeatureReqHandler *****************
  5867 ;; Defined at:
  5868 ;;		line 2771 in file "../../../../../../microchip/mla/v2015_08_10/framework/usb/src/usb_device.c"
  5869 ;; Parameters:    Size  Location     Type
  5870 ;;		None
  5871 ;; Auto vars:     Size  Location     Type
  5872 ;;  p               2   24[COMRAM] PTR struct __BDT
  5873 ;;		 -> BDT(32), NULL(0), 
  5874 ;;  pUEP            2   21[COMRAM] PTR unsigned char 
  5875 ;;		 -> UEP0(1), 
  5876 ;;  current_ep_d    1   23[COMRAM] struct .
  5877 ;; Return value:  Size  Location     Type
  5878 ;;		None               void
  5879 ;; Registers used:
  5880 ;;		wreg, fsr2l, fsr2h, status,2, status,0, prodl, prodh, cstack
  5881 ;; Tracked objects:
  5882 ;;		On entry : 0/0
  5883 ;;		On exit  : 0/0
  5884 ;;		Unchanged: 0/0
  5885 ;; Data sizes:     COMRAM   BANK0   BANK1   BANK2   BANK3   BANK4   BANK5   BANK6   BANK7
  5886 ;;      Params:         0       0       0       0       0       0       0       0       0
  5887 ;;      Locals:         5       0       0       0       0       0       0       0       0
  5888 ;;      Temps:          1       0       0       0       0       0       0       0       0
  5889 ;;      Totals:         6       0       0       0       0       0       0       0       0
  5890 ;;Total ram usage:        6 bytes
  5891 ;; Hardware stack levels used:    1
  5892 ;; Hardware stack levels required when called:    4
  5893 ;; This function calls:
  5894 ;;		_USER_USB_CALLBACK_EVENT_HANDLER
  5895 ;; This function is called by:
  5896 ;;		_USBCheckStdRequest
  5897 ;; This function uses a non-reentrant model
  5898 ;;
  5899                           
  5900                           	psect	text31
  5901  0008C8                     __ptext31:
  5902                           	opt stack 0
  5903  0008C8                     _USBStdFeatureReqHandler:
  5904                           	opt stack 19
  5905                           
  5906                           ;usb_device.c: 2773: BDT_ENTRY *p;
  5907                           ;usb_device.c: 2774: EP_STATUS current_ep_data;
  5908                           ;usb_device.c: 2778: unsigned char* pUEP;
  5909                           ;usb_device.c: 2816: if((SetupPkt.bFeature == 1)&&
  5910                           ;usb_device.c: 2817: (SetupPkt.Recipient == (0x00)))
  5911                           
  5912                           ;incstack = 0
  5913  0008C8  0104               	movlb	4	; () banked
  5914  0008CA  0522               	decf	34,w,b	;volatile
  5915  0008CC  A4D8               	btfss	status,2,c
  5916  0008CE  D011               	goto	i2l634
  5917                           
  5918                           ; BSR set to: 4
  5919  0008D0  0104               	movlb	4	; () banked
  5920  0008D2  5120               	movf	32,w,b	;volatile
  5921  0008D4  0B1F               	andlw	31
  5922  0008D6  0900               	iorlw	0
  5923  0008D8  A4D8               	btfss	status,2,c
  5924  0008DA  D00B               	goto	i2l634
  5925                           
  5926                           ; BSR set to: 4
  5927                           ;usb_device.c: 2818: {
  5928                           ;usb_device.c: 2819: inPipes[0].info.bits.busy = 1;
  5929  0008DC  8E27               	bsf	_inPipes+3,7,c	;volatile
  5930                           
  5931                           ; BSR set to: 4
  5932                           ;usb_device.c: 2820: if(SetupPkt.bRequest == 3)
  5933  0008DE  0E03               	movlw	3
  5934  0008E0  0104               	movlb	4	; () banked
  5935  0008E2  1921               	xorwf	33,w,b	;volatile
  5936  0008E4  A4D8               	btfss	status,2,c
  5937  0008E6  D002               	goto	i2l3102
  5938                           
  5939                           ; BSR set to: 4
  5940                           ;usb_device.c: 2821: RemoteWakeup = 1;
  5941  0008E8  0E01               	movlw	1
  5942  0008EA  D001               	goto	L7
  5943  0008EC                     i2l3102:
  5944                           
  5945                           ; BSR set to: 4
  5946                           ;usb_device.c: 2822: else
  5947                           ;usb_device.c: 2823: RemoteWakeup = 0;
  5948  0008EC  0E00               	movlw	0
  5949  0008EE                     L7:
  5950  0008EE  6E18               	movwf	_RemoteWakeup,c	;volatile
  5951  0008F0  D000               	goto	i2l634
  5952  0008F2                     i2l634:
  5953                           
  5954                           ; BSR set to: 4
  5955                           ;usb_device.c: 2824: }
  5956                           ;usb_device.c: 2827: if((SetupPkt.bFeature == 0)&&
  5957                           ;usb_device.c: 2828: (SetupPkt.Recipient == (0x02))&&
  5958                           ;usb_device.c: 2829: (SetupPkt.EPNum != 0) && (SetupPkt.EPNum <= 1)&&
  5959                           ;usb_device.c: 2830: (USBDeviceState == CONFIGURED_STATE))
  5960  0008F2  0104               	movlb	4	; () banked
  5961  0008F4  5122               	movf	34,w,b	;volatile
  5962  0008F6  A4D8               	btfss	status,2,c
  5963  0008F8  0012               	return	
  5964                           
  5965                           ; BSR set to: 4
  5966  0008FA  0104               	movlb	4	; () banked
  5967  0008FC  5120               	movf	32,w,b	;volatile
  5968  0008FE  0B1F               	andlw	31
  5969  000900  0A02               	xorlw	2
  5970  000902  A4D8               	btfss	status,2,c
  5971  000904  0012               	return	
  5972                           
  5973                           ; BSR set to: 4
  5974  000906  0104               	movlb	4	; () banked
  5975  000908  5124               	movf	36,w,b	;volatile
  5976  00090A  0B0F               	andlw	15
  5977  00090C  0900               	iorlw	0
  5978  00090E  B4D8               	btfsc	status,2,c
  5979  000910  0012               	return	
  5980                           
  5981                           ; BSR set to: 4
  5982  000912  0104               	movlb	4	; () banked
  5983  000914  5124               	movf	36,w,b	;volatile
  5984  000916  0B0F               	andlw	15
  5985  000918  6E41               	movwf	??_USBStdFeatureReqHandler& (0+255),c
  5986  00091A  0E02               	movlw	2
  5987  00091C  6041               	cpfslt	??_USBStdFeatureReqHandler,c
  5988  00091E  0012               	return	
  5989                           
  5990                           ; BSR set to: 4
  5991  000920  0E20               	movlw	32
  5992  000922  181D               	xorwf	_USBDeviceState,w,c	;volatile
  5993  000924  A4D8               	btfss	status,2,c
  5994  000926  0012               	return	
  5995                           
  5996                           ; BSR set to: 4
  5997                           ;usb_device.c: 2831: {
  5998                           ;usb_device.c: 2834: inPipes[0].info.bits.busy = 1;
  5999  000928  8E27               	bsf	_inPipes+3,7,c	;volatile
  6000                           
  6001                           ;usb_device.c: 2837: if(SetupPkt.EPDir == 0)
  6002  00092A  0104               	movlb	4	; () banked
  6003  00092C  BF24               	btfsc	36,7,b	;volatile
  6004  00092E  D01B               	goto	i2l3116
  6005                           
  6006                           ; BSR set to: 4
  6007                           ;usb_device.c: 2838: {
  6008                           ;usb_device.c: 2839: p = (BDT_ENTRY*)pBDTEntryOut[SetupPkt.EPNum];
  6009  000930  0104               	movlb	4	; () banked
  6010  000932  5124               	movf	36,w,b	;volatile
  6011  000934  0B0F               	andlw	15
  6012  000936  6E41               	movwf	??_USBStdFeatureReqHandler& (0+255),c
  6013  000938  5041               	movf	??_USBStdFeatureReqHandler,w,c
  6014  00093A  0D02               	mullw	2
  6015  00093C  0E64               	movlw	low _pBDTEntryOut
  6016  00093E  24F3               	addwf	prodl,w,c
  6017  000940  6ED9               	movwf	fsr2l,c
  6018  000942  0E00               	movlw	high _pBDTEntryOut
  6019  000944  20F4               	addwfc	prodh,w,c
  6020  000946  6EDA               	movwf	fsr2h,c
  6021  000948  CFDE F045          	movff	postinc2,USBStdFeatureReqHandler@p
  6022  00094C  CFDD F046          	movff	postdec2,USBStdFeatureReqHandler@p+1
  6023                           
  6024                           ;usb_device.c: 2840: current_ep_data.Val = ep_data_out[SetupPkt.EPNum].Val;
  6025  000950  0104               	movlb	4	; () banked
  6026  000952  5124               	movf	36,w,b	;volatile
  6027  000954  0B0F               	andlw	15
  6028  000956  6E41               	movwf	??_USBStdFeatureReqHandler& (0+255),c
  6029  000958  5041               	movf	??_USBStdFeatureReqHandler,w,c
  6030  00095A  0D01               	mullw	1
  6031  00095C  0E11               	movlw	low _ep_data_out
  6032  00095E  24F3               	addwf	prodl,w,c
  6033  000960  6ED9               	movwf	fsr2l,c
  6034  000962  0E00               	movlw	high _ep_data_out
  6035  000964  D01A               	goto	L8
  6036  000966                     i2l3116:
  6037                           
  6038                           ; BSR set to: 4
  6039                           ;usb_device.c: 2842: else
  6040                           ;usb_device.c: 2843: {
  6041                           ;usb_device.c: 2844: p = (BDT_ENTRY*)pBDTEntryIn[SetupPkt.EPNum];
  6042  000966  0104               	movlb	4	; () banked
  6043  000968  5124               	movf	36,w,b	;volatile
  6044  00096A  0B0F               	andlw	15
  6045  00096C  6E41               	movwf	??_USBStdFeatureReqHandler& (0+255),c
  6046  00096E  5041               	movf	??_USBStdFeatureReqHandler,w,c
  6047  000970  0D02               	mullw	2
  6048  000972  0E09               	movlw	low _pBDTEntryIn
  6049  000974  24F3               	addwf	prodl,w,c
  6050  000976  6ED9               	movwf	fsr2l,c
  6051  000978  0E00               	movlw	high _pBDTEntryIn
  6052  00097A  20F4               	addwfc	prodh,w,c
  6053  00097C  6EDA               	movwf	fsr2h,c
  6054  00097E  CFDE F045          	movff	postinc2,USBStdFeatureReqHandler@p
  6055  000982  CFDD F046          	movff	postdec2,USBStdFeatureReqHandler@p+1
  6056                           
  6057                           ;usb_device.c: 2845: current_ep_data.Val = ep_data_in[SetupPkt.EPNum].Val;
  6058  000986  0104               	movlb	4	; () banked
  6059  000988  5124               	movf	36,w,b	;volatile
  6060  00098A  0B0F               	andlw	15
  6061  00098C  6E41               	movwf	??_USBStdFeatureReqHandler& (0+255),c
  6062  00098E  5041               	movf	??_USBStdFeatureReqHandler,w,c
  6063  000990  0D01               	mullw	1
  6064  000992  0E0F               	movlw	low _ep_data_in
  6065  000994  24F3               	addwf	prodl,w,c
  6066  000996  6ED9               	movwf	fsr2l,c
  6067  000998  0E00               	movlw	high _ep_data_in
  6068  00099A                     L8:
  6069  00099A  20F4               	addwfc	prodh,w,c
  6070  00099C  6EDA               	movwf	fsr2h,c
  6071  00099E  50DF               	movf	indf2,w,c
  6072  0009A0  6E44               	movwf	USBStdFeatureReqHandler@current_ep_data,c
  6073  0009A2  D000               	goto	i2l3118
  6074  0009A4                     i2l3118:
  6075                           
  6076                           ; BSR set to: 4
  6077                           ;usb_device.c: 2846: }
  6078                           ;usb_device.c: 2852: if(current_ep_data.bits.ping_pong_state == 0)
  6079  0009A4  B044               	btfsc	USBStdFeatureReqHandler@current_ep_data,0,c
  6080  0009A6  D002               	goto	i2l3122
  6081                           
  6082                           ; BSR set to: 4
  6083                           ;usb_device.c: 2853: {
  6084                           ;usb_device.c: 2854: {((uint8_t_VAL*)&p)->Val &= ~0x0004;};
  6085  0009A8  9445               	bcf	USBStdFeatureReqHandler@p,2,c
  6086                           
  6087                           ;usb_device.c: 2855: }
  6088  0009AA  D002               	goto	i2l3124
  6089  0009AC                     i2l3122:
  6090                           
  6091                           ; BSR set to: 4
  6092                           ;usb_device.c: 2856: else
  6093                           ;usb_device.c: 2857: {
  6094                           ;usb_device.c: 2858: {((uint8_t_VAL*)&p)->Val |= 0x0004;};
  6095  0009AC  8445               	bsf	USBStdFeatureReqHandler@p,2,c
  6096  0009AE  D000               	goto	i2l3124
  6097  0009B0                     i2l3124:
  6098                           
  6099                           ; BSR set to: 4
  6100                           ;usb_device.c: 2859: }
  6101                           ;usb_device.c: 2864: if(SetupPkt.EPDir == 0)
  6102  0009B0  0104               	movlb	4	; () banked
  6103  0009B2  BF24               	btfsc	36,7,b	;volatile
  6104  0009B4  D00B               	goto	i2l3128
  6105                           
  6106                           ; BSR set to: 4
  6107                           ;usb_device.c: 2865: {
  6108                           ;usb_device.c: 2866: pBDTEntryOut[SetupPkt.EPNum] = (volatile BDT_ENTRY *)p;
  6109  0009B6  0104               	movlb	4	; () banked
  6110  0009B8  5124               	movf	36,w,b	;volatile
  6111  0009BA  0B0F               	andlw	15
  6112  0009BC  6E41               	movwf	??_USBStdFeatureReqHandler& (0+255),c
  6113  0009BE  5041               	movf	??_USBStdFeatureReqHandler,w,c
  6114  0009C0  0D02               	mullw	2
  6115  0009C2  0E64               	movlw	low _pBDTEntryOut
  6116  0009C4  24F3               	addwf	prodl,w,c
  6117  0009C6  6ED9               	movwf	fsr2l,c
  6118  0009C8  0E00               	movlw	high _pBDTEntryOut
  6119  0009CA  D00A               	goto	L9
  6120  0009CC                     i2l3128:
  6121                           
  6122                           ; BSR set to: 4
  6123                           ;usb_device.c: 2868: else
  6124                           ;usb_device.c: 2869: {
  6125                           ;usb_device.c: 2870: pBDTEntryIn[SetupPkt.EPNum] = (volatile BDT_ENTRY *)p;
  6126  0009CC  0104               	movlb	4	; () banked
  6127  0009CE  5124               	movf	36,w,b	;volatile
  6128  0009D0  0B0F               	andlw	15
  6129  0009D2  6E41               	movwf	??_USBStdFeatureReqHandler& (0+255),c
  6130  0009D4  5041               	movf	??_USBStdFeatureReqHandler,w,c
  6131  0009D6  0D02               	mullw	2
  6132  0009D8  0E09               	movlw	low _pBDTEntryIn
  6133  0009DA  24F3               	addwf	prodl,w,c
  6134  0009DC  6ED9               	movwf	fsr2l,c
  6135  0009DE  0E00               	movlw	high _pBDTEntryIn
  6136  0009E0                     L9:
  6137  0009E0  20F4               	addwfc	prodh,w,c
  6138  0009E2  6EDA               	movwf	fsr2h,c
  6139  0009E4  C045  FFDE         	movff	USBStdFeatureReqHandler@p,postinc2
  6140  0009E8  C046  FFDD         	movff	USBStdFeatureReqHandler@p+1,postdec2
  6141  0009EC  D000               	goto	i2l3130
  6142  0009EE                     i2l3130:
  6143                           
  6144                           ; BSR set to: 4
  6145                           ;usb_device.c: 2871: }
  6146                           ;usb_device.c: 2874: if(SetupPkt.bRequest == 3)
  6147  0009EE  0E03               	movlw	3
  6148  0009F0  0104               	movlb	4	; () banked
  6149  0009F2  1921               	xorwf	33,w,b	;volatile
  6150  0009F4  A4D8               	btfss	status,2,c
  6151  0009F6  D02F               	goto	i2l3144
  6152                           
  6153                           ; BSR set to: 4
  6154                           ;usb_device.c: 2875: {
  6155                           ;usb_device.c: 2876: if(p->STAT.UOWN == 1)
  6156  0009F8  C045  FFD9         	movff	USBStdFeatureReqHandler@p,fsr2l
  6157  0009FC  C046  FFDA         	movff	USBStdFeatureReqHandler@p+1,fsr2h
  6158  000A00  AEDF               	btfss	indf2,7,c
  6159  000A02  D01C               	goto	i2l3140
  6160                           
  6161                           ; BSR set to: 4
  6162                           ;usb_device.c: 2877: {
  6163                           ;usb_device.c: 2880: if(SetupPkt.EPDir == 0)
  6164  000A04  0104               	movlb	4	; () banked
  6165  000A06  BF24               	btfsc	36,7,b	;volatile
  6166  000A08  D00B               	goto	i2l3138
  6167                           
  6168                           ; BSR set to: 4
  6169                           ;usb_device.c: 2881: {
  6170                           ;usb_device.c: 2882: ep_data_out[SetupPkt.EPNum].bits.transfer_terminated = 1;
  6171  000A0A  0104               	movlb	4	; () banked
  6172  000A0C  5124               	movf	36,w,b	;volatile
  6173  000A0E  0B0F               	andlw	15
  6174  000A10  6E41               	movwf	??_USBStdFeatureReqHandler& (0+255),c
  6175  000A12  5041               	movf	??_USBStdFeatureReqHandler,w,c
  6176  000A14  0D01               	mullw	1
  6177  000A16  0E11               	movlw	low _ep_data_out
  6178  000A18  24F3               	addwf	prodl,w,c
  6179  000A1A  6ED9               	movwf	fsr2l,c
  6180  000A1C  0E00               	movlw	high _ep_data_out
  6181  000A1E  D00A               	goto	L10
  6182  000A20                     i2l3138:
  6183                           
  6184                           ; BSR set to: 4
  6185                           ;usb_device.c: 2884: else
  6186                           ;usb_device.c: 2885: {
  6187                           ;usb_device.c: 2886: ep_data_in[SetupPkt.EPNum].bits.transfer_terminated = 1;
  6188  000A20  0104               	movlb	4	; () banked
  6189  000A22  5124               	movf	36,w,b	;volatile
  6190  000A24  0B0F               	andlw	15
  6191  000A26  6E41               	movwf	??_USBStdFeatureReqHandler& (0+255),c
  6192  000A28  5041               	movf	??_USBStdFeatureReqHandler,w,c
  6193  000A2A  0D01               	mullw	1
  6194  000A2C  0E0F               	movlw	low _ep_data_in
  6195  000A2E  24F3               	addwf	prodl,w,c
  6196  000A30  6ED9               	movwf	fsr2l,c
  6197  000A32  0E00               	movlw	high _ep_data_in
  6198  000A34                     L10:
  6199  000A34  20F4               	addwfc	prodh,w,c
  6200  000A36  6EDA               	movwf	fsr2h,c
  6201  000A38  82DF               	bsf	indf2,1,c
  6202                           
  6203                           ; BSR set to: 4
  6204  000A3A  D000               	goto	i2l3140
  6205  000A3C                     i2l3140:
  6206                           
  6207                           ; BSR set to: 4
  6208                           ;usb_device.c: 2887: }
  6209                           ;usb_device.c: 2888: }
  6210                           ;usb_device.c: 2891: p->STAT.Val |= 0x04;
  6211  000A3C  C045  FFD9         	movff	USBStdFeatureReqHandler@p,fsr2l
  6212  000A40  C046  FFDA         	movff	USBStdFeatureReqHandler@p+1,fsr2h
  6213  000A44  0E00               	movlw	0
  6214  000A46  84DB               	bsf	plusw2,2,c
  6215                           
  6216                           ; BSR set to: 4
  6217                           ;usb_device.c: 2892: p->STAT.Val |= 0x80;
  6218  000A48  C045  FFD9         	movff	USBStdFeatureReqHandler@p,fsr2l
  6219  000A4C  C046  FFDA         	movff	USBStdFeatureReqHandler@p+1,fsr2h
  6220  000A50  0E00               	movlw	0
  6221  000A52  8EDB               	bsf	plusw2,7,c
  6222                           
  6223                           ;usb_device.c: 2893: }
  6224  000A54  0012               	return	
  6225  000A56                     i2l3144:
  6226                           
  6227                           ; BSR set to: 4
  6228                           ;usb_device.c: 2894: else
  6229                           ;usb_device.c: 2895: {
  6230                           ;usb_device.c: 2899: {((uint8_t_VAL*)&p)->Val ^= 0x0004;};
  6231  000A56  0E04               	movlw	4
  6232  000A58  1A45               	xorwf	USBStdFeatureReqHandler@p,f,c
  6233                           
  6234                           ; BSR set to: 4
  6235                           ;usb_device.c: 2901: if(p->STAT.UOWN == 1)
  6236  000A5A  C045  FFD9         	movff	USBStdFeatureReqHandler@p,fsr2l
  6237  000A5E  C046  FFDA         	movff	USBStdFeatureReqHandler@p+1,fsr2h
  6238  000A62  AEDF               	btfss	indf2,7,c
  6239  000A64  D01B               	goto	i2l3154
  6240                           
  6241                           ; BSR set to: 4
  6242                           ;usb_device.c: 2902: {
  6243                           ;usb_device.c: 2905: p->STAT.Val &= (~0x80);
  6244  000A66  C045  FFD9         	movff	USBStdFeatureReqHandler@p,fsr2l
  6245  000A6A  C046  FFDA         	movff	USBStdFeatureReqHandler@p+1,fsr2h
  6246  000A6E  0E7F               	movlw	127
  6247  000A70  16DF               	andwf	indf2,f,c
  6248                           
  6249                           ; BSR set to: 4
  6250                           ;usb_device.c: 2906: p->STAT.Val |= 0x40;
  6251  000A72  C045  FFD9         	movff	USBStdFeatureReqHandler@p,fsr2l
  6252  000A76  C046  FFDA         	movff	USBStdFeatureReqHandler@p+1,fsr2h
  6253  000A7A  0E00               	movlw	0
  6254  000A7C  8CDB               	bsf	plusw2,6,c
  6255                           
  6256                           ; BSR set to: 4
  6257                           ;usb_device.c: 2907: USER_USB_CALLBACK_EVENT_HANDLER(EVENT_TRANSFER_TERMINATED,p,sizeof(
      +                          p));
  6258  000A7E  0E00               	movlw	0
  6259  000A80  6E3A               	movwf	USER_USB_CALLBACK_EVENT_HANDLER@event+1,c
  6260  000A82  0E05               	movlw	5
  6261  000A84  6E39               	movwf	USER_USB_CALLBACK_EVENT_HANDLER@event,c
  6262  000A86  C045  F03B         	movff	USBStdFeatureReqHandler@p,USER_USB_CALLBACK_EVENT_HANDLER@pdata
  6263  000A8A  C046  F03C         	movff	USBStdFeatureReqHandler@p+1,USER_USB_CALLBACK_EVENT_HANDLER@pdata+1
  6264  000A8E  0E00               	movlw	0
  6265  000A90  6E3E               	movwf	USER_USB_CALLBACK_EVENT_HANDLER@size+1,c
  6266  000A92  0E02               	movlw	2
  6267  000A94  6E3D               	movwf	USER_USB_CALLBACK_EVENT_HANDLER@size,c
  6268  000A96  ECEA  F00E         	call	_USER_USB_CALLBACK_EVENT_HANDLER	;wreg free
  6269                           
  6270                           ;usb_device.c: 2908: }
  6271  000A9A  D007               	goto	i2l3156
  6272  000A9C                     i2l3154:
  6273                           
  6274                           ;usb_device.c: 2909: else
  6275                           ;usb_device.c: 2910: {
  6276                           ;usb_device.c: 2912: p->STAT.Val |= 0x40;
  6277  000A9C  C045  FFD9         	movff	USBStdFeatureReqHandler@p,fsr2l
  6278  000AA0  C046  FFDA         	movff	USBStdFeatureReqHandler@p+1,fsr2h
  6279  000AA4  0E00               	movlw	0
  6280  000AA6  8CDB               	bsf	plusw2,6,c
  6281  000AA8  D000               	goto	i2l3156
  6282  000AAA                     i2l3156:
  6283                           
  6284                           ;usb_device.c: 2913: }
  6285                           ;usb_device.c: 2917: {((uint8_t_VAL*)&p)->Val ^= 0x0004;};
  6286  000AAA  0E04               	movlw	4
  6287  000AAC  1A45               	xorwf	USBStdFeatureReqHandler@p,f,c
  6288                           
  6289                           ;usb_device.c: 2923: if((current_ep_data.bits.transfer_terminated != 0) || (p->STAT.UOWN
      +                           == 1))
  6290  000AAE  B244               	btfsc	USBStdFeatureReqHandler@current_ep_data,1,c
  6291  000AB0  D006               	goto	i2l653
  6292  000AB2  C045  FFD9         	movff	USBStdFeatureReqHandler@p,fsr2l
  6293  000AB6  C046  FFDA         	movff	USBStdFeatureReqHandler@p+1,fsr2h
  6294  000ABA  AEDF               	btfss	indf2,7,c
  6295  000ABC  D031               	goto	i2l3170
  6296  000ABE                     i2l653:
  6297                           
  6298                           ;usb_device.c: 2924: {
  6299                           ;usb_device.c: 2925: if(SetupPkt.EPDir == 0)
  6300  000ABE  0104               	movlb	4	; () banked
  6301  000AC0  BF24               	btfsc	36,7,b	;volatile
  6302  000AC2  D00B               	goto	i2l3164
  6303                           
  6304                           ; BSR set to: 4
  6305                           ;usb_device.c: 2926: {
  6306                           ;usb_device.c: 2927: ep_data_out[SetupPkt.EPNum].bits.transfer_terminated = 0;
  6307  000AC4  0104               	movlb	4	; () banked
  6308  000AC6  5124               	movf	36,w,b	;volatile
  6309  000AC8  0B0F               	andlw	15
  6310  000ACA  6E41               	movwf	??_USBStdFeatureReqHandler& (0+255),c
  6311  000ACC  5041               	movf	??_USBStdFeatureReqHandler,w,c
  6312  000ACE  0D01               	mullw	1
  6313  000AD0  0E11               	movlw	low _ep_data_out
  6314  000AD2  24F3               	addwf	prodl,w,c
  6315  000AD4  6ED9               	movwf	fsr2l,c
  6316  000AD6  0E00               	movlw	high _ep_data_out
  6317  000AD8  D00A               	goto	L11
  6318  000ADA                     i2l3164:
  6319                           
  6320                           ; BSR set to: 4
  6321                           ;usb_device.c: 2929: else
  6322                           ;usb_device.c: 2930: {
  6323                           ;usb_device.c: 2931: ep_data_in[SetupPkt.EPNum].bits.transfer_terminated = 0;
  6324  000ADA  0104               	movlb	4	; () banked
  6325  000ADC  5124               	movf	36,w,b	;volatile
  6326  000ADE  0B0F               	andlw	15
  6327  000AE0  6E41               	movwf	??_USBStdFeatureReqHandler& (0+255),c
  6328  000AE2  5041               	movf	??_USBStdFeatureReqHandler,w,c
  6329  000AE4  0D01               	mullw	1
  6330  000AE6  0E0F               	movlw	low _ep_data_in
  6331  000AE8  24F3               	addwf	prodl,w,c
  6332  000AEA  6ED9               	movwf	fsr2l,c
  6333  000AEC  0E00               	movlw	high _ep_data_in
  6334  000AEE                     L11:
  6335  000AEE  20F4               	addwfc	prodh,w,c
  6336  000AF0  6EDA               	movwf	fsr2h,c
  6337  000AF2  92DF               	bcf	indf2,1,c
  6338  000AF4  D000               	goto	i2l3166
  6339  000AF6                     i2l3166:
  6340                           
  6341                           ; BSR set to: 4
  6342                           ;usb_device.c: 2932: }
  6343                           ;usb_device.c: 2934: p->STAT.Val &= ~(0x80 | 0x40 | 0x04);
  6344  000AF6  C045  FFD9         	movff	USBStdFeatureReqHandler@p,fsr2l
  6345  000AFA  C046  FFDA         	movff	USBStdFeatureReqHandler@p+1,fsr2h
  6346  000AFE  0E3B               	movlw	59
  6347  000B00  16DF               	andwf	indf2,f,c
  6348                           
  6349                           ; BSR set to: 4
  6350                           ;usb_device.c: 2937: USER_USB_CALLBACK_EVENT_HANDLER(EVENT_TRANSFER_TERMINATED,p,sizeof(
      +                          p));
  6351  000B02  0E00               	movlw	0
  6352  000B04  6E3A               	movwf	USER_USB_CALLBACK_EVENT_HANDLER@event+1,c
  6353  000B06  0E05               	movlw	5
  6354  000B08  6E39               	movwf	USER_USB_CALLBACK_EVENT_HANDLER@event,c
  6355  000B0A  C045  F03B         	movff	USBStdFeatureReqHandler@p,USER_USB_CALLBACK_EVENT_HANDLER@pdata
  6356  000B0E  C046  F03C         	movff	USBStdFeatureReqHandler@p+1,USER_USB_CALLBACK_EVENT_HANDLER@pdata+1
  6357  000B12  0E00               	movlw	0
  6358  000B14  6E3E               	movwf	USER_USB_CALLBACK_EVENT_HANDLER@size+1,c
  6359  000B16  0E02               	movlw	2
  6360  000B18  6E3D               	movwf	USER_USB_CALLBACK_EVENT_HANDLER@size,c
  6361  000B1A  ECEA  F00E         	call	_USER_USB_CALLBACK_EVENT_HANDLER	;wreg free
  6362                           
  6363                           ;usb_device.c: 2938: }
  6364  000B1E  D007               	goto	i2l3172
  6365  000B20                     i2l3170:
  6366                           
  6367                           ;usb_device.c: 2939: else
  6368                           ;usb_device.c: 2940: {
  6369                           ;usb_device.c: 2942: p->STAT.Val &= ~(0x80 | 0x40 | 0x04);
  6370  000B20  C045  FFD9         	movff	USBStdFeatureReqHandler@p,fsr2l
  6371  000B24  C046  FFDA         	movff	USBStdFeatureReqHandler@p+1,fsr2h
  6372  000B28  0E3B               	movlw	59
  6373  000B2A  16DF               	andwf	indf2,f,c
  6374  000B2C  D000               	goto	i2l3172
  6375  000B2E                     i2l3172:
  6376                           
  6377                           ;usb_device.c: 2943: }
  6378                           ;usb_device.c: 2990: pUEP = (unsigned char*)(&UEP0+SetupPkt.EPNum);
  6379  000B2E  0104               	movlb	4	; () banked
  6380  000B30  5124               	movf	36,w,b	;volatile
  6381  000B32  0B0F               	andlw	15
  6382  000B34  6E41               	movwf	??_USBStdFeatureReqHandler& (0+255),c
  6383  000B36  5041               	movf	??_USBStdFeatureReqHandler,w,c
  6384  000B38  0D01               	mullw	1
  6385  000B3A  0E6A               	movlw	106
  6386  000B3C  24F3               	addwf	prodl,w,c
  6387  000B3E  6E42               	movwf	USBStdFeatureReqHandler@pUEP,c
  6388  000B40  0E0F               	movlw	15
  6389  000B42  20F4               	addwfc	prodh,w,c
  6390  000B44  6E43               	movwf	USBStdFeatureReqHandler@pUEP+1,c
  6391                           
  6392                           ; BSR set to: 4
  6393                           ;usb_device.c: 2994: *pUEP &= ~0x0001;
  6394  000B46  C042  FFD9         	movff	USBStdFeatureReqHandler@pUEP,fsr2l
  6395  000B4A  C043  FFDA         	movff	USBStdFeatureReqHandler@pUEP+1,fsr2h
  6396  000B4E  0EFE               	movlw	254
  6397  000B50  16DF               	andwf	indf2,f,c
  6398                           
  6399                           ; BSR set to: 4
  6400  000B52  0012               	return	
  6401                           
  6402                           ; BSR set to: 4
  6403                           
  6404                           ; BSR set to: 4
  6405  000B54  0012               	return		;funcret
  6406  000B56                     __end_of_USBStdFeatureReqHandler:
  6407                           	opt stack 0
  6408                           pclatu	equ	0xFFB
  6409                           pclath	equ	0xFFA
  6410                           tblptru	equ	0xFF8
  6411                           tblptrh	equ	0xFF7
  6412                           tblptrl	equ	0xFF6
  6413                           tablat	equ	0xFF5
  6414                           prodh	equ	0xFF4
  6415                           prodl	equ	0xFF3
  6416                           intcon	equ	0xFF2
  6417                           indf0	equ	0xFEF
  6418                           postinc0	equ	0xFEE
  6419                           fsr0h	equ	0xFEA
  6420                           fsr0l	equ	0xFE9
  6421                           wreg	equ	0xFE8
  6422                           indf1	equ	0xFE7
  6423                           fsr1h	equ	0xFE2
  6424                           fsr1l	equ	0xFE1
  6425                           indf2	equ	0xFDF
  6426                           postinc2	equ	0xFDE
  6427                           postdec2	equ	0xFDD
  6428                           plusw2	equ	0xFDB
  6429                           fsr2h	equ	0xFDA
  6430                           fsr2l	equ	0xFD9
  6431                           status	equ	0xFD8
  6432                           
  6433 ;; *************** function _USER_USB_CALLBACK_EVENT_HANDLER *****************
  6434 ;; Defined at:
  6435 ;;		line 109 in file "../src/main.c"
  6436 ;; Parameters:    Size  Location     Type
  6437 ;;  event           2   12[COMRAM] enum E6922
  6438 ;;  pdata           2   14[COMRAM] PTR void 
  6439 ;;		 -> USTATcopy(1), USBActiveConfiguration(1), BDT(32), NULL(0), 
  6440 ;;  size            2   16[COMRAM] unsigned int 
  6441 ;; Auto vars:     Size  Location     Type
  6442 ;;		None
  6443 ;; Return value:  Size  Location     Type
  6444 ;;                  1    wreg      unsigned char 
  6445 ;; Registers used:
  6446 ;;		wreg, fsr2l, fsr2h, status,2, status,0, prodl, prodh, cstack
  6447 ;; Tracked objects:
  6448 ;;		On entry : 0/0
  6449 ;;		On exit  : 0/0
  6450 ;;		Unchanged: 0/0
  6451 ;; Data sizes:     COMRAM   BANK0   BANK1   BANK2   BANK3   BANK4   BANK5   BANK6   BANK7
  6452 ;;      Params:         6       0       0       0       0       0       0       0       0
  6453 ;;      Locals:         0       0       0       0       0       0       0       0       0
  6454 ;;      Temps:          2       0       0       0       0       0       0       0       0
  6455 ;;      Totals:         8       0       0       0       0       0       0       0       0
  6456 ;;Total ram usage:        8 bytes
  6457 ;; Hardware stack levels used:    1
  6458 ;; Hardware stack levels required when called:    3
  6459 ;; This function calls:
  6460 ;;		_APP_DeviceCustomHIDInitialize
  6461 ;;		_APP_LEDUpdateUSBStatus
  6462 ;;		_USBCheckHIDRequest
  6463 ;;		i2_SYSTEM_Initialize
  6464 ;; This function is called by:
  6465 ;;		_USBDeviceTasks
  6466 ;;		_USBStdSetCfgHandler
  6467 ;;		_USBSuspend
  6468 ;;		_USBWakeFromSuspend
  6469 ;;		_USBCtrlTrfSetupHandler
  6470 ;;		_USBCheckStdRequest
  6471 ;;		_USBStdFeatureReqHandler
  6472 ;; This function uses a non-reentrant model
  6473 ;;
  6474                           
  6475                           	psect	text32
  6476  001DD4                     __ptext32:
  6477                           	opt stack 0
  6478  001DD4                     _USER_USB_CALLBACK_EVENT_HANDLER:
  6479                           	opt stack 23
  6480                           
  6481                           ;main.c: 111: switch((int)event)
  6482                           
  6483                           ; BSR set to: 4
  6484                           ;incstack = 0
  6485  001DD4  D016               	goto	i2l2910
  6486                           
  6487                           ;main.c: 114: break;
  6488                           
  6489                           ;main.c: 112: {
  6490                           ;main.c: 113: case EVENT_TRANSFER:
  6491  001DD6  0012               	return	
  6492  001DD8                     i2l2898:
  6493                           
  6494                           ;main.c: 119: APP_LEDUpdateUSBStatus();
  6495  001DD8  EC66  F00E         	call	_APP_LEDUpdateUSBStatus	;wreg free
  6496                           
  6497                           ;main.c: 120: break;
  6498  001DDC  0012               	return	
  6499  001DDE                     i2l2900:
  6500                           
  6501                           ;main.c: 124: APP_LEDUpdateUSBStatus();
  6502  001DDE  EC66  F00E         	call	_APP_LEDUpdateUSBStatus	;wreg free
  6503                           
  6504                           ;main.c: 132: SYSTEM_Initialize(SYSTEM_STATE_USB_SUSPEND);
  6505  001DE2  0E01               	movlw	1
  6506  001DE4  ECB1  F00F         	call	i2_SYSTEM_Initialize
  6507                           
  6508                           ;main.c: 133: break;
  6509  001DE8  0012               	return	
  6510  001DEA                     i2l2902:
  6511                           
  6512                           ;main.c: 137: APP_LEDUpdateUSBStatus();
  6513  001DEA  EC66  F00E         	call	_APP_LEDUpdateUSBStatus	;wreg free
  6514                           
  6515                           ;main.c: 143: SYSTEM_Initialize(SYSTEM_STATE_USB_RESUME);
  6516  001DEE  0E02               	movlw	2
  6517  001DF0  ECB1  F00F         	call	i2_SYSTEM_Initialize
  6518                           
  6519                           ;main.c: 144: break;
  6520  001DF4  0012               	return	
  6521  001DF6                     i2l2904:
  6522                           
  6523                           ;main.c: 149: APP_DeviceCustomHIDInitialize();
  6524  001DF6  EC71  F010         	call	_APP_DeviceCustomHIDInitialize	;wreg free
  6525                           
  6526                           ;main.c: 153: break;
  6527                           
  6528                           ;main.c: 152: case EVENT_SET_DESCRIPTOR:
  6529                           
  6530                           ;main.c: 150: break;
  6531  001DFA  0012               	return	
  6532  001DFC                     i2l2906:
  6533                           
  6534                           ;main.c: 158: USBCheckHIDRequest();
  6535  001DFC  ECD2  F009         	call	_USBCheckHIDRequest	;wreg free
  6536                           
  6537                           ;main.c: 169: }
  6538                           
  6539                           ;main.c: 168: break;
  6540                           
  6541                           ;main.c: 167: default:
  6542                           
  6543                           ;main.c: 165: break;
  6544                           
  6545                           ;main.c: 164: case EVENT_TRANSFER_TERMINATED:
  6546                           
  6547                           ;main.c: 162: break;
  6548                           
  6549                           ;main.c: 161: case EVENT_BUS_ERROR:
  6550                           
  6551                           ;main.c: 159: break;
  6552  001E00  0012               	return	
  6553  001E02                     i2l2910:
  6554  001E02  C039  F03F         	movff	USER_USB_CALLBACK_EVENT_HANDLER@event,??_USER_USB_CALLBACK_EVENT_HANDLER
  6555  001E06  C03A  F040         	movff	USER_USB_CALLBACK_EVENT_HANDLER@event+1,??_USER_USB_CALLBACK_EVENT_HANDLER+1
  6556                           
  6557                           ; Switch on 2 bytes has been partitioned into a top level switch of size 1, and 2 sub-sw
      +                          itches
  6558                           ; Switch size 1, requested type "space"
  6559                           ; Number of cases is 2, Range of values is 0 to 127
  6560                           ; switch strategies available:
  6561                           ; Name         Instructions Cycles
  6562                           ; simple_byte            7     4 (average)
  6563                           ;	Chosen strategy is simple_byte
  6564  001E0A  5040               	movf	??_USER_USB_CALLBACK_EVENT_HANDLER+1,w,c
  6565  001E0C  0A00               	xorlw	0	; case 0
  6566  001E0E  B4D8               	btfsc	status,2,c
  6567  001E10  D004               	goto	i2l4146
  6568  001E12  0A7F               	xorlw	127	; case 127
  6569  001E14  A4D8               	btfss	status,2,c
  6570  001E16  0012               	return	
  6571  001E18  D01A               	goto	i2l4148
  6572  001E1A                     i2l4146:
  6573                           
  6574                           ; Switch size 1, requested type "space"
  6575                           ; Number of cases is 8, Range of values is 1 to 117
  6576                           ; switch strategies available:
  6577                           ; Name         Instructions Cycles
  6578                           ; simple_byte           25    13 (average)
  6579                           ;	Chosen strategy is simple_byte
  6580  001E1A  503F               	movf	??_USER_USB_CALLBACK_EVENT_HANDLER,w,c
  6581  001E1C  0A01               	xorlw	1	; case 1
  6582  001E1E  B4D8               	btfsc	status,2,c
  6583  001E20  D7EA               	goto	i2l2904
  6584  001E22  0A03               	xorlw	3	; case 2
  6585  001E24  B4D8               	btfsc	status,2,c
  6586  001E26  0012               	return	
  6587  001E28  0A01               	xorlw	1	; case 3
  6588  001E2A  B4D8               	btfsc	status,2,c
  6589  001E2C  D7E7               	goto	i2l2906
  6590  001E2E  0A06               	xorlw	6	; case 5
  6591  001E30  B4D8               	btfsc	status,2,c
  6592  001E32  0012               	return	
  6593  001E34  0A77               	xorlw	119	; case 114
  6594  001E36  B4D8               	btfsc	status,2,c
  6595  001E38  0012               	return	
  6596  001E3A  0A01               	xorlw	1	; case 115
  6597  001E3C  B4D8               	btfsc	status,2,c
  6598  001E3E  D7CC               	goto	i2l2898
  6599  001E40  0A07               	xorlw	7	; case 116
  6600  001E42  B4D8               	btfsc	status,2,c
  6601  001E44  D7D2               	goto	i2l2902
  6602  001E46  0A01               	xorlw	1	; case 117
  6603  001E48  A4D8               	btfss	status,2,c
  6604  001E4A  0012               	return	
  6605  001E4C  D7C8               	goto	i2l2900
  6606  001E4E                     i2l4148:
  6607                           
  6608                           ; Switch size 1, requested type "space"
  6609                           ; Number of cases is 1, Range of values is 255 to 255
  6610                           ; switch strategies available:
  6611                           ; Name         Instructions Cycles
  6612                           ; simple_byte            4     3 (average)
  6613                           ;	Chosen strategy is simple_byte
  6614  001E4E  503F               	movf	??_USER_USB_CALLBACK_EVENT_HANDLER,w,c
  6615  001E50  0AFF               	xorlw	255	; case 255
  6616  001E52  0012               	return	
  6617                           
  6618                           ;main.c: 170: return 1;
  6619                           ;	Return value of _USER_USB_CALLBACK_EVENT_HANDLER is never used
  6620  001E54  0012               	return		;funcret
  6621  001E56                     __end_of_USER_USB_CALLBACK_EVENT_HANDLER:
  6622                           	opt stack 0
  6623                           pclatu	equ	0xFFB
  6624                           pclath	equ	0xFFA
  6625                           tblptru	equ	0xFF8
  6626                           tblptrh	equ	0xFF7
  6627                           tblptrl	equ	0xFF6
  6628                           tablat	equ	0xFF5
  6629                           prodh	equ	0xFF4
  6630                           prodl	equ	0xFF3
  6631                           intcon	equ	0xFF2
  6632                           indf0	equ	0xFEF
  6633                           postinc0	equ	0xFEE
  6634                           fsr0h	equ	0xFEA
  6635                           fsr0l	equ	0xFE9
  6636                           wreg	equ	0xFE8
  6637                           indf1	equ	0xFE7
  6638                           fsr1h	equ	0xFE2
  6639                           fsr1l	equ	0xFE1
  6640                           indf2	equ	0xFDF
  6641                           postinc2	equ	0xFDE
  6642                           postdec2	equ	0xFDD
  6643                           plusw2	equ	0xFDB
  6644                           fsr2h	equ	0xFDA
  6645                           fsr2l	equ	0xFD9
  6646                           status	equ	0xFD8
  6647                           
  6648 ;; *************** function i2_SYSTEM_Initialize *****************
  6649 ;; Defined at:
  6650 ;;		line 88 in file "../src/system_config/pic18f45k50/system.c"
  6651 ;; Parameters:    Size  Location     Type
  6652 ;;  state           1    wreg     enum E6713
  6653 ;; Auto vars:     Size  Location     Type
  6654 ;;  state           1    1[COMRAM] enum E6713
  6655 ;; Return value:  Size  Location     Type
  6656 ;;		None               void
  6657 ;; Registers used:
  6658 ;;		wreg, status,2, status,0, cstack
  6659 ;; Tracked objects:
  6660 ;;		On entry : 0/0
  6661 ;;		On exit  : 0/0
  6662 ;;		Unchanged: 0/0
  6663 ;; Data sizes:     COMRAM   BANK0   BANK1   BANK2   BANK3   BANK4   BANK5   BANK6   BANK7
  6664 ;;      Params:         0       0       0       0       0       0       0       0       0
  6665 ;;      Locals:         1       0       0       0       0       0       0       0       0
  6666 ;;      Temps:          0       0       0       0       0       0       0       0       0
  6667 ;;      Totals:         1       0       0       0       0       0       0       0       0
  6668 ;;Total ram usage:        1 bytes
  6669 ;; Hardware stack levels used:    1
  6670 ;; Hardware stack levels required when called:    1
  6671 ;; This function calls:
  6672 ;;		i2_ADC_Enable
  6673 ;;		i2_ADC_SetConfiguration
  6674 ;;		i2_BUTTON_Enable
  6675 ;;		i2_LED_Enable
  6676 ;; This function is called by:
  6677 ;;		_USER_USB_CALLBACK_EVENT_HANDLER
  6678 ;; This function uses a non-reentrant model
  6679 ;;
  6680                           
  6681                           	psect	text33
  6682  001F62                     __ptext33:
  6683                           	opt stack 0
  6684  001F62                     i2_SYSTEM_Initialize:
  6685                           	opt stack 24
  6686                           
  6687                           ;incstack = 0
  6688                           ;i2SYSTEM_Initialize@state stored from wreg
  6689  001F62  6E2E               	movwf	i2SYSTEM_Initialize@state,c
  6690                           
  6691                           ;system.c: 90: switch(state)
  6692  001F64  D01B               	goto	i2l2894
  6693  001F66                     i2l2878:
  6694                           
  6695                           ;system.c: 97: OSCTUNE = 0x80;
  6696  001F66  0E80               	movlw	128
  6697  001F68  6E9B               	movwf	3995,c	;volatile
  6698                           
  6699                           ;system.c: 98: OSCCON = 0x70;
  6700  001F6A  0E70               	movlw	112
  6701  001F6C  6ED3               	movwf	4051,c	;volatile
  6702                           
  6703                           ;system.c: 99: OSCCON2 = 0x10;
  6704  001F6E  0E10               	movlw	16
  6705  001F70  6ED2               	movwf	4050,c	;volatile
  6706                           
  6707                           ;system.c: 100: while(OSCCON2bits.PLLRDY != 1);
  6708  001F72  D000               	goto	i2l133
  6709  001F74                     i2l133:
  6710  001F74  AED2               	btfss	4050,7,c	;volatile
  6711  001F76  D7FE               	goto	i2l133
  6712                           
  6713                           ;system.c: 101: ACTCON = 0x90;
  6714  001F78  0E90               	movlw	144
  6715  001F7A  6EB5               	movwf	4021,c	;volatile
  6716                           
  6717                           ;system.c: 104: LED_Enable(LED_NONE);
  6718  001F7C  0E00               	movlw	0
  6719  001F7E  EC65  F011         	call	i2_LED_Enable
  6720                           
  6721                           ;system.c: 105: LED_Enable(LED_D1);
  6722  001F82  0E01               	movlw	1
  6723  001F84  EC65  F011         	call	i2_LED_Enable
  6724                           
  6725                           ;system.c: 107: BUTTON_Enable(BUTTON_S2);
  6726  001F88  0E01               	movlw	1
  6727  001F8A  EC74  F011         	call	i2_BUTTON_Enable
  6728                           
  6729                           ;system.c: 109: ADC_SetConfiguration(ADC_CONFIGURATION_DEFAULT);
  6730  001F8E  0E00               	movlw	0
  6731  001F90  ECAB  F011         	call	i2_ADC_SetConfiguration
  6732                           
  6733                           ;system.c: 110: ADC_Enable(ADC_CHANNEL_0);
  6734  001F94  0E00               	movlw	0
  6735  001F96  ECB7  F011         	call	i2_ADC_Enable
  6736                           
  6737                           ;system.c: 118: }
  6738                           
  6739                           ;system.c: 117: break;
  6740                           
  6741                           ;system.c: 116: case SYSTEM_STATE_USB_RESUME:
  6742                           
  6743                           ;system.c: 114: break;
  6744                           
  6745                           ;system.c: 113: case SYSTEM_STATE_USB_SUSPEND:
  6746                           
  6747                           ;system.c: 111: break;
  6748  001F9A  0012               	return	
  6749  001F9C                     i2l2894:
  6750  001F9C  502E               	movf	i2SYSTEM_Initialize@state,w,c
  6751                           
  6752                           ; Switch size 1, requested type "space"
  6753                           ; Number of cases is 3, Range of values is 0 to 2
  6754                           ; switch strategies available:
  6755                           ; Name         Instructions Cycles
  6756                           ; simple_byte           10     6 (average)
  6757                           ;	Chosen strategy is simple_byte
  6758  001F9E  0A00               	xorlw	0	; case 0
  6759  001FA0  B4D8               	btfsc	status,2,c
  6760  001FA2  D7E1               	goto	i2l2878
  6761  001FA4  0A01               	xorlw	1	; case 1
  6762  001FA6  B4D8               	btfsc	status,2,c
  6763  001FA8  0012               	return	
  6764  001FAA  0A03               	xorlw	3	; case 2
  6765  001FAC  0012               	return	
  6766  001FAE  0012               	return		;funcret
  6767  001FB0                     __end_ofi2_SYSTEM_Initialize:
  6768                           	opt stack 0
  6769                           pclatu	equ	0xFFB
  6770                           pclath	equ	0xFFA
  6771                           tblptru	equ	0xFF8
  6772                           tblptrh	equ	0xFF7
  6773                           tblptrl	equ	0xFF6
  6774                           tablat	equ	0xFF5
  6775                           prodh	equ	0xFF4
  6776                           prodl	equ	0xFF3
  6777                           intcon	equ	0xFF2
  6778                           indf0	equ	0xFEF
  6779                           postinc0	equ	0xFEE
  6780                           fsr0h	equ	0xFEA
  6781                           fsr0l	equ	0xFE9
  6782                           wreg	equ	0xFE8
  6783                           indf1	equ	0xFE7
  6784                           fsr1h	equ	0xFE2
  6785                           fsr1l	equ	0xFE1
  6786                           indf2	equ	0xFDF
  6787                           postinc2	equ	0xFDE
  6788                           postdec2	equ	0xFDD
  6789                           plusw2	equ	0xFDB
  6790                           fsr2h	equ	0xFDA
  6791                           fsr2l	equ	0xFD9
  6792                           status	equ	0xFD8
  6793                           
  6794 ;; *************** function i2_LED_Enable *****************
  6795 ;; Defined at:
  6796 ;;		line 227 in file "../bsp_pic18f45k50/leds.c"
  6797 ;; Parameters:    Size  Location     Type
  6798 ;;  led             1    wreg     enum E2
  6799 ;; Auto vars:     Size  Location     Type
  6800 ;;  led             1    0[COMRAM] enum E2
  6801 ;; Return value:  Size  Location     Type
  6802 ;;		None               void
  6803 ;; Registers used:
  6804 ;;		wreg, status,2, status,0
  6805 ;; Tracked objects:
  6806 ;;		On entry : 0/0
  6807 ;;		On exit  : 0/0
  6808 ;;		Unchanged: 0/0
  6809 ;; Data sizes:     COMRAM   BANK0   BANK1   BANK2   BANK3   BANK4   BANK5   BANK6   BANK7
  6810 ;;      Params:         0       0       0       0       0       0       0       0       0
  6811 ;;      Locals:         1       0       0       0       0       0       0       0       0
  6812 ;;      Temps:          0       0       0       0       0       0       0       0       0
  6813 ;;      Totals:         1       0       0       0       0       0       0       0       0
  6814 ;;Total ram usage:        1 bytes
  6815 ;; Hardware stack levels used:    1
  6816 ;; This function calls:
  6817 ;;		Nothing
  6818 ;; This function is called by:
  6819 ;;		i2_SYSTEM_Initialize
  6820 ;; This function uses a non-reentrant model
  6821 ;;
  6822                           
  6823                           	psect	text34
  6824  0022CA                     __ptext34:
  6825                           	opt stack 0
  6826  0022CA                     i2_LED_Enable:
  6827                           	opt stack 24
  6828                           
  6829                           ;incstack = 0
  6830                           ;i2LED_Enable@led stored from wreg
  6831  0022CA  6E2D               	movwf	i2LED_Enable@led,c
  6832                           
  6833                           ;leds.c: 229: switch(led)
  6834  0022CC  D004               	goto	i2l2744
  6835  0022CE                     i2l105:
  6836                           
  6837                           ;leds.c: 232: TRISCbits.TRISC2 = 0;
  6838  0022CE  9494               	bcf	3988,2,c	;volatile
  6839                           
  6840                           ;leds.c: 233: ANSELCbits.ANSC2 = 0;
  6841  0022D0  010F               	movlb	15	; () banked
  6842  0022D2  955D               	bcf	93,2,b	;volatile
  6843                           
  6844                           ; BSR set to: 15
  6845                           ;leds.c: 253: }
  6846                           
  6847                           ; BSR set to: 15
  6848                           ;leds.c: 252: break;
  6849                           
  6850                           ;leds.c: 251: case LED_NONE:
  6851                           
  6852                           ;leds.c: 234: break;
  6853  0022D4  0012               	return	
  6854  0022D6                     i2l2744:
  6855  0022D6  502D               	movf	i2LED_Enable@led,w,c
  6856                           
  6857                           ; Switch size 1, requested type "space"
  6858                           ; Number of cases is 2, Range of values is 0 to 1
  6859                           ; switch strategies available:
  6860                           ; Name         Instructions Cycles
  6861                           ; simple_byte            7     4 (average)
  6862                           ;	Chosen strategy is simple_byte
  6863  0022D8  0A00               	xorlw	0	; case 0
  6864  0022DA  B4D8               	btfsc	status,2,c
  6865  0022DC  0012               	return	
  6866  0022DE  0A01               	xorlw	1	; case 1
  6867  0022E0  A4D8               	btfss	status,2,c
  6868  0022E2  0012               	return	
  6869  0022E4  D7F4               	goto	i2l105
  6870  0022E6  0012               	return		;funcret
  6871  0022E8                     __end_ofi2_LED_Enable:
  6872                           	opt stack 0
  6873                           pclatu	equ	0xFFB
  6874                           pclath	equ	0xFFA
  6875                           tblptru	equ	0xFF8
  6876                           tblptrh	equ	0xFF7
  6877                           tblptrl	equ	0xFF6
  6878                           tablat	equ	0xFF5
  6879                           prodh	equ	0xFF4
  6880                           prodl	equ	0xFF3
  6881                           intcon	equ	0xFF2
  6882                           indf0	equ	0xFEF
  6883                           postinc0	equ	0xFEE
  6884                           fsr0h	equ	0xFEA
  6885                           fsr0l	equ	0xFE9
  6886                           wreg	equ	0xFE8
  6887                           indf1	equ	0xFE7
  6888                           fsr1h	equ	0xFE2
  6889                           fsr1l	equ	0xFE1
  6890                           indf2	equ	0xFDF
  6891                           postinc2	equ	0xFDE
  6892                           postdec2	equ	0xFDD
  6893                           plusw2	equ	0xFDB
  6894                           fsr2h	equ	0xFDA
  6895                           fsr2l	equ	0xFD9
  6896                           status	equ	0xFD8
  6897                           
  6898 ;; *************** function i2_BUTTON_Enable *****************
  6899 ;; Defined at:
  6900 ;;		line 96 in file "../bsp_pic18f45k50/buttons.c"
  6901 ;; Parameters:    Size  Location     Type
  6902 ;;  button          1    wreg     enum E6643
  6903 ;; Auto vars:     Size  Location     Type
  6904 ;;  button          1    0[COMRAM] enum E6643
  6905 ;; Return value:  Size  Location     Type
  6906 ;;		None               void
  6907 ;; Registers used:
  6908 ;;		wreg, status,2, status,0
  6909 ;; Tracked objects:
  6910 ;;		On entry : 0/0
  6911 ;;		On exit  : 0/0
  6912 ;;		Unchanged: 0/0
  6913 ;; Data sizes:     COMRAM   BANK0   BANK1   BANK2   BANK3   BANK4   BANK5   BANK6   BANK7
  6914 ;;      Params:         0       0       0       0       0       0       0       0       0
  6915 ;;      Locals:         1       0       0       0       0       0       0       0       0
  6916 ;;      Temps:          0       0       0       0       0       0       0       0       0
  6917 ;;      Totals:         1       0       0       0       0       0       0       0       0
  6918 ;;Total ram usage:        1 bytes
  6919 ;; Hardware stack levels used:    1
  6920 ;; This function calls:
  6921 ;;		Nothing
  6922 ;; This function is called by:
  6923 ;;		i2_SYSTEM_Initialize
  6924 ;; This function uses a non-reentrant model
  6925 ;;
  6926                           
  6927                           	psect	text35
  6928  0022E8                     __ptext35:
  6929                           	opt stack 0
  6930  0022E8                     i2_BUTTON_Enable:
  6931                           	opt stack 24
  6932                           
  6933                           ;incstack = 0
  6934                           ;i2BUTTON_Enable@button stored from wreg
  6935  0022E8  6E2D               	movwf	i2BUTTON_Enable@button,c
  6936                           
  6937                           ;buttons.c: 98: switch(button)
  6938  0022EA  D004               	goto	i2l2726
  6939  0022EC                     i2l17:
  6940                           
  6941                           ;buttons.c: 101: TRISDbits.TRISD3 = 1;
  6942  0022EC  8695               	bsf	3989,3,c	;volatile
  6943                           
  6944                           ;buttons.c: 102: ANSELDbits.ANSD3 = 0;
  6945  0022EE  010F               	movlb	15	; () banked
  6946  0022F0  975E               	bcf	94,3,b	;volatile
  6947                           
  6948                           ; BSR set to: 15
  6949                           ;buttons.c: 112: }
  6950                           
  6951                           ; BSR set to: 15
  6952                           ;buttons.c: 111: break;
  6953                           
  6954                           ;buttons.c: 110: case BUTTON_NONE:
  6955                           
  6956                           ;buttons.c: 103: break;
  6957  0022F2  0012               	return	
  6958  0022F4                     i2l2726:
  6959  0022F4  502D               	movf	i2BUTTON_Enable@button,w,c
  6960                           
  6961                           ; Switch size 1, requested type "space"
  6962                           ; Number of cases is 2, Range of values is 0 to 1
  6963                           ; switch strategies available:
  6964                           ; Name         Instructions Cycles
  6965                           ; simple_byte            7     4 (average)
  6966                           ;	Chosen strategy is simple_byte
  6967  0022F6  0A00               	xorlw	0	; case 0
  6968  0022F8  B4D8               	btfsc	status,2,c
  6969  0022FA  0012               	return	
  6970  0022FC  0A01               	xorlw	1	; case 1
  6971  0022FE  A4D8               	btfss	status,2,c
  6972  002300  0012               	return	
  6973  002302  D7F4               	goto	i2l17
  6974  002304  0012               	return		;funcret
  6975  002306                     __end_ofi2_BUTTON_Enable:
  6976                           	opt stack 0
  6977                           pclatu	equ	0xFFB
  6978                           pclath	equ	0xFFA
  6979                           tblptru	equ	0xFF8
  6980                           tblptrh	equ	0xFF7
  6981                           tblptrl	equ	0xFF6
  6982                           tablat	equ	0xFF5
  6983                           prodh	equ	0xFF4
  6984                           prodl	equ	0xFF3
  6985                           intcon	equ	0xFF2
  6986                           indf0	equ	0xFEF
  6987                           postinc0	equ	0xFEE
  6988                           fsr0h	equ	0xFEA
  6989                           fsr0l	equ	0xFE9
  6990                           wreg	equ	0xFE8
  6991                           indf1	equ	0xFE7
  6992                           fsr1h	equ	0xFE2
  6993                           fsr1l	equ	0xFE1
  6994                           indf2	equ	0xFDF
  6995                           postinc2	equ	0xFDE
  6996                           postdec2	equ	0xFDD
  6997                           plusw2	equ	0xFDB
  6998                           fsr2h	equ	0xFDA
  6999                           fsr2l	equ	0xFD9
  7000                           status	equ	0xFD8
  7001                           
  7002 ;; *************** function i2_ADC_SetConfiguration *****************
  7003 ;; Defined at:
  7004 ;;		line 156 in file "../bsp_pic18f45k50/adc.c"
  7005 ;; Parameters:    Size  Location     Type
  7006 ;;  configuratio    1    wreg     enum E33
  7007 ;; Auto vars:     Size  Location     Type
  7008 ;;  configuratio    1    0[COMRAM] enum E33
  7009 ;; Return value:  Size  Location     Type
  7010 ;;                  1    wreg      unsigned char 
  7011 ;; Registers used:
  7012 ;;		wreg, status,2
  7013 ;; Tracked objects:
  7014 ;;		On entry : 0/0
  7015 ;;		On exit  : 0/0
  7016 ;;		Unchanged: 0/0
  7017 ;; Data sizes:     COMRAM   BANK0   BANK1   BANK2   BANK3   BANK4   BANK5   BANK6   BANK7
  7018 ;;      Params:         0       0       0       0       0       0       0       0       0
  7019 ;;      Locals:         1       0       0       0       0       0       0       0       0
  7020 ;;      Temps:          0       0       0       0       0       0       0       0       0
  7021 ;;      Totals:         1       0       0       0       0       0       0       0       0
  7022 ;;Total ram usage:        1 bytes
  7023 ;; Hardware stack levels used:    1
  7024 ;; This function calls:
  7025 ;;		Nothing
  7026 ;; This function is called by:
  7027 ;;		i2_SYSTEM_Initialize
  7028 ;; This function uses a non-reentrant model
  7029 ;;
  7030                           
  7031                           	psect	text36
  7032  002356                     __ptext36:
  7033                           	opt stack 0
  7034  002356                     i2_ADC_SetConfiguration:
  7035                           	opt stack 24
  7036                           
  7037                           ;incstack = 0
  7038                           ;i2ADC_SetConfiguration@configuration stored from wreg
  7039  002356  6E2D               	movwf	i2ADC_SetConfiguration@configuration,c
  7040                           
  7041                           ;adc.c: 158: if(configuration == ADC_CONFIGURATION_DEFAULT)
  7042  002358  502D               	movf	i2ADC_SetConfiguration@configuration,w,c
  7043  00235A  A4D8               	btfss	status,2,c
  7044  00235C  0012               	return	
  7045                           
  7046                           ;adc.c: 159: {
  7047                           ;adc.c: 160: ADCON1=0;
  7048  00235E  0E00               	movlw	0
  7049  002360  6EC1               	movwf	4033,c	;volatile
  7050                           
  7051                           ;adc.c: 161: ADCON2=0xBE;
  7052  002362  0EBE               	movlw	190
  7053  002364  6EC0               	movwf	4032,c	;volatile
  7054                           
  7055                           ;adc.c: 162: ADCON0=0x01;
  7056  002366  0E01               	movlw	1
  7057  002368  6EC2               	movwf	4034,c	;volatile
  7058                           
  7059                           ;adc.c: 164: return 1;
  7060                           ;	Return value of i2_ADC_SetConfiguration is never used
  7061  00236A  0012               	return	
  7062                           
  7063                           ;adc.c: 165: }
  7064                           ;adc.c: 167: return 0;
  7065                           ;	Return value of i2_ADC_SetConfiguration is never used
  7066  00236C  0012               	return		;funcret
  7067  00236E                     __end_ofi2_ADC_SetConfiguration:
  7068                           	opt stack 0
  7069                           pclatu	equ	0xFFB
  7070                           pclath	equ	0xFFA
  7071                           tblptru	equ	0xFF8
  7072                           tblptrh	equ	0xFF7
  7073                           tblptrl	equ	0xFF6
  7074                           tablat	equ	0xFF5
  7075                           prodh	equ	0xFF4
  7076                           prodl	equ	0xFF3
  7077                           intcon	equ	0xFF2
  7078                           indf0	equ	0xFEF
  7079                           postinc0	equ	0xFEE
  7080                           fsr0h	equ	0xFEA
  7081                           fsr0l	equ	0xFE9
  7082                           wreg	equ	0xFE8
  7083                           indf1	equ	0xFE7
  7084                           fsr1h	equ	0xFE2
  7085                           fsr1l	equ	0xFE1
  7086                           indf2	equ	0xFDF
  7087                           postinc2	equ	0xFDE
  7088                           postdec2	equ	0xFDD
  7089                           plusw2	equ	0xFDB
  7090                           fsr2h	equ	0xFDA
  7091                           fsr2l	equ	0xFD9
  7092                           status	equ	0xFD8
  7093                           
  7094 ;; *************** function i2_ADC_Enable *****************
  7095 ;; Defined at:
  7096 ;;		line 130 in file "../bsp_pic18f45k50/adc.c"
  7097 ;; Parameters:    Size  Location     Type
  7098 ;;  channel         1    wreg     enum E30
  7099 ;; Auto vars:     Size  Location     Type
  7100 ;;  channel         1    0[COMRAM] enum E30
  7101 ;; Return value:  Size  Location     Type
  7102 ;;                  1    wreg      unsigned char 
  7103 ;; Registers used:
  7104 ;;		wreg, status,2, status,0
  7105 ;; Tracked objects:
  7106 ;;		On entry : 0/0
  7107 ;;		On exit  : 0/0
  7108 ;;		Unchanged: 0/0
  7109 ;; Data sizes:     COMRAM   BANK0   BANK1   BANK2   BANK3   BANK4   BANK5   BANK6   BANK7
  7110 ;;      Params:         0       0       0       0       0       0       0       0       0
  7111 ;;      Locals:         1       0       0       0       0       0       0       0       0
  7112 ;;      Temps:          0       0       0       0       0       0       0       0       0
  7113 ;;      Totals:         1       0       0       0       0       0       0       0       0
  7114 ;;Total ram usage:        1 bytes
  7115 ;; Hardware stack levels used:    1
  7116 ;; This function calls:
  7117 ;;		Nothing
  7118 ;; This function is called by:
  7119 ;;		i2_SYSTEM_Initialize
  7120 ;; This function uses a non-reentrant model
  7121 ;;
  7122                           
  7123                           	psect	text37
  7124  00236E                     __ptext37:
  7125                           	opt stack 0
  7126  00236E                     i2_ADC_Enable:
  7127                           	opt stack 24
  7128                           
  7129                           ;incstack = 0
  7130                           ;i2ADC_Enable@channel stored from wreg
  7131  00236E  6E2D               	movwf	i2ADC_Enable@channel,c
  7132                           
  7133                           ;adc.c: 132: switch(channel)
  7134  002370  D004               	goto	i2l2732
  7135  002372                     i2l60:
  7136                           
  7137                           ;adc.c: 135: TRISAbits.TRISA0 = 1;
  7138  002372  8092               	bsf	3986,0,c	;volatile
  7139                           
  7140                           ;adc.c: 136: ANSELAbits.ANSA0 = 1;
  7141  002374  010F               	movlb	15	; () banked
  7142  002376  815B               	bsf	91,0,b	;volatile
  7143                           
  7144                           ; BSR set to: 15
  7145                           ;adc.c: 141: }
  7146                           
  7147                           ; BSR set to: 15
  7148                           ;adc.c: 140: return 0;
  7149                           ;	Return value of i2_ADC_Enable is never used
  7150                           
  7151                           ;adc.c: 139: default:
  7152                           
  7153                           ;adc.c: 137: return 1;
  7154                           ;	Return value of i2_ADC_Enable is never used
  7155  002378  0012               	return	
  7156  00237A                     i2l2732:
  7157  00237A  502D               	movf	i2ADC_Enable@channel,w,c
  7158                           
  7159                           ; Switch size 1, requested type "space"
  7160                           ; Number of cases is 1, Range of values is 0 to 0
  7161                           ; switch strategies available:
  7162                           ; Name         Instructions Cycles
  7163                           ; simple_byte            4     3 (average)
  7164                           ;	Chosen strategy is simple_byte
  7165  00237C  0A00               	xorlw	0	; case 0
  7166  00237E  A4D8               	btfss	status,2,c
  7167  002380  0012               	return	
  7168  002382  D7F7               	goto	i2l60
  7169  002384  0012               	return		;funcret
  7170  002386                     __end_ofi2_ADC_Enable:
  7171                           	opt stack 0
  7172                           pclatu	equ	0xFFB
  7173                           pclath	equ	0xFFA
  7174                           tblptru	equ	0xFF8
  7175                           tblptrh	equ	0xFF7
  7176                           tblptrl	equ	0xFF6
  7177                           tablat	equ	0xFF5
  7178                           prodh	equ	0xFF4
  7179                           prodl	equ	0xFF3
  7180                           intcon	equ	0xFF2
  7181                           indf0	equ	0xFEF
  7182                           postinc0	equ	0xFEE
  7183                           fsr0h	equ	0xFEA
  7184                           fsr0l	equ	0xFE9
  7185                           wreg	equ	0xFE8
  7186                           indf1	equ	0xFE7
  7187                           fsr1h	equ	0xFE2
  7188                           fsr1l	equ	0xFE1
  7189                           indf2	equ	0xFDF
  7190                           postinc2	equ	0xFDE
  7191                           postdec2	equ	0xFDD
  7192                           plusw2	equ	0xFDB
  7193                           fsr2h	equ	0xFDA
  7194                           fsr2l	equ	0xFD9
  7195                           status	equ	0xFD8
  7196                           
  7197 ;; *************** function _USBCheckHIDRequest *****************
  7198 ;; Defined at:
  7199 ;;		line 153 in file "../../../../../../microchip/mla/v2015_08_10/framework/usb/src/usb_device_hid.c"
  7200 ;; Parameters:    Size  Location     Type
  7201 ;;		None
  7202 ;; Auto vars:     Size  Location     Type
  7203 ;;		None
  7204 ;; Return value:  Size  Location     Type
  7205 ;;		None               void
  7206 ;; Registers used:
  7207 ;;		wreg, status,2, status,0
  7208 ;; Tracked objects:
  7209 ;;		On entry : 0/0
  7210 ;;		On exit  : 0/0
  7211 ;;		Unchanged: 0/0
  7212 ;; Data sizes:     COMRAM   BANK0   BANK1   BANK2   BANK3   BANK4   BANK5   BANK6   BANK7
  7213 ;;      Params:         0       0       0       0       0       0       0       0       0
  7214 ;;      Locals:         0       0       0       0       0       0       0       0       0
  7215 ;;      Temps:          0       0       0       0       0       0       0       0       0
  7216 ;;      Totals:         0       0       0       0       0       0       0       0       0
  7217 ;;Total ram usage:        0 bytes
  7218 ;; Hardware stack levels used:    1
  7219 ;; This function calls:
  7220 ;;		Nothing
  7221 ;; This function is called by:
  7222 ;;		_USER_USB_CALLBACK_EVENT_HANDLER
  7223 ;; This function uses a non-reentrant model
  7224 ;;
  7225                           
  7226                           	psect	text38
  7227  0013A4                     __ptext38:
  7228                           	opt stack 0
  7229  0013A4                     _USBCheckHIDRequest:
  7230                           	opt stack 25
  7231                           
  7232                           ;usb_device_hid.c: 155: if(SetupPkt.Recipient != (0x01)) return;
  7233                           
  7234                           ;incstack = 0
  7235  0013A4  0104               	movlb	4	; () banked
  7236  0013A6  5120               	movf	32,w,b	;volatile
  7237  0013A8  0B1F               	andlw	31
  7238  0013AA  06E8               	decf	wreg,f,c
  7239  0013AC  A4D8               	btfss	status,2,c
  7240  0013AE  0012               	return	
  7241  0013B0  D001               	goto	i2l2822
  7242                           
  7243                           ; BSR set to: 4
  7244  0013B2  0012               	return	
  7245  0013B4                     i2l2822:
  7246                           
  7247                           ; BSR set to: 4
  7248                           ;usb_device_hid.c: 156: if(SetupPkt.bIntfID != 0x00) return;
  7249  0013B4  0104               	movlb	4	; () banked
  7250  0013B6  5124               	movf	36,w,b	;volatile
  7251  0013B8  A4D8               	btfss	status,2,c
  7252  0013BA  0012               	return	
  7253  0013BC  D001               	goto	i2l2826
  7254                           
  7255                           ; BSR set to: 4
  7256  0013BE  0012               	return	
  7257  0013C0                     i2l2826:
  7258                           
  7259                           ; BSR set to: 4
  7260                           ;usb_device_hid.c: 163: if(SetupPkt.bRequest == 6)
  7261  0013C0  0E06               	movlw	6
  7262  0013C2  0104               	movlb	4	; () banked
  7263  0013C4  1921               	xorwf	33,w,b	;volatile
  7264  0013C6  B4D8               	btfsc	status,2,c
  7265  0013C8  D01A               	goto	i2l2846
  7266  0013CA  D023               	goto	i2l2848
  7267                           
  7268                           ; BSR set to: 4
  7269                           ;usb_device_hid.c: 164: {
  7270                           ;usb_device_hid.c: 165: switch(SetupPkt.bDescriptorType)
  7271  0013CC  D018               	goto	i2l2846
  7272  0013CE                     i2l2830:
  7273                           
  7274                           ; BSR set to: 4
  7275                           ;usb_device_hid.c: 168: if(USBActiveConfiguration == 1)
  7276  0013CE  042A               	decf	_USBActiveConfiguration,w,c	;volatile
  7277  0013D0  A4D8               	btfss	status,2,c
  7278  0013D2  D01F               	goto	i2l2848
  7279                           
  7280                           ; BSR set to: 4
  7281                           ;usb_device_hid.c: 169: {
  7282                           ;usb_device_hid.c: 170: { inPipes[0].pSrc.bRom = (const uint8_t*)&configDescriptor1 + 18
      +                          ; inPipes[0].wCount.Val = sizeof(USB_HID_DSC)+3; inPipes[0].info.Val = 0x40 | 0x80 | 0x0
      +                          0; };
  7283  0013D4  0E7D               	movlw	low (_configDescriptor1+18)
  7284  0013D6  6E24               	movwf	_inPipes,c	;volatile
  7285  0013D8  0E08               	movlw	high (_configDescriptor1+18)
  7286  0013DA  6E25               	movwf	_inPipes+1,c	;volatile
  7287                           
  7288                           ; BSR set to: 4
  7289  0013DC  0E00               	movlw	0
  7290  0013DE  6E29               	movwf	_inPipes+5,c	;volatile
  7291  0013E0  0E09               	movlw	9
  7292  0013E2  D00A               	goto	L12
  7293  0013E4                     i2l2836:
  7294                           
  7295                           ; BSR set to: 4
  7296  0013E4  0EC0               	movlw	192
  7297  0013E6  6E27               	movwf	_inPipes+3,c	;volatile
  7298                           
  7299                           ; BSR set to: 4
  7300                           ;usb_device_hid.c: 174: }
  7301                           ;usb_device_hid.c: 175: break;
  7302  0013E8  D014               	goto	i2l2848
  7303  0013EA                     i2l2838:
  7304                           
  7305                           ; BSR set to: 4
  7306                           ;usb_device_hid.c: 178: {
  7307                           ;usb_device_hid.c: 179: { inPipes[0].pSrc.bRom = (const uint8_t*)&hid_rpt01; inPipes[0].
      +                          wCount.Val = 29; inPipes[0].info.Val = 0x40 | 0x80 | 0x00; };
  7308  0013EA  0E94               	movlw	low _hid_rpt01
  7309  0013EC  6E24               	movwf	_inPipes,c	;volatile
  7310  0013EE  0E08               	movlw	high _hid_rpt01
  7311  0013F0  6E25               	movwf	_inPipes+1,c	;volatile
  7312                           
  7313                           ; BSR set to: 4
  7314  0013F2  0E00               	movlw	0
  7315  0013F4  6E29               	movwf	_inPipes+5,c	;volatile
  7316  0013F6  0E1D               	movlw	29
  7317  0013F8                     L12:
  7318  0013F8  6E28               	movwf	_inPipes+4,c	;volatile
  7319  0013FA  D7F4               	goto	i2l2836
  7320                           
  7321                           ; BSR set to: 4
  7322                           ;usb_device_hid.c: 198: }
  7323                           
  7324                           ; BSR set to: 4
  7325                           ;usb_device_hid.c: 197: break;
  7326                           
  7327                           ;usb_device_hid.c: 185: case 0x23:
  7328                           
  7329                           ;usb_device_hid.c: 183: }
  7330                           ;usb_device_hid.c: 184: break;
  7331                           
  7332                           ; BSR set to: 4
  7333  0013FC  D00A               	goto	i2l2848
  7334  0013FE                     i2l2846:
  7335                           
  7336                           ; BSR set to: 4
  7337  0013FE  0104               	movlb	4	; () banked
  7338  001400  5123               	movf	35,w,b	;volatile
  7339                           
  7340                           ; Switch size 1, requested type "space"
  7341                           ; Number of cases is 3, Range of values is 33 to 35
  7342                           ; switch strategies available:
  7343                           ; Name         Instructions Cycles
  7344                           ; simple_byte           10     6 (average)
  7345                           ;	Chosen strategy is simple_byte
  7346  001402  0A21               	xorlw	33	; case 33
  7347  001404  B4D8               	btfsc	status,2,c
  7348  001406  D7E3               	goto	i2l2830
  7349  001408  0A03               	xorlw	3	; case 34
  7350  00140A  B4D8               	btfsc	status,2,c
  7351  00140C  D7EE               	goto	i2l2838
  7352  00140E  0A01               	xorlw	1	; case 35
  7353                           
  7354                           ; BSR set to: 4
  7355  001410  D000               	goto	i2l2848
  7356  001412                     i2l2848:
  7357                           
  7358                           ; BSR set to: 4
  7359                           ;usb_device_hid.c: 199: }
  7360                           ;usb_device_hid.c: 201: if(SetupPkt.RequestType != (0x20>>5))
  7361  001412  0104               	movlb	4	; () banked
  7362  001414  3920               	swapf	32,w,b	;volatile
  7363  001416  32E8               	rrcf	wreg,f,c
  7364  001418  0B03               	andlw	3
  7365  00141A  06E8               	decf	wreg,f,c
  7366  00141C  A4D8               	btfss	status,2,c
  7367  00141E  0012               	return	
  7368  001420  D023               	goto	i2l2874
  7369                           
  7370                           ; BSR set to: 4
  7371                           ;usb_device_hid.c: 202: {
  7372                           ;usb_device_hid.c: 203: return;
  7373  001422  0012               	return	
  7374                           
  7375                           ; BSR set to: 4
  7376                           ;usb_device_hid.c: 204: }
  7377                           ;usb_device_hid.c: 206: switch(SetupPkt.bRequest)
  7378  001424  D021               	goto	i2l2874
  7379                           
  7380                           ; BSR set to: 4
  7381                           ;usb_device_hid.c: 217: break;
  7382                           
  7383                           ;usb_device_hid.c: 213: case 0x09:
  7384                           
  7385                           ; BSR set to: 4
  7386                           ;usb_device_hid.c: 212: break;
  7387                           
  7388                           ;usb_device_hid.c: 207: {
  7389                           ;usb_device_hid.c: 208: case 0x01:
  7390  001426  0012               	return	
  7391  001428                     i2l2852:
  7392                           
  7393                           ; BSR set to: 4
  7394                           ;usb_device_hid.c: 219: { inPipes[0].pSrc.bRam = (uint8_t*)&idle_rate; inPipes[0].wCount
      +                          .Val = 1; inPipes[0].info.Val = 0x40 | 0x80 | 0x01; };
  7395  001428  0E70               	movlw	low _idle_rate
  7396  00142A  6E24               	movwf	_inPipes,c	;volatile
  7397  00142C  0E00               	movlw	high _idle_rate
  7398  00142E  6E25               	movwf	_inPipes+1,c	;volatile
  7399                           
  7400                           ; BSR set to: 4
  7401  001430  0E00               	movlw	0
  7402  001432  6E29               	movwf	_inPipes+5,c	;volatile
  7403  001434  0E01               	movlw	1
  7404  001436  6E28               	movwf	_inPipes+4,c	;volatile
  7405                           
  7406                           ; BSR set to: 4
  7407  001438  0EC1               	movlw	193
  7408  00143A  6E27               	movwf	_inPipes+3,c	;volatile
  7409                           
  7410                           ;usb_device_hid.c: 223: break;
  7411  00143C  0012               	return	
  7412  00143E                     i2l2858:
  7413                           
  7414                           ; BSR set to: 4
  7415                           ;usb_device_hid.c: 225: inPipes[0].info.Val = 0x00 | 0x80;
  7416  00143E  0E80               	movlw	128
  7417  001440  6E27               	movwf	_inPipes+3,c	;volatile
  7418                           
  7419                           ; BSR set to: 4
  7420                           ;usb_device_hid.c: 226: idle_rate = ((USB_SETUP_SET_IDLE_RATE*)&SetupPkt)->duration;
  7421  001442  C423 F070          	movff	1059,_idle_rate
  7422                           
  7423                           ;usb_device_hid.c: 227: ;
  7424                           ;usb_device_hid.c: 228: break;
  7425  001446  0012               	return	
  7426  001448                     i2l2862:
  7427                           
  7428                           ; BSR set to: 4
  7429                           ;usb_device_hid.c: 230: { inPipes[0].pSrc.bRam = (uint8_t*)&active_protocol; inPipes[0].
      +                          wCount.Val = 1; inPipes[0].info.Val = 0x00 | 0x80 | 0x01; };
  7430  001448  0E6F               	movlw	low _active_protocol
  7431  00144A  6E24               	movwf	_inPipes,c	;volatile
  7432  00144C  0E00               	movlw	high _active_protocol
  7433  00144E  6E25               	movwf	_inPipes+1,c	;volatile
  7434                           
  7435                           ; BSR set to: 4
  7436  001450  0E00               	movlw	0
  7437  001452  6E29               	movwf	_inPipes+5,c	;volatile
  7438  001454  0E01               	movlw	1
  7439  001456  6E28               	movwf	_inPipes+4,c	;volatile
  7440                           
  7441                           ; BSR set to: 4
  7442  001458  0E81               	movlw	129
  7443  00145A  6E27               	movwf	_inPipes+3,c	;volatile
  7444                           
  7445                           ;usb_device_hid.c: 234: break;
  7446  00145C  0012               	return	
  7447  00145E                     i2l2868:
  7448                           
  7449                           ; BSR set to: 4
  7450                           ;usb_device_hid.c: 236: inPipes[0].info.Val = 0x00 | 0x80;
  7451  00145E  0E80               	movlw	128
  7452  001460  6E27               	movwf	_inPipes+3,c	;volatile
  7453                           
  7454                           ; BSR set to: 4
  7455                           ;usb_device_hid.c: 237: active_protocol = ((USB_SETUP_SET_PROTOCOL*)&SetupPkt)->protocol
      +                          ;
  7456  001462  C422 F06F          	movff	1058,_active_protocol
  7457                           
  7458                           ; BSR set to: 4
  7459                           ;usb_device_hid.c: 239: }
  7460                           
  7461                           ;usb_device_hid.c: 238: break;
  7462  001466  0012               	return	
  7463  001468                     i2l2874:
  7464                           
  7465                           ; BSR set to: 4
  7466  001468  0104               	movlb	4	; () banked
  7467  00146A  5121               	movf	33,w,b	;volatile
  7468                           
  7469                           ; Switch size 1, requested type "space"
  7470                           ; Number of cases is 6, Range of values is 1 to 11
  7471                           ; switch strategies available:
  7472                           ; Name         Instructions Cycles
  7473                           ; simple_byte           19    10 (average)
  7474                           ;	Chosen strategy is simple_byte
  7475  00146C  0A01               	xorlw	1	; case 1
  7476  00146E  B4D8               	btfsc	status,2,c
  7477  001470  0012               	return	
  7478  001472  0A03               	xorlw	3	; case 2
  7479  001474  B4D8               	btfsc	status,2,c
  7480  001476  D7D8               	goto	i2l2852
  7481  001478  0A01               	xorlw	1	; case 3
  7482  00147A  B4D8               	btfsc	status,2,c
  7483  00147C  D7E5               	goto	i2l2862
  7484  00147E  0A0A               	xorlw	10	; case 9
  7485  001480  B4D8               	btfsc	status,2,c
  7486  001482  0012               	return	
  7487  001484  0A03               	xorlw	3	; case 10
  7488  001486  B4D8               	btfsc	status,2,c
  7489  001488  D7DA               	goto	i2l2858
  7490  00148A  0A01               	xorlw	1	; case 11
  7491  00148C  A4D8               	btfss	status,2,c
  7492  00148E  0012               	return	
  7493  001490  D7E6               	goto	i2l2868
  7494                           
  7495                           ; BSR set to: 4
  7496                           
  7497                           ; BSR set to: 4
  7498  001492  0012               	return		;funcret
  7499  001494                     __end_of_USBCheckHIDRequest:
  7500                           	opt stack 0
  7501                           pclatu	equ	0xFFB
  7502                           pclath	equ	0xFFA
  7503                           tblptru	equ	0xFF8
  7504                           tblptrh	equ	0xFF7
  7505                           tblptrl	equ	0xFF6
  7506                           tablat	equ	0xFF5
  7507                           prodh	equ	0xFF4
  7508                           prodl	equ	0xFF3
  7509                           intcon	equ	0xFF2
  7510                           indf0	equ	0xFEF
  7511                           postinc0	equ	0xFEE
  7512                           fsr0h	equ	0xFEA
  7513                           fsr0l	equ	0xFE9
  7514                           wreg	equ	0xFE8
  7515                           indf1	equ	0xFE7
  7516                           fsr1h	equ	0xFE2
  7517                           fsr1l	equ	0xFE1
  7518                           indf2	equ	0xFDF
  7519                           postinc2	equ	0xFDE
  7520                           postdec2	equ	0xFDD
  7521                           plusw2	equ	0xFDB
  7522                           fsr2h	equ	0xFDA
  7523                           fsr2l	equ	0xFD9
  7524                           status	equ	0xFD8
  7525                           
  7526 ;; *************** function _APP_LEDUpdateUSBStatus *****************
  7527 ;; Defined at:
  7528 ;;		line 75 in file "../src/app_led_usb_status.c"
  7529 ;; Parameters:    Size  Location     Type
  7530 ;;		None
  7531 ;; Auto vars:     Size  Location     Type
  7532 ;;		None
  7533 ;; Return value:  Size  Location     Type
  7534 ;;		None               void
  7535 ;; Registers used:
  7536 ;;		wreg, status,2, status,0, cstack
  7537 ;; Tracked objects:
  7538 ;;		On entry : 0/0
  7539 ;;		On exit  : 0/0
  7540 ;;		Unchanged: 0/0
  7541 ;; Data sizes:     COMRAM   BANK0   BANK1   BANK2   BANK3   BANK4   BANK5   BANK6   BANK7
  7542 ;;      Params:         0       0       0       0       0       0       0       0       0
  7543 ;;      Locals:         0       0       0       0       0       0       0       0       0
  7544 ;;      Temps:          0       0       0       0       0       0       0       0       0
  7545 ;;      Totals:         0       0       0       0       0       0       0       0       0
  7546 ;;Total ram usage:        0 bytes
  7547 ;; Hardware stack levels used:    1
  7548 ;; Hardware stack levels required when called:    1
  7549 ;; This function calls:
  7550 ;;		_LED_Off
  7551 ;;		_LED_On
  7552 ;; This function is called by:
  7553 ;;		_USER_USB_CALLBACK_EVENT_HANDLER
  7554 ;; This function uses a non-reentrant model
  7555 ;;
  7556                           
  7557                           	psect	text39
  7558  001CCC                     __ptext39:
  7559                           	opt stack 0
  7560  001CCC                     _APP_LEDUpdateUSBStatus:
  7561                           	opt stack 24
  7562                           
  7563                           ;app_led_usb_status.c: 77: static uint16_t ledCount = 0;
  7564                           ;app_led_usb_status.c: 79: if(USBBusIsSuspended == 1)
  7565                           
  7566                           ; BSR set to: 4
  7567                           ;incstack = 0
  7568  001CCC  0419               	decf	_USBBusIsSuspended,w,c	;volatile
  7569  001CCE  A4D8               	btfss	status,2,c
  7570  001CD0  D038               	goto	i2l2808
  7571                           
  7572                           ;app_led_usb_status.c: 80: {
  7573                           ;app_led_usb_status.c: 81: LED_Off(LED_NONE);
  7574  001CD2  0E00               	movlw	0
  7575  001CD4  EC9E  F011         	call	_LED_Off
  7576                           
  7577                           ;app_led_usb_status.c: 82: return;
  7578  001CD8  0012               	return	
  7579                           
  7580                           ;app_led_usb_status.c: 83: }
  7581                           ;app_led_usb_status.c: 85: switch(USBDeviceState)
  7582  001CDA  D033               	goto	i2l2808
  7583  001CDC                     i2l2782:
  7584                           
  7585                           ;app_led_usb_status.c: 90: if(ledCount == 1)
  7586  001CDC  040D               	decf	APP_LEDUpdateUSBStatus@ledCount,w,c
  7587  001CDE  100E               	iorwf	APP_LEDUpdateUSBStatus@ledCount+1,w,c
  7588  001CE0  A4D8               	btfss	status,2,c
  7589  001CE2  D004               	goto	i2l2786
  7590                           
  7591                           ;app_led_usb_status.c: 91: {
  7592                           ;app_led_usb_status.c: 92: LED_On(LED_NONE);
  7593  001CE4  0E00               	movlw	0
  7594  001CE6  EC91  F011         	call	_LED_On
  7595                           
  7596                           ;app_led_usb_status.c: 93: }
  7597  001CEA  D030               	goto	i2l2810
  7598  001CEC                     i2l2786:
  7599                           
  7600                           ;app_led_usb_status.c: 94: else if(ledCount == 75)
  7601  001CEC  0E4B               	movlw	75
  7602  001CEE  180D               	xorwf	APP_LEDUpdateUSBStatus@ledCount,w,c
  7603  001CF0  100E               	iorwf	APP_LEDUpdateUSBStatus@ledCount+1,w,c
  7604  001CF2  A4D8               	btfss	status,2,c
  7605  001CF4  D004               	goto	i2l2790
  7606                           
  7607                           ;app_led_usb_status.c: 95: {
  7608                           ;app_led_usb_status.c: 96: LED_Off(LED_NONE);
  7609  001CF6  0E00               	movlw	0
  7610  001CF8  EC9E  F011         	call	_LED_Off
  7611                           
  7612                           ;app_led_usb_status.c: 97: }
  7613  001CFC  D027               	goto	i2l2810
  7614  001CFE                     i2l2790:
  7615                           
  7616                           ;app_led_usb_status.c: 98: else if(ledCount > 150)
  7617  001CFE  500E               	movf	APP_LEDUpdateUSBStatus@ledCount+1,w,c
  7618  001D00  E104               	bnz	i2u167_40
  7619  001D02  0E97               	movlw	151
  7620  001D04  5C0D               	subwf	APP_LEDUpdateUSBStatus@ledCount,w,c
  7621  001D06  A0D8               	btfss	status,0,c
  7622  001D08  D021               	goto	i2l2810
  7623  001D0A                     i2u167_40:
  7624                           
  7625                           ;app_led_usb_status.c: 99: {
  7626                           ;app_led_usb_status.c: 100: ledCount = 0;
  7627  001D0A  0E00               	movlw	0
  7628  001D0C  6E0E               	movwf	APP_LEDUpdateUSBStatus@ledCount+1,c
  7629  001D0E  0E00               	movlw	0
  7630  001D10  6E0D               	movwf	APP_LEDUpdateUSBStatus@ledCount,c
  7631                           
  7632                           ;app_led_usb_status.c: 101: }
  7633                           ;app_led_usb_status.c: 102: break;
  7634  001D12  D01C               	goto	i2l2810
  7635  001D14                     i2l2794:
  7636                           
  7637                           ;app_led_usb_status.c: 107: if(ledCount == 1)
  7638  001D14  040D               	decf	APP_LEDUpdateUSBStatus@ledCount,w,c
  7639  001D16  100E               	iorwf	APP_LEDUpdateUSBStatus@ledCount+1,w,c
  7640  001D18  A4D8               	btfss	status,2,c
  7641  001D1A  D004               	goto	i2l2798
  7642                           
  7643                           ;app_led_usb_status.c: 108: {
  7644                           ;app_led_usb_status.c: 109: LED_On(LED_NONE);
  7645  001D1C  0E00               	movlw	0
  7646  001D1E  EC91  F011         	call	_LED_On
  7647                           
  7648                           ;app_led_usb_status.c: 110: }
  7649  001D22  D014               	goto	i2l2810
  7650  001D24                     i2l2798:
  7651                           
  7652                           ;app_led_usb_status.c: 111: else if(ledCount == 50)
  7653  001D24  0E32               	movlw	50
  7654  001D26  180D               	xorwf	APP_LEDUpdateUSBStatus@ledCount,w,c
  7655  001D28  100E               	iorwf	APP_LEDUpdateUSBStatus@ledCount+1,w,c
  7656  001D2A  A4D8               	btfss	status,2,c
  7657  001D2C  D004               	goto	i2l2802
  7658                           
  7659                           ;app_led_usb_status.c: 112: {
  7660                           ;app_led_usb_status.c: 113: LED_Off(LED_NONE);
  7661  001D2E  0E00               	movlw	0
  7662  001D30  EC9E  F011         	call	_LED_Off
  7663                           
  7664                           ;app_led_usb_status.c: 114: }
  7665  001D34  D00B               	goto	i2l2810
  7666  001D36                     i2l2802:
  7667                           
  7668                           ;app_led_usb_status.c: 115: else if(ledCount > 950)
  7669  001D36  0EB7               	movlw	183
  7670  001D38  5C0D               	subwf	APP_LEDUpdateUSBStatus@ledCount,w,c
  7671  001D3A  0E03               	movlw	3
  7672  001D3C  580E               	subwfb	APP_LEDUpdateUSBStatus@ledCount+1,w,c
  7673  001D3E  D7E3               	goto	L13
  7674                           
  7675                           ;app_led_usb_status.c: 120: }
  7676                           
  7677                           ;app_led_usb_status.c: 118: }
  7678                           ;app_led_usb_status.c: 119: break;
  7679                           
  7680                           ;app_led_usb_status.c: 116: {
  7681                           ;app_led_usb_status.c: 117: ledCount = 0;
  7682  001D40  D005               	goto	i2l2810
  7683  001D42                     i2l2808:
  7684  001D42  501D               	movf	_USBDeviceState,w,c	;volatile
  7685                           
  7686                           ; Switch size 1, requested type "space"
  7687                           ; Number of cases is 1, Range of values is 32 to 32
  7688                           ; switch strategies available:
  7689                           ; Name         Instructions Cycles
  7690                           ; simple_byte            4     3 (average)
  7691                           ;	Chosen strategy is simple_byte
  7692  001D44  0A20               	xorlw	32	; case 32
  7693  001D46  B4D8               	btfsc	status,2,c
  7694  001D48  D7C9               	goto	i2l2782
  7695  001D4A  D7E4               	goto	i2l2794
  7696  001D4C                     i2l2810:
  7697                           
  7698                           ;app_led_usb_status.c: 123: ledCount++;
  7699  001D4C  4A0D               	infsnz	APP_LEDUpdateUSBStatus@ledCount,f,c
  7700  001D4E  2A0E               	incf	APP_LEDUpdateUSBStatus@ledCount+1,f,c
  7701  001D50  0012               	return		;funcret
  7702  001D52                     __end_of_APP_LEDUpdateUSBStatus:
  7703                           	opt stack 0
  7704                           pclatu	equ	0xFFB
  7705                           pclath	equ	0xFFA
  7706                           tblptru	equ	0xFF8
  7707                           tblptrh	equ	0xFF7
  7708                           tblptrl	equ	0xFF6
  7709                           tablat	equ	0xFF5
  7710                           prodh	equ	0xFF4
  7711                           prodl	equ	0xFF3
  7712                           intcon	equ	0xFF2
  7713                           indf0	equ	0xFEF
  7714                           postinc0	equ	0xFEE
  7715                           fsr0h	equ	0xFEA
  7716                           fsr0l	equ	0xFE9
  7717                           wreg	equ	0xFE8
  7718                           indf1	equ	0xFE7
  7719                           fsr1h	equ	0xFE2
  7720                           fsr1l	equ	0xFE1
  7721                           indf2	equ	0xFDF
  7722                           postinc2	equ	0xFDE
  7723                           postdec2	equ	0xFDD
  7724                           plusw2	equ	0xFDB
  7725                           fsr2h	equ	0xFDA
  7726                           fsr2l	equ	0xFD9
  7727                           status	equ	0xFD8
  7728                           
  7729 ;; *************** function _LED_On *****************
  7730 ;; Defined at:
  7731 ;;		line 67 in file "../bsp_pic18f45k50/leds.c"
  7732 ;; Parameters:    Size  Location     Type
  7733 ;;  led             1    wreg     enum E2
  7734 ;; Auto vars:     Size  Location     Type
  7735 ;;  led             1    0[COMRAM] enum E2
  7736 ;; Return value:  Size  Location     Type
  7737 ;;		None               void
  7738 ;; Registers used:
  7739 ;;		wreg, status,2, status,0
  7740 ;; Tracked objects:
  7741 ;;		On entry : 0/0
  7742 ;;		On exit  : 0/0
  7743 ;;		Unchanged: 0/0
  7744 ;; Data sizes:     COMRAM   BANK0   BANK1   BANK2   BANK3   BANK4   BANK5   BANK6   BANK7
  7745 ;;      Params:         0       0       0       0       0       0       0       0       0
  7746 ;;      Locals:         1       0       0       0       0       0       0       0       0
  7747 ;;      Temps:          0       0       0       0       0       0       0       0       0
  7748 ;;      Totals:         1       0       0       0       0       0       0       0       0
  7749 ;;Total ram usage:        1 bytes
  7750 ;; Hardware stack levels used:    1
  7751 ;; This function calls:
  7752 ;;		Nothing
  7753 ;; This function is called by:
  7754 ;;		_APP_LEDUpdateUSBStatus
  7755 ;; This function uses a non-reentrant model
  7756 ;;
  7757                           
  7758                           	psect	text40
  7759  002322                     __ptext40:
  7760                           	opt stack 0
  7761  002322                     _LED_On:
  7762                           	opt stack 24
  7763                           
  7764                           ;incstack = 0
  7765                           ;LED_On@led stored from wreg
  7766  002322  6E2D               	movwf	LED_On@led,c
  7767                           
  7768                           ;leds.c: 69: switch(led)
  7769  002324  D002               	goto	i2l2702
  7770  002326                     i2l77:
  7771                           
  7772                           ;leds.c: 72: LATCbits.LATC2 = 1;
  7773  002326  848B               	bsf	3979,2,c	;volatile
  7774                           
  7775                           ;leds.c: 89: }
  7776                           
  7777                           ;leds.c: 88: break;
  7778                           
  7779                           ;leds.c: 87: case LED_NONE:
  7780                           
  7781                           ;leds.c: 73: break;
  7782  002328  0012               	return	
  7783  00232A                     i2l2702:
  7784  00232A  502D               	movf	LED_On@led,w,c
  7785                           
  7786                           ; Switch size 1, requested type "space"
  7787                           ; Number of cases is 2, Range of values is 0 to 1
  7788                           ; switch strategies available:
  7789                           ; Name         Instructions Cycles
  7790                           ; simple_byte            7     4 (average)
  7791                           ;	Chosen strategy is simple_byte
  7792  00232C  0A00               	xorlw	0	; case 0
  7793  00232E  B4D8               	btfsc	status,2,c
  7794  002330  0012               	return	
  7795  002332  0A01               	xorlw	1	; case 1
  7796  002334  A4D8               	btfss	status,2,c
  7797  002336  0012               	return	
  7798  002338  D7F6               	goto	i2l77
  7799  00233A  0012               	return		;funcret
  7800  00233C                     __end_of_LED_On:
  7801                           	opt stack 0
  7802                           pclatu	equ	0xFFB
  7803                           pclath	equ	0xFFA
  7804                           tblptru	equ	0xFF8
  7805                           tblptrh	equ	0xFF7
  7806                           tblptrl	equ	0xFF6
  7807                           tablat	equ	0xFF5
  7808                           prodh	equ	0xFF4
  7809                           prodl	equ	0xFF3
  7810                           intcon	equ	0xFF2
  7811                           indf0	equ	0xFEF
  7812                           postinc0	equ	0xFEE
  7813                           fsr0h	equ	0xFEA
  7814                           fsr0l	equ	0xFE9
  7815                           wreg	equ	0xFE8
  7816                           indf1	equ	0xFE7
  7817                           fsr1h	equ	0xFE2
  7818                           fsr1l	equ	0xFE1
  7819                           indf2	equ	0xFDF
  7820                           postinc2	equ	0xFDE
  7821                           postdec2	equ	0xFDD
  7822                           plusw2	equ	0xFDB
  7823                           fsr2h	equ	0xFDA
  7824                           fsr2l	equ	0xFD9
  7825                           status	equ	0xFD8
  7826                           
  7827 ;; *************** function _LED_Off *****************
  7828 ;; Defined at:
  7829 ;;		line 108 in file "../bsp_pic18f45k50/leds.c"
  7830 ;; Parameters:    Size  Location     Type
  7831 ;;  led             1    wreg     enum E2
  7832 ;; Auto vars:     Size  Location     Type
  7833 ;;  led             1    0[COMRAM] enum E2
  7834 ;; Return value:  Size  Location     Type
  7835 ;;		None               void
  7836 ;; Registers used:
  7837 ;;		wreg, status,2, status,0
  7838 ;; Tracked objects:
  7839 ;;		On entry : 0/0
  7840 ;;		On exit  : 0/0
  7841 ;;		Unchanged: 0/0
  7842 ;; Data sizes:     COMRAM   BANK0   BANK1   BANK2   BANK3   BANK4   BANK5   BANK6   BANK7
  7843 ;;      Params:         0       0       0       0       0       0       0       0       0
  7844 ;;      Locals:         1       0       0       0       0       0       0       0       0
  7845 ;;      Temps:          0       0       0       0       0       0       0       0       0
  7846 ;;      Totals:         1       0       0       0       0       0       0       0       0
  7847 ;;Total ram usage:        1 bytes
  7848 ;; Hardware stack levels used:    1
  7849 ;; This function calls:
  7850 ;;		Nothing
  7851 ;; This function is called by:
  7852 ;;		_APP_LEDUpdateUSBStatus
  7853 ;; This function uses a non-reentrant model
  7854 ;;
  7855                           
  7856                           	psect	text41
  7857  00233C                     __ptext41:
  7858                           	opt stack 0
  7859  00233C                     _LED_Off:
  7860                           	opt stack 24
  7861                           
  7862                           ;incstack = 0
  7863                           ;LED_Off@led stored from wreg
  7864  00233C  6E2D               	movwf	LED_Off@led,c
  7865                           
  7866                           ;leds.c: 110: switch(led)
  7867  00233E  D002               	goto	i2l2708
  7868  002340                     i2l84:
  7869                           
  7870                           ;leds.c: 113: LATCbits.LATC2 = 0;
  7871  002340  948B               	bcf	3979,2,c	;volatile
  7872                           
  7873                           ;leds.c: 130: }
  7874                           
  7875                           ;leds.c: 129: break;
  7876                           
  7877                           ;leds.c: 128: case LED_NONE:
  7878                           
  7879                           ;leds.c: 114: break;
  7880  002342  0012               	return	
  7881  002344                     i2l2708:
  7882  002344  502D               	movf	LED_Off@led,w,c
  7883                           
  7884                           ; Switch size 1, requested type "space"
  7885                           ; Number of cases is 2, Range of values is 0 to 1
  7886                           ; switch strategies available:
  7887                           ; Name         Instructions Cycles
  7888                           ; simple_byte            7     4 (average)
  7889                           ;	Chosen strategy is simple_byte
  7890  002346  0A00               	xorlw	0	; case 0
  7891  002348  B4D8               	btfsc	status,2,c
  7892  00234A  0012               	return	
  7893  00234C  0A01               	xorlw	1	; case 1
  7894  00234E  A4D8               	btfss	status,2,c
  7895  002350  0012               	return	
  7896  002352  D7F6               	goto	i2l84
  7897  002354  0012               	return		;funcret
  7898  002356                     __end_of_LED_Off:
  7899                           	opt stack 0
  7900                           pclatu	equ	0xFFB
  7901                           pclath	equ	0xFFA
  7902                           tblptru	equ	0xFF8
  7903                           tblptrh	equ	0xFF7
  7904                           tblptrl	equ	0xFF6
  7905                           tablat	equ	0xFF5
  7906                           prodh	equ	0xFF4
  7907                           prodl	equ	0xFF3
  7908                           intcon	equ	0xFF2
  7909                           indf0	equ	0xFEF
  7910                           postinc0	equ	0xFEE
  7911                           fsr0h	equ	0xFEA
  7912                           fsr0l	equ	0xFE9
  7913                           wreg	equ	0xFE8
  7914                           indf1	equ	0xFE7
  7915                           fsr1h	equ	0xFE2
  7916                           fsr1l	equ	0xFE1
  7917                           indf2	equ	0xFDF
  7918                           postinc2	equ	0xFDE
  7919                           postdec2	equ	0xFDD
  7920                           plusw2	equ	0xFDB
  7921                           fsr2h	equ	0xFDA
  7922                           fsr2l	equ	0xFD9
  7923                           status	equ	0xFD8
  7924                           
  7925 ;; *************** function _APP_DeviceCustomHIDInitialize *****************
  7926 ;; Defined at:
  7927 ;;		line 84 in file "../src/app_device_custom_hid.c"
  7928 ;; Parameters:    Size  Location     Type
  7929 ;;		None
  7930 ;; Auto vars:     Size  Location     Type
  7931 ;;		None
  7932 ;; Return value:  Size  Location     Type
  7933 ;;		None               void
  7934 ;; Registers used:
  7935 ;;		wreg, fsr2l, fsr2h, status,2, status,0, prodl, prodh, cstack
  7936 ;; Tracked objects:
  7937 ;;		On entry : 0/0
  7938 ;;		On exit  : 0/0
  7939 ;;		Unchanged: 0/0
  7940 ;; Data sizes:     COMRAM   BANK0   BANK1   BANK2   BANK3   BANK4   BANK5   BANK6   BANK7
  7941 ;;      Params:         0       0       0       0       0       0       0       0       0
  7942 ;;      Locals:         0       0       0       0       0       0       0       0       0
  7943 ;;      Temps:          0       0       0       0       0       0       0       0       0
  7944 ;;      Totals:         0       0       0       0       0       0       0       0       0
  7945 ;;Total ram usage:        0 bytes
  7946 ;; Hardware stack levels used:    1
  7947 ;; Hardware stack levels required when called:    2
  7948 ;; This function calls:
  7949 ;;		_USBEnableEndpoint
  7950 ;;		i2_USBTransferOnePacket
  7951 ;; This function is called by:
  7952 ;;		_USER_USB_CALLBACK_EVENT_HANDLER
  7953 ;; This function uses a non-reentrant model
  7954 ;;
  7955                           
  7956                           	psect	text42
  7957  0020E2                     __ptext42:
  7958                           	opt stack 0
  7959  0020E2                     _APP_DeviceCustomHIDInitialize:
  7960                           	opt stack 23
  7961                           
  7962                           ;app_device_custom_hid.c: 88: USBInHandle = 0;
  7963                           
  7964                           ;incstack = 0
  7965  0020E2  0E00               	movlw	0
  7966  0020E4  0100               	movlb	0	; () banked
  7967  0020E6  6F68               	movwf	_USBInHandle& (0+255),b
  7968  0020E8  0E00               	movlw	0
  7969  0020EA  0100               	movlb	0	; () banked
  7970  0020EC  6F69               	movwf	(_USBInHandle+1)& (0+255),b
  7971                           
  7972                           ; BSR set to: 0
  7973                           ;app_device_custom_hid.c: 91: USBEnableEndpoint(1, 0x02|0x04|0x10|0x08);
  7974  0020EE  0E1E               	movlw	30
  7975  0020F0  6E35               	movwf	USBEnableEndpoint@options,c
  7976  0020F2  0E01               	movlw	1
  7977  0020F4  EC1B  F010         	call	_USBEnableEndpoint
  7978                           
  7979                           ;app_device_custom_hid.c: 94: USBOutHandle = (volatile void*)USBTransferOnePacket(1,0,(u
      +                          int8_t*)&ReceivedDataBuffer,64);
  7980  0020F8  0E00               	movlw	0
  7981  0020FA  6E2D               	movwf	i2USBTransferOnePacket@dir,c
  7982  0020FC  0E00               	movlw	0
  7983  0020FE  6E2E               	movwf	i2USBTransferOnePacket@data,c
  7984  002100  0E05               	movlw	5
  7985  002102  6E2F               	movwf	i2USBTransferOnePacket@data+1,c
  7986  002104  0E40               	movlw	64
  7987  002106  6E30               	movwf	i2USBTransferOnePacket@len,c
  7988  002108  0E01               	movlw	1
  7989  00210A  EC6A  F00C         	call	i2_USBTransferOnePacket
  7990  00210E  C02D  F06A         	movff	?i2_USBTransferOnePacket,_USBOutHandle
  7991  002112  C02E  F06B         	movff	?i2_USBTransferOnePacket+1,_USBOutHandle+1
  7992  002116  0012               	return		;funcret
  7993  002118                     __end_of_APP_DeviceCustomHIDInitialize:
  7994                           	opt stack 0
  7995                           pclatu	equ	0xFFB
  7996                           pclath	equ	0xFFA
  7997                           tblptru	equ	0xFF8
  7998                           tblptrh	equ	0xFF7
  7999                           tblptrl	equ	0xFF6
  8000                           tablat	equ	0xFF5
  8001                           prodh	equ	0xFF4
  8002                           prodl	equ	0xFF3
  8003                           intcon	equ	0xFF2
  8004                           indf0	equ	0xFEF
  8005                           postinc0	equ	0xFEE
  8006                           fsr0h	equ	0xFEA
  8007                           fsr0l	equ	0xFE9
  8008                           wreg	equ	0xFE8
  8009                           indf1	equ	0xFE7
  8010                           fsr1h	equ	0xFE2
  8011                           fsr1l	equ	0xFE1
  8012                           indf2	equ	0xFDF
  8013                           postinc2	equ	0xFDE
  8014                           postdec2	equ	0xFDD
  8015                           plusw2	equ	0xFDB
  8016                           fsr2h	equ	0xFDA
  8017                           fsr2l	equ	0xFD9
  8018                           status	equ	0xFD8
  8019                           
  8020 ;; *************** function i2_USBTransferOnePacket *****************
  8021 ;; Defined at:
  8022 ;;		line 1013 in file "../../../../../../microchip/mla/v2015_08_10/framework/usb/src/usb_device.c"
  8023 ;; Parameters:    Size  Location     Type
  8024 ;;  ep              1    wreg     unsigned char 
  8025 ;;  dir             1    0[COMRAM] unsigned char 
  8026 ;;  data            2    1[COMRAM] PTR unsigned char 
  8027 ;;		 -> ToSendDataBuffer(64), ReceivedDataBuffer(64), 
  8028 ;;  len             1    3[COMRAM] unsigned char 
  8029 ;; Auto vars:     Size  Location     Type
  8030 ;;  ep              1    4[COMRAM] unsigned char 
  8031 ;;  USBTransferO    2    5[COMRAM] PTR volatile struct __BD
  8032 ;;		 -> BDT(32), NULL(0), 
  8033 ;; Return value:  Size  Location     Type
  8034 ;;                  2    0[COMRAM] PTR void 
  8035 ;; Registers used:
  8036 ;;		wreg, fsr2l, fsr2h, status,2, status,0, prodl, prodh
  8037 ;; Tracked objects:
  8038 ;;		On entry : 0/0
  8039 ;;		On exit  : 0/0
  8040 ;;		Unchanged: 0/0
  8041 ;; Data sizes:     COMRAM   BANK0   BANK1   BANK2   BANK3   BANK4   BANK5   BANK6   BANK7
  8042 ;;      Params:         4       0       0       0       0       0       0       0       0
  8043 ;;      Locals:         3       0       0       0       0       0       0       0       0
  8044 ;;      Temps:          0       0       0       0       0       0       0       0       0
  8045 ;;      Totals:         7       0       0       0       0       0       0       0       0
  8046 ;;Total ram usage:        7 bytes
  8047 ;; Hardware stack levels used:    1
  8048 ;; This function calls:
  8049 ;;		Nothing
  8050 ;; This function is called by:
  8051 ;;		_APP_DeviceCustomHIDInitialize
  8052 ;; This function uses a non-reentrant model
  8053 ;;
  8054                           
  8055                           	psect	text43
  8056  0018D4                     __ptext43:
  8057                           	opt stack 0
  8058  0018D4                     i2_USBTransferOnePacket:
  8059                           	opt stack 24
  8060                           
  8061                           ;incstack = 0
  8062                           ;i2USBTransferOnePacket@ep stored from wreg
  8063  0018D4  6E31               	movwf	i2USBTransferOnePacket@ep,c
  8064                           
  8065                           ;usb_device.c: 1015: volatile BDT_ENTRY* handle;
  8066                           ;usb_device.c: 1018: if(dir != 0)
  8067  0018D6  502D               	movf	i2USBTransferOnePacket@dir,w,c
  8068  0018D8  B4D8               	btfsc	status,2,c
  8069  0018DA  D007               	goto	i2l2750
  8070                           
  8071                           ;usb_device.c: 1019: {
  8072                           ;usb_device.c: 1021: handle = pBDTEntryIn[ep];
  8073  0018DC  5031               	movf	i2USBTransferOnePacket@ep,w,c
  8074  0018DE  0D02               	mullw	2
  8075  0018E0  0E09               	movlw	low _pBDTEntryIn
  8076  0018E2  24F3               	addwf	prodl,w,c
  8077  0018E4  6ED9               	movwf	fsr2l,c
  8078  0018E6  0E00               	movlw	high _pBDTEntryIn
  8079  0018E8  D006               	goto	L14
  8080  0018EA                     i2l2750:
  8081                           
  8082                           ;usb_device.c: 1023: else
  8083                           ;usb_device.c: 1024: {
  8084                           ;usb_device.c: 1026: handle = pBDTEntryOut[ep];
  8085  0018EA  5031               	movf	i2USBTransferOnePacket@ep,w,c
  8086  0018EC  0D02               	mullw	2
  8087  0018EE  0E64               	movlw	low _pBDTEntryOut
  8088  0018F0  24F3               	addwf	prodl,w,c
  8089  0018F2  6ED9               	movwf	fsr2l,c
  8090  0018F4  0E00               	movlw	high _pBDTEntryOut
  8091  0018F6                     L14:
  8092  0018F6  20F4               	addwfc	prodh,w,c
  8093  0018F8  6EDA               	movwf	fsr2h,c
  8094  0018FA  CFDE F032          	movff	postinc2,i2USBTransferOnePacket@handle
  8095  0018FE  CFDD F033          	movff	postdec2,i2USBTransferOnePacket@handle+1
  8096  001902  D000               	goto	i2l2752
  8097  001904                     i2l2752:
  8098                           
  8099                           ;usb_device.c: 1027: }
  8100                           ;usb_device.c: 1031: if(handle == 0)
  8101  001904  5032               	movf	i2USBTransferOnePacket@handle,w,c
  8102  001906  1033               	iorwf	i2USBTransferOnePacket@handle+1,w,c
  8103  001908  A4D8               	btfss	status,2,c
  8104  00190A  D005               	goto	i2l2758
  8105                           
  8106                           ;usb_device.c: 1032: {
  8107                           ;usb_device.c: 1033: return 0;
  8108  00190C  0E00               	movlw	0
  8109  00190E  6E2D               	movwf	?i2_USBTransferOnePacket,c
  8110  001910  0E00               	movlw	0
  8111  001912  6E2E               	movwf	?i2_USBTransferOnePacket+1,c
  8112  001914  0012               	return	
  8113  001916                     i2l2758:
  8114                           
  8115                           ;usb_device.c: 1034: }
  8116                           ;usb_device.c: 1047: handle->ADR = ((uint16_t)(data));
  8117  001916  EE20 F002          	lfsr	2,2
  8118  00191A  5032               	movf	i2USBTransferOnePacket@handle,w,c
  8119  00191C  26D9               	addwf	fsr2l,f,c
  8120  00191E  5033               	movf	i2USBTransferOnePacket@handle+1,w,c
  8121  001920  22DA               	addwfc	fsr2h,f,c
  8122  001922  C02E  FFDE         	movff	i2USBTransferOnePacket@data,postinc2
  8123  001926  C02F  FFDD         	movff	i2USBTransferOnePacket@data+1,postdec2
  8124                           
  8125                           ;usb_device.c: 1048: handle->CNT = len;
  8126  00192A  EE20 F001          	lfsr	2,1
  8127  00192E  5032               	movf	i2USBTransferOnePacket@handle,w,c
  8128  001930  26D9               	addwf	fsr2l,f,c
  8129  001932  5033               	movf	i2USBTransferOnePacket@handle+1,w,c
  8130  001934  22DA               	addwfc	fsr2h,f,c
  8131  001936  C030  FFDF         	movff	i2USBTransferOnePacket@len,indf2
  8132                           
  8133                           ;usb_device.c: 1049: handle->STAT.Val &= 0x40;
  8134  00193A  C032  FFD9         	movff	i2USBTransferOnePacket@handle,fsr2l
  8135  00193E  C033  FFDA         	movff	i2USBTransferOnePacket@handle+1,fsr2h
  8136  001942  0E40               	movlw	64
  8137  001944  16DF               	andwf	indf2,f,c
  8138                           
  8139                           ;usb_device.c: 1050: handle->STAT.Val |= (0x08 & 0x08);
  8140  001946  C032  FFD9         	movff	i2USBTransferOnePacket@handle,fsr2l
  8141  00194A  C033  FFDA         	movff	i2USBTransferOnePacket@handle+1,fsr2h
  8142  00194E  0E00               	movlw	0
  8143  001950  86DB               	bsf	plusw2,3,c
  8144                           
  8145                           ;usb_device.c: 1051: handle->STAT.Val |= 0x80;
  8146  001952  C032  FFD9         	movff	i2USBTransferOnePacket@handle,fsr2l
  8147  001956  C033  FFDA         	movff	i2USBTransferOnePacket@handle+1,fsr2h
  8148  00195A  0E00               	movlw	0
  8149  00195C  8EDB               	bsf	plusw2,7,c
  8150                           
  8151                           ;usb_device.c: 1054: if(dir != 0)
  8152  00195E  502D               	movf	i2USBTransferOnePacket@dir,w,c
  8153  001960  B4D8               	btfsc	status,2,c
  8154  001962  D007               	goto	i2l2770
  8155                           
  8156                           ;usb_device.c: 1055: {
  8157                           ;usb_device.c: 1057: {((uint8_t_VAL*)&pBDTEntryIn[ep])->Val ^= 0x0004;};
  8158  001964  5031               	movf	i2USBTransferOnePacket@ep,w,c
  8159  001966  0D02               	mullw	2
  8160  001968  0E09               	movlw	low _pBDTEntryIn
  8161  00196A  24F3               	addwf	prodl,w,c
  8162  00196C  6ED9               	movwf	fsr2l,c
  8163  00196E  0E00               	movlw	high _pBDTEntryIn
  8164  001970  D006               	goto	L15
  8165  001972                     i2l2770:
  8166                           
  8167                           ;usb_device.c: 1059: else
  8168                           ;usb_device.c: 1060: {
  8169                           ;usb_device.c: 1062: {((uint8_t_VAL*)&pBDTEntryOut[ep])->Val ^= 0x0004;};
  8170  001972  5031               	movf	i2USBTransferOnePacket@ep,w,c
  8171  001974  0D02               	mullw	2
  8172  001976  0E64               	movlw	low _pBDTEntryOut
  8173  001978  24F3               	addwf	prodl,w,c
  8174  00197A  6ED9               	movwf	fsr2l,c
  8175  00197C  0E00               	movlw	high _pBDTEntryOut
  8176  00197E                     L15:
  8177  00197E  20F4               	addwfc	prodh,w,c
  8178  001980  6EDA               	movwf	fsr2h,c
  8179  001982  0E04               	movlw	4
  8180  001984  1ADF               	xorwf	indf2,f,c
  8181  001986  D000               	goto	i2l2772
  8182  001988                     i2l2772:
  8183                           
  8184                           ;usb_device.c: 1063: }
  8185                           ;usb_device.c: 1064: return (void*)handle;
  8186  001988  C032  F02D         	movff	i2USBTransferOnePacket@handle,?i2_USBTransferOnePacket
  8187  00198C  C033  F02E         	movff	i2USBTransferOnePacket@handle+1,?i2_USBTransferOnePacket+1
  8188  001990  0012               	return	
  8189  001992  0012               	return		;funcret
  8190  001994                     __end_ofi2_USBTransferOnePacket:
  8191                           	opt stack 0
  8192                           pclatu	equ	0xFFB
  8193                           pclath	equ	0xFFA
  8194                           tblptru	equ	0xFF8
  8195                           tblptrh	equ	0xFF7
  8196                           tblptrl	equ	0xFF6
  8197                           tablat	equ	0xFF5
  8198                           prodh	equ	0xFF4
  8199                           prodl	equ	0xFF3
  8200                           intcon	equ	0xFF2
  8201                           indf0	equ	0xFEF
  8202                           postinc0	equ	0xFEE
  8203                           fsr0h	equ	0xFEA
  8204                           fsr0l	equ	0xFE9
  8205                           wreg	equ	0xFE8
  8206                           indf1	equ	0xFE7
  8207                           fsr1h	equ	0xFE2
  8208                           fsr1l	equ	0xFE1
  8209                           indf2	equ	0xFDF
  8210                           postinc2	equ	0xFDE
  8211                           postdec2	equ	0xFDD
  8212                           plusw2	equ	0xFDB
  8213                           fsr2h	equ	0xFDA
  8214                           fsr2l	equ	0xFD9
  8215                           status	equ	0xFD8
  8216                           
  8217 ;; *************** function _USBEnableEndpoint *****************
  8218 ;; Defined at:
  8219 ;;		line 896 in file "../../../../../../microchip/mla/v2015_08_10/framework/usb/src/usb_device.c"
  8220 ;; Parameters:    Size  Location     Type
  8221 ;;  ep              1    wreg     unsigned char 
  8222 ;;  options         1    8[COMRAM] unsigned char 
  8223 ;; Auto vars:     Size  Location     Type
  8224 ;;  ep              1   11[COMRAM] unsigned char 
  8225 ;;  p               2    9[COMRAM] PTR unsigned char 
  8226 ;;		 -> UEP0(1), 
  8227 ;; Return value:  Size  Location     Type
  8228 ;;		None               void
  8229 ;; Registers used:
  8230 ;;		wreg, fsr2l, fsr2h, status,2, status,0, prodl, prodh, cstack
  8231 ;; Tracked objects:
  8232 ;;		On entry : 0/0
  8233 ;;		On exit  : 0/0
  8234 ;;		Unchanged: 0/0
  8235 ;; Data sizes:     COMRAM   BANK0   BANK1   BANK2   BANK3   BANK4   BANK5   BANK6   BANK7
  8236 ;;      Params:         1       0       0       0       0       0       0       0       0
  8237 ;;      Locals:         3       0       0       0       0       0       0       0       0
  8238 ;;      Temps:          0       0       0       0       0       0       0       0       0
  8239 ;;      Totals:         4       0       0       0       0       0       0       0       0
  8240 ;;Total ram usage:        4 bytes
  8241 ;; Hardware stack levels used:    1
  8242 ;; Hardware stack levels required when called:    1
  8243 ;; This function calls:
  8244 ;;		_USBConfigureEndpoint
  8245 ;; This function is called by:
  8246 ;;		_APP_DeviceCustomHIDInitialize
  8247 ;; This function uses a non-reentrant model
  8248 ;;
  8249                           
  8250                           	psect	text44
  8251  002036                     __ptext44:
  8252                           	opt stack 0
  8253  002036                     _USBEnableEndpoint:
  8254                           	opt stack 23
  8255                           
  8256                           ;incstack = 0
  8257                           ;USBEnableEndpoint@ep stored from wreg
  8258  002036  6E38               	movwf	USBEnableEndpoint@ep,c
  8259                           
  8260                           ;usb_device.c: 898: unsigned char* p;
  8261                           ;usb_device.c: 902: if(options & 0x04)
  8262  002038  A435               	btfss	USBEnableEndpoint@options,2,c
  8263  00203A  D006               	goto	i2l2714
  8264                           
  8265                           ;usb_device.c: 903: {
  8266                           ;usb_device.c: 904: USBConfigureEndpoint(ep, 0);
  8267  00203C  0E00               	movlw	0
  8268  00203E  6E2D               	movwf	USBConfigureEndpoint@direction,c
  8269  002040  5038               	movf	USBEnableEndpoint@ep,w,c
  8270  002042  ECD2  F00D         	call	_USBConfigureEndpoint
  8271  002046  D000               	goto	i2l2714
  8272  002048                     i2l2714:
  8273                           
  8274                           ;usb_device.c: 905: }
  8275                           ;usb_device.c: 906: if(options & 0x02)
  8276  002048  A235               	btfss	USBEnableEndpoint@options,1,c
  8277  00204A  D006               	goto	i2l2718
  8278                           
  8279                           ;usb_device.c: 907: {
  8280                           ;usb_device.c: 908: USBConfigureEndpoint(ep, 1);
  8281  00204C  0E01               	movlw	1
  8282  00204E  6E2D               	movwf	USBConfigureEndpoint@direction,c
  8283  002050  5038               	movf	USBEnableEndpoint@ep,w,c
  8284  002052  ECD2  F00D         	call	_USBConfigureEndpoint
  8285  002056  D000               	goto	i2l2718
  8286  002058                     i2l2718:
  8287                           
  8288                           ;usb_device.c: 909: }
  8289                           ;usb_device.c: 917: p = (unsigned char*)(&UEP0+ep);
  8290  002058  5038               	movf	USBEnableEndpoint@ep,w,c
  8291  00205A  0D01               	mullw	1
  8292  00205C  0E6A               	movlw	106
  8293  00205E  24F3               	addwf	prodl,w,c
  8294  002060  6E36               	movwf	USBEnableEndpoint@p,c
  8295  002062  0E0F               	movlw	15
  8296  002064  20F4               	addwfc	prodh,w,c
  8297  002066  6E37               	movwf	USBEnableEndpoint@p+1,c
  8298                           
  8299                           ;usb_device.c: 919: *p = options;
  8300  002068  C036  FFD9         	movff	USBEnableEndpoint@p,fsr2l
  8301  00206C  C037  FFDA         	movff	USBEnableEndpoint@p+1,fsr2h
  8302  002070  C035  FFDF         	movff	USBEnableEndpoint@options,indf2
  8303  002074  0012               	return		;funcret
  8304  002076                     __end_of_USBEnableEndpoint:
  8305                           	opt stack 0
  8306                           pclatu	equ	0xFFB
  8307                           pclath	equ	0xFFA
  8308                           tblptru	equ	0xFF8
  8309                           tblptrh	equ	0xFF7
  8310                           tblptrl	equ	0xFF6
  8311                           tablat	equ	0xFF5
  8312                           prodh	equ	0xFF4
  8313                           prodl	equ	0xFF3
  8314                           intcon	equ	0xFF2
  8315                           indf0	equ	0xFEF
  8316                           postinc0	equ	0xFEE
  8317                           fsr0h	equ	0xFEA
  8318                           fsr0l	equ	0xFE9
  8319                           wreg	equ	0xFE8
  8320                           indf1	equ	0xFE7
  8321                           fsr1h	equ	0xFE2
  8322                           fsr1l	equ	0xFE1
  8323                           indf2	equ	0xFDF
  8324                           postinc2	equ	0xFDE
  8325                           postdec2	equ	0xFDD
  8326                           plusw2	equ	0xFDB
  8327                           fsr2h	equ	0xFDA
  8328                           fsr2l	equ	0xFD9
  8329                           status	equ	0xFD8
  8330                           
  8331 ;; *************** function _USBConfigureEndpoint *****************
  8332 ;; Defined at:
  8333 ;;		line 1561 in file "../../../../../../microchip/mla/v2015_08_10/framework/usb/src/usb_device.c"
  8334 ;; Parameters:    Size  Location     Type
  8335 ;;  EPNum           1    wreg     unsigned char 
  8336 ;;  direction       1    0[COMRAM] unsigned char 
  8337 ;; Auto vars:     Size  Location     Type
  8338 ;;  EPNum           1    5[COMRAM] unsigned char 
  8339 ;;  handle          2    6[COMRAM] PTR volatile struct __BD
  8340 ;;		 -> BDT(32), 
  8341 ;; Return value:  Size  Location     Type
  8342 ;;		None               void
  8343 ;; Registers used:
  8344 ;;		wreg, fsr2l, fsr2h, status,2, status,0, prodl, prodh
  8345 ;; Tracked objects:
  8346 ;;		On entry : 0/0
  8347 ;;		On exit  : 0/0
  8348 ;;		Unchanged: 0/0
  8349 ;; Data sizes:     COMRAM   BANK0   BANK1   BANK2   BANK3   BANK4   BANK5   BANK6   BANK7
  8350 ;;      Params:         1       0       0       0       0       0       0       0       0
  8351 ;;      Locals:         3       0       0       0       0       0       0       0       0
  8352 ;;      Temps:          4       0       0       0       0       0       0       0       0
  8353 ;;      Totals:         8       0       0       0       0       0       0       0       0
  8354 ;;Total ram usage:        8 bytes
  8355 ;; Hardware stack levels used:    1
  8356 ;; This function calls:
  8357 ;;		Nothing
  8358 ;; This function is called by:
  8359 ;;		_USBEnableEndpoint
  8360 ;; This function uses a non-reentrant model
  8361 ;;
  8362                           
  8363                           	psect	text45
  8364  001BA4                     __ptext45:
  8365                           	opt stack 0
  8366  001BA4                     _USBConfigureEndpoint:
  8367                           	opt stack 23
  8368                           
  8369                           ;incstack = 0
  8370                           ;USBConfigureEndpoint@EPNum stored from wreg
  8371  001BA4  6E32               	movwf	USBConfigureEndpoint@EPNum,c
  8372                           
  8373                           ;usb_device.c: 1563: volatile BDT_ENTRY* handle;
  8374                           ;usb_device.c: 1567: handle = (volatile BDT_ENTRY*)&BDT[0];
  8375  001BA6  0E00               	movlw	0
  8376  001BA8  6E33               	movwf	USBConfigureEndpoint@handle,c
  8377  001BAA  0E04               	movlw	4
  8378  001BAC  6E34               	movwf	USBConfigureEndpoint@handle+1,c
  8379                           
  8380                           ;usb_device.c: 1568: handle += (4*EPNum+2*direction+0u);
  8381  001BAE  502D               	movf	USBConfigureEndpoint@direction,w,c
  8382  001BB0  6E2E               	movwf	??_USBConfigureEndpoint& (0+255),c
  8383  001BB2  6A2F               	clrf	(??_USBConfigureEndpoint+1)& (0+255),c
  8384  001BB4  90D8               	bcf	status,0,c
  8385  001BB6  362E               	rlcf	??_USBConfigureEndpoint,f,c
  8386  001BB8  362F               	rlcf	??_USBConfigureEndpoint+1,f,c
  8387  001BBA  5032               	movf	USBConfigureEndpoint@EPNum,w,c
  8388  001BBC  6E30               	movwf	(??_USBConfigureEndpoint+2)& (0+255),c
  8389  001BBE  6A31               	clrf	(??_USBConfigureEndpoint+3)& (0+255),c
  8390  001BC0  90D8               	bcf	status,0,c
  8391  001BC2  3630               	rlcf	??_USBConfigureEndpoint+2,f,c
  8392  001BC4  3631               	rlcf	??_USBConfigureEndpoint+3,f,c
  8393  001BC6  90D8               	bcf	status,0,c
  8394  001BC8  3630               	rlcf	??_USBConfigureEndpoint+2,f,c
  8395  001BCA  3631               	rlcf	??_USBConfigureEndpoint+3,f,c
  8396  001BCC  502E               	movf	??_USBConfigureEndpoint,w,c
  8397  001BCE  2630               	addwf	??_USBConfigureEndpoint+2,f,c
  8398  001BD0  502F               	movf	??_USBConfigureEndpoint+1,w,c
  8399  001BD2  2231               	addwfc	??_USBConfigureEndpoint+3,f,c
  8400  001BD4  90D8               	bcf	status,0,c
  8401  001BD6  3630               	rlcf	??_USBConfigureEndpoint+2,f,c
  8402  001BD8  3631               	rlcf	??_USBConfigureEndpoint+3,f,c
  8403  001BDA  90D8               	bcf	status,0,c
  8404  001BDC  3630               	rlcf	??_USBConfigureEndpoint+2,f,c
  8405  001BDE  3631               	rlcf	??_USBConfigureEndpoint+3,f,c
  8406  001BE0  5030               	movf	??_USBConfigureEndpoint+2,w,c
  8407  001BE2  2633               	addwf	USBConfigureEndpoint@handle,f,c
  8408  001BE4  5031               	movf	??_USBConfigureEndpoint+3,w,c
  8409  001BE6  2234               	addwfc	USBConfigureEndpoint@handle+1,f,c
  8410                           
  8411                           ;usb_device.c: 1570: handle->STAT.UOWN = 0;
  8412  001BE8  C033  FFD9         	movff	USBConfigureEndpoint@handle,fsr2l
  8413  001BEC  C034  FFDA         	movff	USBConfigureEndpoint@handle+1,fsr2h
  8414  001BF0  9EDF               	bcf	indf2,7,c
  8415                           
  8416                           ;usb_device.c: 1575: if(direction == 0)
  8417  001BF2  502D               	movf	USBConfigureEndpoint@direction,w,c
  8418  001BF4  A4D8               	btfss	status,2,c
  8419  001BF6  D007               	goto	i2l2692
  8420                           
  8421                           ;usb_device.c: 1576: {
  8422                           ;usb_device.c: 1577: pBDTEntryOut[EPNum] = handle;
  8423  001BF8  5032               	movf	USBConfigureEndpoint@EPNum,w,c
  8424  001BFA  0D02               	mullw	2
  8425  001BFC  0E64               	movlw	low _pBDTEntryOut
  8426  001BFE  24F3               	addwf	prodl,w,c
  8427  001C00  6ED9               	movwf	fsr2l,c
  8428  001C02  0E00               	movlw	high _pBDTEntryOut
  8429  001C04  D006               	goto	L16
  8430  001C06                     i2l2692:
  8431                           
  8432                           ;usb_device.c: 1579: else
  8433                           ;usb_device.c: 1580: {
  8434                           ;usb_device.c: 1581: pBDTEntryIn[EPNum] = handle;
  8435  001C06  5032               	movf	USBConfigureEndpoint@EPNum,w,c
  8436  001C08  0D02               	mullw	2
  8437  001C0A  0E09               	movlw	low _pBDTEntryIn
  8438  001C0C  24F3               	addwf	prodl,w,c
  8439  001C0E  6ED9               	movwf	fsr2l,c
  8440  001C10  0E00               	movlw	high _pBDTEntryIn
  8441  001C12                     L16:
  8442  001C12  20F4               	addwfc	prodh,w,c
  8443  001C14  6EDA               	movwf	fsr2h,c
  8444  001C16  C033  FFDE         	movff	USBConfigureEndpoint@handle,postinc2
  8445  001C1A  C034  FFDD         	movff	USBConfigureEndpoint@handle+1,postdec2
  8446  001C1E  D000               	goto	i2l2694
  8447  001C20                     i2l2694:
  8448                           
  8449                           ;usb_device.c: 1582: }
  8450                           ;usb_device.c: 1585: handle->STAT.DTS = 0;
  8451  001C20  C033  FFD9         	movff	USBConfigureEndpoint@handle,fsr2l
  8452  001C24  C034  FFDA         	movff	USBConfigureEndpoint@handle+1,fsr2h
  8453  001C28  9CDF               	bcf	indf2,6,c
  8454                           
  8455                           ;usb_device.c: 1586: (handle+1)->STAT.DTS = 1;
  8456  001C2A  EE20 F004          	lfsr	2,4
  8457  001C2E  5033               	movf	USBConfigureEndpoint@handle,w,c
  8458  001C30  26D9               	addwf	fsr2l,f,c
  8459  001C32  5034               	movf	USBConfigureEndpoint@handle+1,w,c
  8460  001C34  22DA               	addwfc	fsr2h,f,c
  8461  001C36  8CDF               	bsf	indf2,6,c
  8462  001C38  0012               	return		;funcret
  8463  001C3A                     __end_of_USBConfigureEndpoint:
  8464                           	opt stack 0
  8465                           pclatu	equ	0xFFB
  8466                           pclath	equ	0xFFA
  8467                           tblptru	equ	0xFF8
  8468                           tblptrh	equ	0xFF7
  8469                           tblptrl	equ	0xFF6
  8470                           tablat	equ	0xFF5
  8471                           prodh	equ	0xFF4
  8472                           prodl	equ	0xFF3
  8473                           intcon	equ	0xFF2
  8474                           indf0	equ	0xFEF
  8475                           postinc0	equ	0xFEE
  8476                           fsr0h	equ	0xFEA
  8477                           fsr0l	equ	0xFE9
  8478                           wreg	equ	0xFE8
  8479                           indf1	equ	0xFE7
  8480                           fsr1h	equ	0xFE2
  8481                           fsr1l	equ	0xFE1
  8482                           indf2	equ	0xFDF
  8483                           postinc2	equ	0xFDE
  8484                           postdec2	equ	0xFDD
  8485                           plusw2	equ	0xFDB
  8486                           fsr2h	equ	0xFDA
  8487                           fsr2l	equ	0xFD9
  8488                           status	equ	0xFD8
  8489                           
  8490 ;; *************** function _USBCtrlTrfOutHandler *****************
  8491 ;; Defined at:
  8492 ;;		line 2555 in file "../../../../../../microchip/mla/v2015_08_10/framework/usb/src/usb_device.c"
  8493 ;; Parameters:    Size  Location     Type
  8494 ;;		None
  8495 ;; Auto vars:     Size  Location     Type
  8496 ;;		None
  8497 ;; Return value:  Size  Location     Type
  8498 ;;		None               void
  8499 ;; Registers used:
  8500 ;;		wreg, fsr1l, fsr1h, fsr2l, fsr2h, status,2, status,0, prodl, prodh, cstack
  8501 ;; Tracked objects:
  8502 ;;		On entry : 0/0
  8503 ;;		On exit  : 0/0
  8504 ;;		Unchanged: 0/0
  8505 ;; Data sizes:     COMRAM   BANK0   BANK1   BANK2   BANK3   BANK4   BANK5   BANK6   BANK7
  8506 ;;      Params:         0       0       0       0       0       0       0       0       0
  8507 ;;      Locals:         0       0       0       0       0       0       0       0       0
  8508 ;;      Temps:          0       0       0       0       0       0       0       0       0
  8509 ;;      Totals:         0       0       0       0       0       0       0       0       0
  8510 ;;Total ram usage:        0 bytes
  8511 ;; Hardware stack levels used:    1
  8512 ;; Hardware stack levels required when called:    2
  8513 ;; This function calls:
  8514 ;;		_USBCtrlTrfRxService
  8515 ;; This function is called by:
  8516 ;;		_USBCtrlEPService
  8517 ;; This function uses a non-reentrant model
  8518 ;;
  8519                           
  8520                           	psect	text46
  8521  001E56                     __ptext46:
  8522                           	opt stack 0
  8523  001E56                     _USBCtrlTrfOutHandler:
  8524                           	opt stack 23
  8525                           
  8526                           ;usb_device.c: 2557: if(controlTransferState == 2)
  8527                           
  8528                           ;incstack = 0
  8529  001E56  0E02               	movlw	2
  8530  001E58  1821               	xorwf	_controlTransferState,w,c	;volatile
  8531  001E5A  A4D8               	btfss	status,2,c
  8532  001E5C  D003               	goto	i2l2028
  8533                           
  8534                           ;usb_device.c: 2558: {
  8535                           ;usb_device.c: 2559: USBCtrlTrfRxService();
  8536  001E5E  ECCB  F008         	call	_USBCtrlTrfRxService	;wreg free
  8537                           
  8538                           ;usb_device.c: 2560: }
  8539  001E62  0012               	return	
  8540  001E64                     i2l2028:
  8541                           
  8542                           ;usb_device.c: 2561: else
  8543                           ;usb_device.c: 2562: {
  8544                           ;usb_device.c: 2565: controlTransferState = 0;
  8545  001E64  0E00               	movlw	0
  8546  001E66  6E21               	movwf	_controlTransferState,c	;volatile
  8547                           
  8548                           ;usb_device.c: 2572: if(BothEP0OutUOWNsSet == 0)
  8549  001E68  5017               	movf	_BothEP0OutUOWNsSet,w,c	;volatile
  8550  001E6A  A4D8               	btfss	status,2,c
  8551  001E6C  D01F               	goto	i2l2036
  8552                           
  8553                           ;usb_device.c: 2573: {
  8554                           ;usb_device.c: 2574: pBDTEntryEP0OutNext->CNT = 8;
  8555  001E6E  EE20 F001          	lfsr	2,1
  8556  001E72  5015               	movf	_pBDTEntryEP0OutNext,w,c
  8557  001E74  26D9               	addwf	fsr2l,f,c
  8558  001E76  5016               	movf	_pBDTEntryEP0OutNext+1,w,c
  8559  001E78  22DA               	addwfc	fsr2h,f,c
  8560  001E7A  0E08               	movlw	8
  8561  001E7C  6EDF               	movwf	indf2,c
  8562                           
  8563                           ;usb_device.c: 2575: pBDTEntryEP0OutNext->ADR = ((uint16_t)(&SetupPkt));
  8564  001E7E  EE20 F002          	lfsr	2,2
  8565  001E82  5015               	movf	_pBDTEntryEP0OutNext,w,c
  8566  001E84  26D9               	addwf	fsr2l,f,c
  8567  001E86  5016               	movf	_pBDTEntryEP0OutNext+1,w,c
  8568  001E88  22DA               	addwfc	fsr2h,f,c
  8569  001E8A  0E20               	movlw	32
  8570  001E8C  6EDE               	movwf	postinc2,c
  8571  001E8E  0E04               	movlw	4
  8572  001E90  6EDD               	movwf	postdec2,c
  8573                           
  8574                           ;usb_device.c: 2576: pBDTEntryEP0OutNext->STAT.Val = 0x00|(0x08 & 0x08)|0x04;
  8575  001E92  C015  FFD9         	movff	_pBDTEntryEP0OutNext,fsr2l
  8576  001E96  C016  FFDA         	movff	_pBDTEntryEP0OutNext+1,fsr2h
  8577  001E9A  0E0C               	movlw	12
  8578  001E9C  6EDF               	movwf	indf2,c
  8579                           
  8580                           ;usb_device.c: 2577: pBDTEntryEP0OutNext->STAT.Val |= 0x80;
  8581  001E9E  C015  FFD9         	movff	_pBDTEntryEP0OutNext,fsr2l
  8582  001EA2  C016  FFDA         	movff	_pBDTEntryEP0OutNext+1,fsr2h
  8583  001EA6  0E00               	movlw	0
  8584  001EA8  8EDB               	bsf	plusw2,7,c
  8585                           
  8586                           ;usb_device.c: 2578: }
  8587  001EAA  0012               	return	
  8588  001EAC                     i2l2036:
  8589                           
  8590                           ;usb_device.c: 2579: else
  8591                           ;usb_device.c: 2580: {
  8592                           ;usb_device.c: 2581: BothEP0OutUOWNsSet = 0;
  8593  001EAC  0E00               	movlw	0
  8594  001EAE  6E17               	movwf	_BothEP0OutUOWNsSet,c	;volatile
  8595  001EB0  0012               	return	
  8596  001EB2  0012               	return		;funcret
  8597  001EB4                     __end_of_USBCtrlTrfOutHandler:
  8598                           	opt stack 0
  8599                           pclatu	equ	0xFFB
  8600                           pclath	equ	0xFFA
  8601                           tblptru	equ	0xFF8
  8602                           tblptrh	equ	0xFF7
  8603                           tblptrl	equ	0xFF6
  8604                           tablat	equ	0xFF5
  8605                           prodh	equ	0xFF4
  8606                           prodl	equ	0xFF3
  8607                           intcon	equ	0xFF2
  8608                           indf0	equ	0xFEF
  8609                           postinc0	equ	0xFEE
  8610                           fsr0h	equ	0xFEA
  8611                           fsr0l	equ	0xFE9
  8612                           wreg	equ	0xFE8
  8613                           indf1	equ	0xFE7
  8614                           fsr1h	equ	0xFE2
  8615                           fsr1l	equ	0xFE1
  8616                           indf2	equ	0xFDF
  8617                           postinc2	equ	0xFDE
  8618                           postdec2	equ	0xFDD
  8619                           plusw2	equ	0xFDB
  8620                           fsr2h	equ	0xFDA
  8621                           fsr2l	equ	0xFD9
  8622                           status	equ	0xFD8
  8623                           
  8624 ;; *************** function _USBCtrlTrfRxService *****************
  8625 ;; Defined at:
  8626 ;;		line 1870 in file "../../../../../../microchip/mla/v2015_08_10/framework/usb/src/usb_device.c"
  8627 ;; Parameters:    Size  Location     Type
  8628 ;;		None
  8629 ;; Auto vars:     Size  Location     Type
  8630 ;;  byteToRead      1    1[COMRAM] unsigned char 
  8631 ;;  i               1    0[COMRAM] unsigned char 
  8632 ;; Return value:  Size  Location     Type
  8633 ;;		None               void
  8634 ;; Registers used:
  8635 ;;		wreg, fsr1l, fsr1h, fsr2l, fsr2h, status,2, status,0, prodl, prodh, cstack
  8636 ;; Tracked objects:
  8637 ;;		On entry : 0/0
  8638 ;;		On exit  : 0/0
  8639 ;;		Unchanged: 0/0
  8640 ;; Data sizes:     COMRAM   BANK0   BANK1   BANK2   BANK3   BANK4   BANK5   BANK6   BANK7
  8641 ;;      Params:         0       0       0       0       0       0       0       0       0
  8642 ;;      Locals:         2       0       0       0       0       0       0       0       0
  8643 ;;      Temps:          0       0       0       0       0       0       0       0       0
  8644 ;;      Totals:         2       0       0       0       0       0       0       0       0
  8645 ;;Total ram usage:        2 bytes
  8646 ;; Hardware stack levels used:    1
  8647 ;; Hardware stack levels required when called:    1
  8648 ;; This function calls:
  8649 ;;		_USBCtrlEPAllowStatusStage
  8650 ;; This function is called by:
  8651 ;;		_USBCtrlTrfOutHandler
  8652 ;; This function uses a non-reentrant model
  8653 ;;
  8654                           
  8655                           	psect	text47
  8656  001196                     __ptext47:
  8657                           	opt stack 0
  8658  001196                     _USBCtrlTrfRxService:
  8659                           	opt stack 23
  8660                           
  8661                           ;usb_device.c: 1872: uint8_t byteToRead;
  8662                           ;usb_device.c: 1873: uint8_t i;
  8663                           ;usb_device.c: 1877: byteToRead = pBDTEntryEP0OutCurrent->CNT;
  8664                           
  8665                           ;incstack = 0
  8666  001196  EE20 F001          	lfsr	2,1
  8667  00119A  5013               	movf	_pBDTEntryEP0OutCurrent,w,c
  8668  00119C  26D9               	addwf	fsr2l,f,c
  8669  00119E  5014               	movf	_pBDTEntryEP0OutCurrent+1,w,c
  8670  0011A0  22DA               	addwfc	fsr2h,f,c
  8671  0011A2  50DF               	movf	indf2,w,c
  8672  0011A4  6E2E               	movwf	USBCtrlTrfRxService@byteToRead,c
  8673                           
  8674                           ;usb_device.c: 1883: if(byteToRead > outPipes[0].wCount.Val)
  8675  0011A6  502E               	movf	USBCtrlTrfRxService@byteToRead,w,c
  8676  0011A8  5C05               	subwf	_outPipes+4,w,c	;volatile
  8677  0011AA  0E00               	movlw	0
  8678  0011AC  5806               	subwfb	_outPipes+5,w,c	;volatile
  8679  0011AE  B0D8               	btfsc	status,0,c
  8680  0011B0  D003               	goto	i2l1912
  8681                           
  8682                           ;usb_device.c: 1884: {
  8683                           ;usb_device.c: 1885: byteToRead = outPipes[0].wCount.Val;
  8684  0011B2  C005  F02E         	movff	_outPipes+4,USBCtrlTrfRxService@byteToRead	;volatile
  8685  0011B6  D000               	goto	i2l1912
  8686  0011B8                     i2l1912:
  8687                           
  8688                           ;usb_device.c: 1886: }
  8689                           ;usb_device.c: 1888: outPipes[0].wCount.Val -= byteToRead;
  8690  0011B8  502E               	movf	USBCtrlTrfRxService@byteToRead,w,c
  8691  0011BA  5E05               	subwf	_outPipes+4,f,c	;volatile
  8692  0011BC  0E00               	movlw	0
  8693  0011BE  5A06               	subwfb	_outPipes+5,f,c	;volatile
  8694                           
  8695                           ;usb_device.c: 1892: for(i=0;i<byteToRead;i++)
  8696  0011C0  0E00               	movlw	0
  8697  0011C2  6E2D               	movwf	USBCtrlTrfRxService@i,c
  8698  0011C4  D012               	goto	i2l1922
  8699  0011C6                     i2l1916:
  8700                           
  8701                           ;usb_device.c: 1893: {
  8702                           ;usb_device.c: 1894: *outPipes[0].pDst.bRam++ = CtrlTrfData[i];
  8703  0011C6  502D               	movf	USBCtrlTrfRxService@i,w,c
  8704  0011C8  0D01               	mullw	1
  8705  0011CA  0E28               	movlw	40
  8706  0011CC  24F3               	addwf	prodl,w,c
  8707  0011CE  6ED9               	movwf	fsr2l,c
  8708  0011D0  0E04               	movlw	4
  8709  0011D2  20F4               	addwfc	prodh,w,c
  8710  0011D4  6EDA               	movwf	fsr2h,c
  8711  0011D6  C001  FFE1         	movff	_outPipes,fsr1l	;volatile
  8712  0011DA  C002  FFE2         	movff	_outPipes+1,fsr1h	;volatile
  8713  0011DE  CFDF FFE7          	movff	indf2,indf1
  8714  0011E2  4A01               	infsnz	_outPipes,f,c	;volatile
  8715  0011E4  2A02               	incf	_outPipes+1,f,c	;volatile
  8716  0011E6  2A2D               	incf	USBCtrlTrfRxService@i,f,c
  8717  0011E8  D000               	goto	i2l1922
  8718  0011EA                     i2l1922:
  8719  0011EA  502E               	movf	USBCtrlTrfRxService@byteToRead,w,c
  8720  0011EC  5C2D               	subwf	USBCtrlTrfRxService@i,w,c
  8721  0011EE  A0D8               	btfss	status,0,c
  8722  0011F0  D7EA               	goto	i2l1916
  8723                           
  8724                           ;usb_device.c: 1895: }
  8725                           ;usb_device.c: 1899: if(outPipes[0].wCount.Val > 0)
  8726  0011F2  5005               	movf	_outPipes+4,w,c	;volatile
  8727  0011F4  1006               	iorwf	_outPipes+5,w,c	;volatile
  8728  0011F6  B4D8               	btfsc	status,2,c
  8729  0011F8  D032               	goto	i2l1938
  8730                           
  8731                           ;usb_device.c: 1900: {
  8732                           ;usb_device.c: 1901: pBDTEntryEP0OutNext->CNT = 8;
  8733  0011FA  EE20 F001          	lfsr	2,1
  8734  0011FE  5015               	movf	_pBDTEntryEP0OutNext,w,c
  8735  001200  26D9               	addwf	fsr2l,f,c
  8736  001202  5016               	movf	_pBDTEntryEP0OutNext+1,w,c
  8737  001204  22DA               	addwfc	fsr2h,f,c
  8738  001206  0E08               	movlw	8
  8739  001208  6EDF               	movwf	indf2,c
  8740                           
  8741                           ;usb_device.c: 1902: pBDTEntryEP0OutNext->ADR = ((uint16_t)(&CtrlTrfData));
  8742  00120A  EE20 F002          	lfsr	2,2
  8743  00120E  5015               	movf	_pBDTEntryEP0OutNext,w,c
  8744  001210  26D9               	addwf	fsr2l,f,c
  8745  001212  5016               	movf	_pBDTEntryEP0OutNext+1,w,c
  8746  001214  22DA               	addwfc	fsr2h,f,c
  8747  001216  0E28               	movlw	40
  8748  001218  6EDE               	movwf	postinc2,c
  8749  00121A  0E04               	movlw	4
  8750  00121C  6EDD               	movwf	postdec2,c
  8751                           
  8752                           ;usb_device.c: 1903: if(pBDTEntryEP0OutCurrent->STAT.DTS == 0)
  8753  00121E  C013  FFD9         	movff	_pBDTEntryEP0OutCurrent,fsr2l
  8754  001222  C014  FFDA         	movff	_pBDTEntryEP0OutCurrent+1,fsr2h
  8755  001226  BCDF               	btfsc	indf2,6,c
  8756  001228  D00D               	goto	i2l1934
  8757                           
  8758                           ;usb_device.c: 1904: {
  8759                           ;usb_device.c: 1905: pBDTEntryEP0OutNext->STAT.Val = 0x40|(0x08 & 0x08);
  8760  00122A  C015  FFD9         	movff	_pBDTEntryEP0OutNext,fsr2l
  8761  00122E  C016  FFDA         	movff	_pBDTEntryEP0OutNext+1,fsr2h
  8762  001232  0E48               	movlw	72
  8763  001234  6EDF               	movwf	indf2,c
  8764                           
  8765                           ;usb_device.c: 1906: pBDTEntryEP0OutNext->STAT.Val |= 0x80;
  8766  001236  C015  FFD9         	movff	_pBDTEntryEP0OutNext,fsr2l
  8767  00123A  C016  FFDA         	movff	_pBDTEntryEP0OutNext+1,fsr2h
  8768  00123E  0E00               	movlw	0
  8769  001240  8EDB               	bsf	plusw2,7,c
  8770                           
  8771                           ;usb_device.c: 1907: }
  8772  001242  0012               	return	
  8773  001244                     i2l1934:
  8774                           
  8775                           ;usb_device.c: 1908: else
  8776                           ;usb_device.c: 1909: {
  8777                           ;usb_device.c: 1910: pBDTEntryEP0OutNext->STAT.Val = 0x00|(0x08 & 0x08);
  8778  001244  C015  FFD9         	movff	_pBDTEntryEP0OutNext,fsr2l
  8779  001248  C016  FFDA         	movff	_pBDTEntryEP0OutNext+1,fsr2h
  8780  00124C  0E08               	movlw	8
  8781  00124E  6EDF               	movwf	indf2,c
  8782                           
  8783                           ;usb_device.c: 1911: pBDTEntryEP0OutNext->STAT.Val |= 0x80;
  8784  001250  C015  FFD9         	movff	_pBDTEntryEP0OutNext,fsr2l
  8785  001254  C016  FFDA         	movff	_pBDTEntryEP0OutNext+1,fsr2h
  8786  001258  0E00               	movlw	0
  8787  00125A  8EDB               	bsf	plusw2,7,c
  8788                           
  8789                           ;usb_device.c: 1912: }
  8790                           ;usb_device.c: 1913: }
  8791  00125C  0012               	return	
  8792  00125E                     i2l1938:
  8793                           
  8794                           ;usb_device.c: 1914: else
  8795                           ;usb_device.c: 1915: {
  8796                           ;usb_device.c: 1919: pBDTEntryEP0OutNext->CNT = 8;
  8797  00125E  EE20 F001          	lfsr	2,1
  8798  001262  5015               	movf	_pBDTEntryEP0OutNext,w,c
  8799  001264  26D9               	addwf	fsr2l,f,c
  8800  001266  5016               	movf	_pBDTEntryEP0OutNext+1,w,c
  8801  001268  22DA               	addwfc	fsr2h,f,c
  8802  00126A  0E08               	movlw	8
  8803  00126C  6EDF               	movwf	indf2,c
  8804                           
  8805                           ;usb_device.c: 1920: pBDTEntryEP0OutNext->ADR = ((uint16_t)(&SetupPkt));
  8806  00126E  EE20 F002          	lfsr	2,2
  8807  001272  5015               	movf	_pBDTEntryEP0OutNext,w,c
  8808  001274  26D9               	addwf	fsr2l,f,c
  8809  001276  5016               	movf	_pBDTEntryEP0OutNext+1,w,c
  8810  001278  22DA               	addwfc	fsr2h,f,c
  8811  00127A  0E20               	movlw	32
  8812  00127C  6EDE               	movwf	postinc2,c
  8813  00127E  0E04               	movlw	4
  8814  001280  6EDD               	movwf	postdec2,c
  8815                           
  8816                           ;usb_device.c: 1924: pBDTEntryEP0OutNext->STAT.Val = 0x04;
  8817  001282  C015  FFD9         	movff	_pBDTEntryEP0OutNext,fsr2l
  8818  001286  C016  FFDA         	movff	_pBDTEntryEP0OutNext+1,fsr2h
  8819  00128A  0E04               	movlw	4
  8820  00128C  6EDF               	movwf	indf2,c
  8821                           
  8822                           ;usb_device.c: 1925: pBDTEntryEP0OutNext->STAT.Val |= 0x80;
  8823  00128E  C015  FFD9         	movff	_pBDTEntryEP0OutNext,fsr2l
  8824  001292  C016  FFDA         	movff	_pBDTEntryEP0OutNext+1,fsr2h
  8825  001296  0E00               	movlw	0
  8826  001298  8EDB               	bsf	plusw2,7,c
  8827                           
  8828                           ;usb_device.c: 1944: }
  8829                           ;usb_device.c: 1945: outPipes[0].info.bits.busy = 0;
  8830                           
  8831                           ;usb_device.c: 1933: {
  8832                           ;usb_device.c: 1939: outPipes[0].pFunc();
  8833  00129A  9E04               	bcf	_outPipes+3,7,c	;volatile
  8834                           
  8835                           ;usb_device.c: 1959: if(USBDeferStatusStagePacket == 0)
  8836  00129C  501C               	movf	_USBDeferStatusStagePacket,w,c	;volatile
  8837  00129E  A4D8               	btfss	status,2,c
  8838  0012A0  0012               	return	
  8839                           
  8840                           ;usb_device.c: 1960: {
  8841                           ;usb_device.c: 1961: USBCtrlEPAllowStatusStage();
  8842  0012A2  EC08  F00C         	call	_USBCtrlEPAllowStatusStage	;wreg free
  8843  0012A6  0012               	return	
  8844  0012A8  0012               	return		;funcret
  8845  0012AA                     __end_of_USBCtrlTrfRxService:
  8846                           	opt stack 0
  8847                           pclatu	equ	0xFFB
  8848                           pclath	equ	0xFFA
  8849                           tblptru	equ	0xFF8
  8850                           tblptrh	equ	0xFF7
  8851                           tblptrl	equ	0xFF6
  8852                           tablat	equ	0xFF5
  8853                           prodh	equ	0xFF4
  8854                           prodl	equ	0xFF3
  8855                           intcon	equ	0xFF2
  8856                           indf0	equ	0xFEF
  8857                           postinc0	equ	0xFEE
  8858                           fsr0h	equ	0xFEA
  8859                           fsr0l	equ	0xFE9
  8860                           wreg	equ	0xFE8
  8861                           indf1	equ	0xFE7
  8862                           fsr1h	equ	0xFE2
  8863                           fsr1l	equ	0xFE1
  8864                           indf2	equ	0xFDF
  8865                           postinc2	equ	0xFDE
  8866                           postdec2	equ	0xFDD
  8867                           plusw2	equ	0xFDB
  8868                           fsr2h	equ	0xFDA
  8869                           fsr2l	equ	0xFD9
  8870                           status	equ	0xFD8
  8871                           
  8872 ;; *************** function _USBCtrlEPAllowStatusStage *****************
  8873 ;; Defined at:
  8874 ;;		line 1434 in file "../../../../../../microchip/mla/v2015_08_10/framework/usb/src/usb_device.c"
  8875 ;; Parameters:    Size  Location     Type
  8876 ;;		None
  8877 ;; Auto vars:     Size  Location     Type
  8878 ;;		None
  8879 ;; Return value:  Size  Location     Type
  8880 ;;		None               void
  8881 ;; Registers used:
  8882 ;;		wreg, fsr2l, fsr2h, status,2, status,0
  8883 ;; Tracked objects:
  8884 ;;		On entry : 0/0
  8885 ;;		On exit  : 0/0
  8886 ;;		Unchanged: 0/0
  8887 ;; Data sizes:     COMRAM   BANK0   BANK1   BANK2   BANK3   BANK4   BANK5   BANK6   BANK7
  8888 ;;      Params:         0       0       0       0       0       0       0       0       0
  8889 ;;      Locals:         0       0       0       0       0       0       0       0       0
  8890 ;;      Temps:          0       0       0       0       0       0       0       0       0
  8891 ;;      Totals:         0       0       0       0       0       0       0       0       0
  8892 ;;Total ram usage:        0 bytes
  8893 ;; Hardware stack levels used:    1
  8894 ;; This function calls:
  8895 ;;		Nothing
  8896 ;; This function is called by:
  8897 ;;		_USBDeviceTasks
  8898 ;;		_USBCtrlEPServiceComplete
  8899 ;;		_USBCtrlTrfRxService
  8900 ;; This function uses a non-reentrant model
  8901 ;;
  8902                           
  8903                           	psect	text48
  8904  001810                     __ptext48:
  8905                           	opt stack 0
  8906  001810                     _USBCtrlEPAllowStatusStage:
  8907                           	opt stack 23
  8908                           
  8909                           ;usb_device.c: 1441: if(USBStatusStageEnabledFlag1 == 0)
  8910                           
  8911                           ;incstack = 0
  8912  001810  501E               	movf	_USBStatusStageEnabledFlag1,w,c	;volatile
  8913  001812  A4D8               	btfss	status,2,c
  8914  001814  0012               	return	
  8915                           
  8916                           ;usb_device.c: 1442: {
  8917                           ;usb_device.c: 1443: USBStatusStageEnabledFlag1 = 1;
  8918  001816  0E01               	movlw	1
  8919  001818  6E1E               	movwf	_USBStatusStageEnabledFlag1,c	;volatile
  8920                           
  8921                           ;usb_device.c: 1444: if(USBStatusStageEnabledFlag2 == 0)
  8922  00181A  501F               	movf	_USBStatusStageEnabledFlag2,w,c	;volatile
  8923  00181C  A4D8               	btfss	status,2,c
  8924  00181E  0012               	return	
  8925                           
  8926                           ;usb_device.c: 1445: {
  8927                           ;usb_device.c: 1446: USBStatusStageEnabledFlag2 = 1;
  8928  001820  0E01               	movlw	1
  8929  001822  6E1F               	movwf	_USBStatusStageEnabledFlag2,c	;volatile
  8930                           
  8931                           ;usb_device.c: 1450: if(controlTransferState == 2)
  8932  001824  0E02               	movlw	2
  8933  001826  1821               	xorwf	_controlTransferState,w,c	;volatile
  8934  001828  A4D8               	btfss	status,2,c
  8935  00182A  D015               	goto	i2l1632
  8936                           
  8937                           ;usb_device.c: 1451: {
  8938                           ;usb_device.c: 1452: pBDTEntryIn[0]->CNT = 0;
  8939  00182C  EE20 F001          	lfsr	2,1
  8940  001830  5009               	movf	_pBDTEntryIn,w,c
  8941  001832  26D9               	addwf	fsr2l,f,c
  8942  001834  500A               	movf	_pBDTEntryIn+1,w,c
  8943  001836  22DA               	addwfc	fsr2h,f,c
  8944  001838  0E00               	movlw	0
  8945  00183A  6EDF               	movwf	indf2,c
  8946                           
  8947                           ;usb_device.c: 1453: pBDTEntryIn[0]->STAT.Val = 0x40|(0x08 & 0x08);
  8948  00183C  C009  FFD9         	movff	_pBDTEntryIn,fsr2l
  8949  001840  C00A  FFDA         	movff	_pBDTEntryIn+1,fsr2h
  8950  001844  0E48               	movlw	72
  8951  001846  6EDF               	movwf	indf2,c
  8952                           
  8953                           ;usb_device.c: 1454: pBDTEntryIn[0]->STAT.Val |= 0x80;
  8954  001848  C009  FFD9         	movff	_pBDTEntryIn,fsr2l
  8955  00184C  C00A  FFDA         	movff	_pBDTEntryIn+1,fsr2h
  8956  001850  0E00               	movlw	0
  8957  001852  8EDB               	bsf	plusw2,7,c
  8958                           
  8959                           ;usb_device.c: 1455: }
  8960  001854  0012               	return	
  8961  001856                     i2l1632:
  8962                           
  8963                           ;usb_device.c: 1456: else if(controlTransferState == 1)
  8964  001856  0421               	decf	_controlTransferState,w,c	;volatile
  8965  001858  A4D8               	btfss	status,2,c
  8966  00185A  0012               	return	
  8967                           
  8968                           ;usb_device.c: 1457: {
  8969                           ;usb_device.c: 1458: BothEP0OutUOWNsSet = 0;
  8970  00185C  0E00               	movlw	0
  8971  00185E  6E17               	movwf	_BothEP0OutUOWNsSet,c	;volatile
  8972                           
  8973                           ;usb_device.c: 1463: pBDTEntryEP0OutCurrent->CNT = 8;
  8974  001860  EE20 F001          	lfsr	2,1
  8975  001864  5013               	movf	_pBDTEntryEP0OutCurrent,w,c
  8976  001866  26D9               	addwf	fsr2l,f,c
  8977  001868  5014               	movf	_pBDTEntryEP0OutCurrent+1,w,c
  8978  00186A  22DA               	addwfc	fsr2h,f,c
  8979  00186C  0E08               	movlw	8
  8980  00186E  6EDF               	movwf	indf2,c
  8981                           
  8982                           ;usb_device.c: 1464: pBDTEntryEP0OutCurrent->ADR = ((uint16_t)(&SetupPkt));
  8983  001870  EE20 F002          	lfsr	2,2
  8984  001874  5013               	movf	_pBDTEntryEP0OutCurrent,w,c
  8985  001876  26D9               	addwf	fsr2l,f,c
  8986  001878  5014               	movf	_pBDTEntryEP0OutCurrent+1,w,c
  8987  00187A  22DA               	addwfc	fsr2h,f,c
  8988  00187C  0E20               	movlw	32
  8989  00187E  6EDE               	movwf	postinc2,c
  8990  001880  0E04               	movlw	4
  8991  001882  6EDD               	movwf	postdec2,c
  8992                           
  8993                           ;usb_device.c: 1465: pBDTEntryEP0OutCurrent->STAT.Val = 0x04;
  8994  001884  C013  FFD9         	movff	_pBDTEntryEP0OutCurrent,fsr2l
  8995  001888  C014  FFDA         	movff	_pBDTEntryEP0OutCurrent+1,fsr2h
  8996  00188C  0E04               	movlw	4
  8997  00188E  6EDF               	movwf	indf2,c
  8998                           
  8999                           ;usb_device.c: 1466: pBDTEntryEP0OutCurrent->STAT.Val |= 0x80;
  9000  001890  C013  FFD9         	movff	_pBDTEntryEP0OutCurrent,fsr2l
  9001  001894  C014  FFDA         	movff	_pBDTEntryEP0OutCurrent+1,fsr2h
  9002  001898  0E00               	movlw	0
  9003  00189A  8EDB               	bsf	plusw2,7,c
  9004                           
  9005                           ;usb_device.c: 1467: BothEP0OutUOWNsSet = 1;
  9006  00189C  0E01               	movlw	1
  9007  00189E  6E17               	movwf	_BothEP0OutUOWNsSet,c	;volatile
  9008                           
  9009                           ;usb_device.c: 1471: pBDTEntryEP0OutNext->CNT = 8;
  9010  0018A0  EE20 F001          	lfsr	2,1
  9011  0018A4  5015               	movf	_pBDTEntryEP0OutNext,w,c
  9012  0018A6  26D9               	addwf	fsr2l,f,c
  9013  0018A8  5016               	movf	_pBDTEntryEP0OutNext+1,w,c
  9014  0018AA  22DA               	addwfc	fsr2h,f,c
  9015  0018AC  0E08               	movlw	8
  9016  0018AE  6EDF               	movwf	indf2,c
  9017                           
  9018                           ;usb_device.c: 1472: pBDTEntryEP0OutNext->ADR = ((uint16_t)(&SetupPkt));
  9019  0018B0  EE20 F002          	lfsr	2,2
  9020  0018B4  5015               	movf	_pBDTEntryEP0OutNext,w,c
  9021  0018B6  26D9               	addwf	fsr2l,f,c
  9022  0018B8  5016               	movf	_pBDTEntryEP0OutNext+1,w,c
  9023  0018BA  22DA               	addwfc	fsr2h,f,c
  9024  0018BC  0E20               	movlw	32
  9025  0018BE  6EDE               	movwf	postinc2,c
  9026  0018C0  0E04               	movlw	4
  9027  0018C2  6EDD               	movwf	postdec2,c
  9028                           
  9029                           ;usb_device.c: 1473: pBDTEntryEP0OutNext->STAT.Val = 0x80;
  9030  0018C4  C015  FFD9         	movff	_pBDTEntryEP0OutNext,fsr2l
  9031  0018C8  C016  FFDA         	movff	_pBDTEntryEP0OutNext+1,fsr2h
  9032  0018CC  0E80               	movlw	128
  9033  0018CE  6EDF               	movwf	indf2,c
  9034  0018D0  0012               	return	
  9035  0018D2  0012               	return		;funcret
  9036  0018D4                     __end_of_USBCtrlEPAllowStatusStage:
  9037                           	opt stack 0
  9038                           pclatu	equ	0xFFB
  9039                           pclath	equ	0xFFA
  9040                           tblptru	equ	0xFF8
  9041                           tblptrh	equ	0xFF7
  9042                           tblptrl	equ	0xFF6
  9043                           tablat	equ	0xFF5
  9044                           prodh	equ	0xFF4
  9045                           prodl	equ	0xFF3
  9046                           intcon	equ	0xFF2
  9047                           indf0	equ	0xFEF
  9048                           postinc0	equ	0xFEE
  9049                           fsr0h	equ	0xFEA
  9050                           fsr0l	equ	0xFE9
  9051                           wreg	equ	0xFE8
  9052                           indf1	equ	0xFE7
  9053                           fsr1h	equ	0xFE2
  9054                           fsr1l	equ	0xFE1
  9055                           indf2	equ	0xFDF
  9056                           postinc2	equ	0xFDE
  9057                           postdec2	equ	0xFDD
  9058                           plusw2	equ	0xFDB
  9059                           fsr2h	equ	0xFDA
  9060                           fsr2l	equ	0xFD9
  9061                           status	equ	0xFD8
  9062                           
  9063 ;; *************** function _USBCtrlTrfInHandler *****************
  9064 ;; Defined at:
  9065 ;;		line 2609 in file "../../../../../../microchip/mla/v2015_08_10/framework/usb/src/usb_device.c"
  9066 ;; Parameters:    Size  Location     Type
  9067 ;;		None
  9068 ;; Auto vars:     Size  Location     Type
  9069 ;;  lastDTS         1    1[COMRAM] unsigned char 
  9070 ;; Return value:  Size  Location     Type
  9071 ;;		None               void
  9072 ;; Registers used:
  9073 ;;		wreg, fsr0l, fsr0h, fsr2l, fsr2h, status,2, status,0, tblptrl, tblptrh, tblptru, cstack
  9074 ;; Tracked objects:
  9075 ;;		On entry : 0/0
  9076 ;;		On exit  : 0/0
  9077 ;;		Unchanged: 0/0
  9078 ;; Data sizes:     COMRAM   BANK0   BANK1   BANK2   BANK3   BANK4   BANK5   BANK6   BANK7
  9079 ;;      Params:         0       0       0       0       0       0       0       0       0
  9080 ;;      Locals:         1       0       0       0       0       0       0       0       0
  9081 ;;      Temps:          0       0       0       0       0       0       0       0       0
  9082 ;;      Totals:         1       0       0       0       0       0       0       0       0
  9083 ;;Total ram usage:        1 bytes
  9084 ;; Hardware stack levels used:    1
  9085 ;; Hardware stack levels required when called:    1
  9086 ;; This function calls:
  9087 ;;		_USBCtrlTrfTxService
  9088 ;; This function is called by:
  9089 ;;		_USBCtrlEPService
  9090 ;; This function uses a non-reentrant model
  9091 ;;
  9092                           
  9093                           	psect	text49
  9094  001994                     __ptext49:
  9095                           	opt stack 0
  9096  001994                     _USBCtrlTrfInHandler:
  9097                           	opt stack 24
  9098                           
  9099                           ;usb_device.c: 2611: uint8_t lastDTS;
  9100                           ;usb_device.c: 2613: lastDTS = pBDTEntryIn[0]->STAT.DTS;
  9101                           
  9102                           ;incstack = 0
  9103  001994  C009  FFD9         	movff	_pBDTEntryIn,fsr2l
  9104  001998  C00A  FFDA         	movff	_pBDTEntryIn+1,fsr2h
  9105  00199C  0E00               	movlw	0
  9106  00199E  BCDF               	btfsc	indf2,6,c
  9107  0019A0  0E01               	movlw	1
  9108  0019A2  6E2E               	movwf	USBCtrlTrfInHandler@lastDTS,c
  9109                           
  9110                           ;usb_device.c: 2616: ((uint8_t_VAL*)&pBDTEntryIn[0])->Val ^= 0x0004;
  9111  0019A4  0E04               	movlw	4
  9112  0019A6  1A09               	xorwf	_pBDTEntryIn,f,c
  9113                           
  9114                           ;usb_device.c: 2621: if(USBDeviceState == ADR_PENDING_STATE)
  9115  0019A8  0E08               	movlw	8
  9116  0019AA  181D               	xorwf	_USBDeviceState,w,c	;volatile
  9117  0019AC  A4D8               	btfss	status,2,c
  9118  0019AE  D00C               	goto	i2l3314
  9119                           
  9120                           ;usb_device.c: 2622: {
  9121                           ;usb_device.c: 2623: UADDR = (SetupPkt.bDevADR & 0x7F);
  9122  0019B0  0104               	movlb	4	; () banked
  9123  0019B2  5122               	movf	34,w,b	;volatile
  9124  0019B4  0B7F               	andlw	127
  9125  0019B6  6E63               	movwf	3939,c	;volatile
  9126                           
  9127                           ; BSR set to: 4
  9128                           ;usb_device.c: 2624: if(UADDR != 0u)
  9129  0019B8  5063               	movf	3939,w,c	;volatile
  9130  0019BA  B4D8               	btfsc	status,2,c
  9131  0019BC  D002               	goto	i2l3312
  9132                           
  9133                           ; BSR set to: 4
  9134                           ;usb_device.c: 2625: {
  9135                           ;usb_device.c: 2626: USBDeviceState=ADDRESS_STATE;
  9136  0019BE  0E10               	movlw	16
  9137  0019C0  D001               	goto	L17
  9138  0019C2                     i2l3312:
  9139                           
  9140                           ; BSR set to: 4
  9141                           ;usb_device.c: 2628: else
  9142                           ;usb_device.c: 2629: {
  9143                           ;usb_device.c: 2630: USBDeviceState=DEFAULT_STATE;
  9144  0019C2  0E04               	movlw	4
  9145  0019C4                     L17:
  9146  0019C4  6E1D               	movwf	_USBDeviceState,c	;volatile
  9147                           
  9148                           ; BSR set to: 4
  9149  0019C6  D000               	goto	i2l3314
  9150  0019C8                     i2l3314:
  9151                           
  9152                           ;usb_device.c: 2631: }
  9153                           ;usb_device.c: 2632: }
  9154                           ;usb_device.c: 2635: if(controlTransferState == 1)
  9155  0019C8  0421               	decf	_controlTransferState,w,c	;volatile
  9156  0019CA  A4D8               	btfss	status,2,c
  9157  0019CC  D03A               	goto	i2l605
  9158                           
  9159                           ;usb_device.c: 2636: {
  9160                           ;usb_device.c: 2637: pBDTEntryIn[0]->ADR = ((uint16_t)(CtrlTrfData));
  9161  0019CE  EE20 F002          	lfsr	2,2
  9162  0019D2  5009               	movf	_pBDTEntryIn,w,c
  9163  0019D4  26D9               	addwf	fsr2l,f,c
  9164  0019D6  500A               	movf	_pBDTEntryIn+1,w,c
  9165  0019D8  22DA               	addwfc	fsr2h,f,c
  9166  0019DA  0E28               	movlw	40
  9167  0019DC  6EDE               	movwf	postinc2,c
  9168  0019DE  0E04               	movlw	4
  9169  0019E0  6EDD               	movwf	postdec2,c
  9170                           
  9171                           ;usb_device.c: 2638: USBCtrlTrfTxService();
  9172  0019E2  EC99  F00B         	call	_USBCtrlTrfTxService	;wreg free
  9173                           
  9174                           ;usb_device.c: 2644: if(shortPacketStatus == 2)
  9175  0019E6  0E02               	movlw	2
  9176  0019E8  1823               	xorwf	_shortPacketStatus,w,c	;volatile
  9177  0019EA  A4D8               	btfss	status,2,c
  9178  0019EC  D00D               	goto	i2l3326
  9179                           
  9180                           ;usb_device.c: 2645: {
  9181                           ;usb_device.c: 2648: pBDTEntryIn[0]->STAT.Val = 0x04;
  9182  0019EE  C009  FFD9         	movff	_pBDTEntryIn,fsr2l
  9183  0019F2  C00A  FFDA         	movff	_pBDTEntryIn+1,fsr2h
  9184  0019F6  0E04               	movlw	4
  9185  0019F8  6EDF               	movwf	indf2,c
  9186                           
  9187                           ;usb_device.c: 2649: pBDTEntryIn[0]->STAT.Val |= 0x80;
  9188  0019FA  C009  FFD9         	movff	_pBDTEntryIn,fsr2l
  9189  0019FE  C00A  FFDA         	movff	_pBDTEntryIn+1,fsr2h
  9190  001A02  0E00               	movlw	0
  9191  001A04  8EDB               	bsf	plusw2,7,c
  9192                           
  9193                           ;usb_device.c: 2650: }
  9194  001A06  0012               	return	
  9195  001A08                     i2l3326:
  9196                           
  9197                           ;usb_device.c: 2651: else
  9198                           ;usb_device.c: 2652: {
  9199                           ;usb_device.c: 2653: if(lastDTS == 0)
  9200  001A08  502E               	movf	USBCtrlTrfInHandler@lastDTS,w,c
  9201  001A0A  A4D8               	btfss	status,2,c
  9202  001A0C  D00D               	goto	i2l3332
  9203                           
  9204                           ;usb_device.c: 2654: {
  9205                           ;usb_device.c: 2655: pBDTEntryIn[0]->STAT.Val = 0x40|(0x08 & 0x08);
  9206  001A0E  C009  FFD9         	movff	_pBDTEntryIn,fsr2l
  9207  001A12  C00A  FFDA         	movff	_pBDTEntryIn+1,fsr2h
  9208  001A16  0E48               	movlw	72
  9209  001A18  6EDF               	movwf	indf2,c
  9210                           
  9211                           ;usb_device.c: 2656: pBDTEntryIn[0]->STAT.Val |= 0x80;
  9212  001A1A  C009  FFD9         	movff	_pBDTEntryIn,fsr2l
  9213  001A1E  C00A  FFDA         	movff	_pBDTEntryIn+1,fsr2h
  9214  001A22  0E00               	movlw	0
  9215  001A24  8EDB               	bsf	plusw2,7,c
  9216                           
  9217                           ;usb_device.c: 2657: }
  9218  001A26  0012               	return	
  9219  001A28                     i2l3332:
  9220                           
  9221                           ;usb_device.c: 2658: else
  9222                           ;usb_device.c: 2659: {
  9223                           ;usb_device.c: 2660: pBDTEntryIn[0]->STAT.Val = 0x00|(0x08 & 0x08);
  9224  001A28  C009  FFD9         	movff	_pBDTEntryIn,fsr2l
  9225  001A2C  C00A  FFDA         	movff	_pBDTEntryIn+1,fsr2h
  9226  001A30  0E08               	movlw	8
  9227  001A32  6EDF               	movwf	indf2,c
  9228                           
  9229                           ;usb_device.c: 2661: pBDTEntryIn[0]->STAT.Val |= 0x80;
  9230  001A34  C009  FFD9         	movff	_pBDTEntryIn,fsr2l
  9231  001A38  C00A  FFDA         	movff	_pBDTEntryIn+1,fsr2h
  9232  001A3C  0E00               	movlw	0
  9233  001A3E  8EDB               	bsf	plusw2,7,c
  9234                           
  9235                           ;usb_device.c: 2662: }
  9236                           ;usb_device.c: 2663: }
  9237                           ;usb_device.c: 2664: }
  9238  001A40  0012               	return	
  9239  001A42                     i2l605:
  9240                           
  9241                           ;usb_device.c: 2665: else
  9242                           ;usb_device.c: 2666: {
  9243                           ;usb_device.c: 2670: if(outPipes[0].info.bits.busy == 1)
  9244  001A42  AE04               	btfss	_outPipes+3,7,c	;volatile
  9245  001A44  D002               	goto	i2l3338
  9246                           
  9247                           ;usb_device.c: 2675: }
  9248                           ;usb_device.c: 2676: outPipes[0].info.bits.busy = 0;
  9249                           
  9250                           ;usb_device.c: 2673: {
  9251                           ;usb_device.c: 2674: outPipes[0].pFunc();
  9252  001A46  9E04               	bcf	_outPipes+3,7,c	;volatile
  9253  001A48  D000               	goto	i2l3338
  9254  001A4A                     i2l3338:
  9255                           
  9256                           ;usb_device.c: 2677: }
  9257                           ;usb_device.c: 2679: controlTransferState = 0;
  9258  001A4A  0E00               	movlw	0
  9259  001A4C  6E21               	movwf	_controlTransferState,c	;volatile
  9260  001A4E  0012               	return	
  9261  001A50  0012               	return		;funcret
  9262  001A52                     __end_of_USBCtrlTrfInHandler:
  9263                           	opt stack 0
  9264                           pclatu	equ	0xFFB
  9265                           pclath	equ	0xFFA
  9266                           tblptru	equ	0xFF8
  9267                           tblptrh	equ	0xFF7
  9268                           tblptrl	equ	0xFF6
  9269                           tablat	equ	0xFF5
  9270                           prodh	equ	0xFF4
  9271                           prodl	equ	0xFF3
  9272                           intcon	equ	0xFF2
  9273                           indf0	equ	0xFEF
  9274                           postinc0	equ	0xFEE
  9275                           fsr0h	equ	0xFEA
  9276                           fsr0l	equ	0xFE9
  9277                           wreg	equ	0xFE8
  9278                           indf1	equ	0xFE7
  9279                           fsr1h	equ	0xFE2
  9280                           fsr1l	equ	0xFE1
  9281                           indf2	equ	0xFDF
  9282                           postinc2	equ	0xFDE
  9283                           postdec2	equ	0xFDD
  9284                           plusw2	equ	0xFDB
  9285                           fsr2h	equ	0xFDA
  9286                           fsr2l	equ	0xFD9
  9287                           status	equ	0xFD8
  9288                           
  9289 ;; *************** function _USBCtrlTrfTxService *****************
  9290 ;; Defined at:
  9291 ;;		line 1789 in file "../../../../../../microchip/mla/v2015_08_10/framework/usb/src/usb_device.c"
  9292 ;; Parameters:    Size  Location     Type
  9293 ;;		None
  9294 ;; Auto vars:     Size  Location     Type
  9295 ;;  byteToSend      1    0[COMRAM] unsigned char 
  9296 ;; Return value:  Size  Location     Type
  9297 ;;		None               void
  9298 ;; Registers used:
  9299 ;;		wreg, fsr0l, fsr0h, fsr2l, fsr2h, status,2, status,0, tblptrl, tblptrh, tblptru
  9300 ;; Tracked objects:
  9301 ;;		On entry : 0/0
  9302 ;;		On exit  : 0/0
  9303 ;;		Unchanged: 0/0
  9304 ;; Data sizes:     COMRAM   BANK0   BANK1   BANK2   BANK3   BANK4   BANK5   BANK6   BANK7
  9305 ;;      Params:         0       0       0       0       0       0       0       0       0
  9306 ;;      Locals:         1       0       0       0       0       0       0       0       0
  9307 ;;      Temps:          0       0       0       0       0       0       0       0       0
  9308 ;;      Totals:         1       0       0       0       0       0       0       0       0
  9309 ;;Total ram usage:        1 bytes
  9310 ;; Hardware stack levels used:    1
  9311 ;; This function calls:
  9312 ;;		Nothing
  9313 ;; This function is called by:
  9314 ;;		_USBCtrlEPAllowDataStage
  9315 ;;		_USBCtrlTrfInHandler
  9316 ;; This function uses a non-reentrant model
  9317 ;;
  9318                           
  9319                           	psect	text50
  9320  001732                     __ptext50:
  9321                           	opt stack 0
  9322  001732                     _USBCtrlTrfTxService:
  9323                           	opt stack 22
  9324                           
  9325                           ;usb_device.c: 1791: uint8_t byteToSend;
  9326                           ;usb_device.c: 1795: byteToSend = 8;
  9327                           
  9328                           ;incstack = 0
  9329  001732  0E08               	movlw	8
  9330  001734  6E2D               	movwf	USBCtrlTrfTxService@byteToSend,c
  9331                           
  9332                           ;usb_device.c: 1796: if(inPipes[0].wCount.Val < (uint8_t)8)
  9333  001736  5029               	movf	_inPipes+5,w,c	;volatile
  9334  001738  E111               	bnz	i2l2934
  9335  00173A  0E08               	movlw	8
  9336  00173C  5C28               	subwf	_inPipes+4,w,c	;volatile
  9337  00173E  B0D8               	btfsc	status,0,c
  9338  001740  D00D               	goto	i2l2934
  9339                           
  9340                           ;usb_device.c: 1797: {
  9341                           ;usb_device.c: 1798: byteToSend = inPipes[0].wCount.Val;
  9342  001742  C028  F02D         	movff	_inPipes+4,USBCtrlTrfTxService@byteToSend	;volatile
  9343                           
  9344                           ;usb_device.c: 1805: if(shortPacketStatus == 0)
  9345  001746  5023               	movf	_shortPacketStatus,w,c	;volatile
  9346  001748  A4D8               	btfss	status,2,c
  9347  00174A  D002               	goto	i2l2930
  9348                           
  9349                           ;usb_device.c: 1806: {
  9350                           ;usb_device.c: 1807: shortPacketStatus = 1;
  9351  00174C  0E01               	movlw	1
  9352  00174E  D004               	goto	L18
  9353  001750                     i2l2930:
  9354                           
  9355                           ;usb_device.c: 1809: else if(shortPacketStatus == 1)
  9356  001750  0423               	decf	_shortPacketStatus,w,c	;volatile
  9357  001752  A4D8               	btfss	status,2,c
  9358  001754  D003               	goto	i2l2934
  9359                           
  9360                           ;usb_device.c: 1810: {
  9361                           ;usb_device.c: 1811: shortPacketStatus = 2;
  9362  001756  0E02               	movlw	2
  9363  001758                     L18:
  9364  001758  6E23               	movwf	_shortPacketStatus,c	;volatile
  9365  00175A  D000               	goto	i2l2934
  9366  00175C                     i2l2934:
  9367                           
  9368                           ;usb_device.c: 1812: }
  9369                           ;usb_device.c: 1813: }
  9370                           ;usb_device.c: 1817: inPipes[0].wCount.Val -= byteToSend;
  9371  00175C  502D               	movf	USBCtrlTrfTxService@byteToSend,w,c
  9372  00175E  5E28               	subwf	_inPipes+4,f,c	;volatile
  9373  001760  0E00               	movlw	0
  9374  001762  5A29               	subwfb	_inPipes+5,f,c	;volatile
  9375                           
  9376                           ;usb_device.c: 1822: pBDTEntryIn[0]->CNT = byteToSend;
  9377  001764  EE20 F001          	lfsr	2,1
  9378  001768  5009               	movf	_pBDTEntryIn,w,c
  9379  00176A  26D9               	addwf	fsr2l,f,c
  9380  00176C  500A               	movf	_pBDTEntryIn+1,w,c
  9381  00176E  22DA               	addwfc	fsr2h,f,c
  9382  001770  C02D  FFDF         	movff	USBCtrlTrfTxService@byteToSend,indf2
  9383                           
  9384                           ;usb_device.c: 1826: pDst = (volatile uint8_t*)CtrlTrfData;
  9385  001774  0E28               	movlw	40
  9386  001776  0100               	movlb	0	; () banked
  9387  001778  6F6C               	movwf	_pDst& (0+255),b
  9388  00177A  0E04               	movlw	4
  9389  00177C  0100               	movlb	0	; () banked
  9390  00177E  6F6D               	movwf	(_pDst+1)& (0+255),b
  9391                           
  9392                           ; BSR set to: 0
  9393                           ;usb_device.c: 1827: if(inPipes[0].info.bits.ctrl_trf_mem == 0x00)
  9394  001780  A027               	btfss	_inPipes+3,0,c	;volatile
  9395  001782  D01E               	goto	i2l2952
  9396  001784  D03F               	goto	i2l2962
  9397                           
  9398                           ; BSR set to: 0
  9399                           ;usb_device.c: 1828: {
  9400                           ;usb_device.c: 1829: while(byteToSend)
  9401  001786  D01C               	goto	i2l2952
  9402  001788                     i2l2944:
  9403                           
  9404                           ; BSR set to: 0
  9405                           ;usb_device.c: 1830: {
  9406                           ;usb_device.c: 1831: *pDst++ = *inPipes[0].pSrc.bRom++;
  9407  001788  C024  FFF6         	movff	_inPipes,tblptrl	;volatile
  9408  00178C  C025  FFF7         	movff	_inPipes+1,tblptrh	;volatile
  9409  001790  6AF8               	clrf	tblptru,c
  9410  001792  C06C  FFD9         	movff	_pDst,fsr2l
  9411  001796  C06D  FFDA         	movff	_pDst+1,fsr2h
  9412  00179A  0E07               	movlw	(high __ramtop+-1)
  9413  00179C  64F7               	cpfsgt	tblptrh,c
  9414  00179E  D003               	bra	i2u181_47
  9415  0017A0  0008               	tblrd		*
  9416  0017A2  50F5               	movf	tablat,w,c
  9417  0017A4  D005               	bra	i2u181_40
  9418  0017A6                     i2u181_47:
  9419  0017A6  CFF6 FFE9          	movff	tblptrl,fsr0l
  9420  0017AA  CFF7 FFEA          	movff	tblptrh,fsr0h
  9421  0017AE  50EF               	movf	indf0,w,c
  9422  0017B0                     i2u181_40:
  9423  0017B0  6EDF               	movwf	indf2,c
  9424  0017B2  4A24               	infsnz	_inPipes,f,c	;volatile
  9425  0017B4  2A25               	incf	_inPipes+1,f,c	;volatile
  9426  0017B6  0100               	movlb	0	; () banked
  9427  0017B8  4B6C               	infsnz	_pDst& (0+255),f,b
  9428  0017BA  2B6D               	incf	(_pDst+1)& (0+255),f,b
  9429                           
  9430                           ; BSR set to: 0
  9431                           ;usb_device.c: 1832: byteToSend--;
  9432  0017BC  062D               	decf	USBCtrlTrfTxService@byteToSend,f,c
  9433  0017BE  D000               	goto	i2l2952
  9434  0017C0                     i2l2952:
  9435                           
  9436                           ; BSR set to: 0
  9437  0017C0  502D               	movf	USBCtrlTrfTxService@byteToSend,w,c
  9438  0017C2  B4D8               	btfsc	status,2,c
  9439  0017C4  0012               	return	
  9440  0017C6  D7E0               	goto	i2l2944
  9441                           
  9442                           ; BSR set to: 0
  9443                           ;usb_device.c: 1833: }
  9444                           ;usb_device.c: 1834: }
  9445  0017C8  0012               	return	
  9446                           
  9447                           ; BSR set to: 0
  9448                           ;usb_device.c: 1835: else
  9449                           ;usb_device.c: 1836: {
  9450                           ;usb_device.c: 1837: while(byteToSend)
  9451  0017CA  D01C               	goto	i2l2962
  9452  0017CC                     i2l2954:
  9453                           
  9454                           ; BSR set to: 0
  9455                           ;usb_device.c: 1838: {
  9456                           ;usb_device.c: 1839: *pDst++ = *inPipes[0].pSrc.bRam++;
  9457  0017CC  C024  FFF6         	movff	_inPipes,tblptrl	;volatile
  9458  0017D0  C025  FFF7         	movff	_inPipes+1,tblptrh	;volatile
  9459  0017D4  6AF8               	clrf	tblptru,c
  9460  0017D6  C06C  FFD9         	movff	_pDst,fsr2l
  9461  0017DA  C06D  FFDA         	movff	_pDst+1,fsr2h
  9462  0017DE  0E07               	movlw	(high __ramtop+-1)
  9463  0017E0  64F7               	cpfsgt	tblptrh,c
  9464  0017E2  D003               	bra	i2u183_47
  9465  0017E4  0008               	tblrd		*
  9466  0017E6  50F5               	movf	tablat,w,c
  9467  0017E8  D005               	bra	i2u183_40
  9468  0017EA                     i2u183_47:
  9469  0017EA  CFF6 FFE9          	movff	tblptrl,fsr0l
  9470  0017EE  CFF7 FFEA          	movff	tblptrh,fsr0h
  9471  0017F2  50EF               	movf	indf0,w,c
  9472  0017F4                     i2u183_40:
  9473  0017F4  6EDF               	movwf	indf2,c
  9474  0017F6  4A24               	infsnz	_inPipes,f,c	;volatile
  9475  0017F8  2A25               	incf	_inPipes+1,f,c	;volatile
  9476  0017FA  0100               	movlb	0	; () banked
  9477  0017FC  4B6C               	infsnz	_pDst& (0+255),f,b
  9478  0017FE  2B6D               	incf	(_pDst+1)& (0+255),f,b
  9479                           
  9480                           ; BSR set to: 0
  9481                           ;usb_device.c: 1840: byteToSend--;
  9482  001800  062D               	decf	USBCtrlTrfTxService@byteToSend,f,c
  9483  001802  D000               	goto	i2l2962
  9484  001804                     i2l2962:
  9485                           
  9486                           ; BSR set to: 0
  9487  001804  502D               	movf	USBCtrlTrfTxService@byteToSend,w,c
  9488  001806  B4D8               	btfsc	status,2,c
  9489  001808  0012               	return	
  9490  00180A  D7E0               	goto	i2l2954
  9491                           
  9492                           ; BSR set to: 0
  9493  00180C  0012               	return	
  9494                           
  9495                           ; BSR set to: 0
  9496                           
  9497                           ; BSR set to: 0
  9498  00180E  0012               	return		;funcret
  9499  001810                     __end_of_USBCtrlTrfTxService:
  9500                           	opt stack 0
  9501                           pclatu	equ	0xFFB
  9502                           pclath	equ	0xFFA
  9503                           tblptru	equ	0xFF8
  9504                           tblptrh	equ	0xFF7
  9505                           tblptrl	equ	0xFF6
  9506                           tablat	equ	0xFF5
  9507                           prodh	equ	0xFF4
  9508                           prodl	equ	0xFF3
  9509                           intcon	equ	0xFF2
  9510                           indf0	equ	0xFEF
  9511                           postinc0	equ	0xFEE
  9512                           fsr0h	equ	0xFEA
  9513                           fsr0l	equ	0xFE9
  9514                           wreg	equ	0xFE8
  9515                           indf1	equ	0xFE7
  9516                           fsr1h	equ	0xFE2
  9517                           fsr1l	equ	0xFE1
  9518                           indf2	equ	0xFDF
  9519                           postinc2	equ	0xFDE
  9520                           postdec2	equ	0xFDD
  9521                           plusw2	equ	0xFDB
  9522                           fsr2h	equ	0xFDA
  9523                           fsr2l	equ	0xFD9
  9524                           status	equ	0xFD8
  9525                           pclatu	equ	0xFFB
  9526                           pclath	equ	0xFFA
  9527                           tblptru	equ	0xFF8
  9528                           tblptrh	equ	0xFF7
  9529                           tblptrl	equ	0xFF6
  9530                           tablat	equ	0xFF5
  9531                           prodh	equ	0xFF4
  9532                           prodl	equ	0xFF3
  9533                           intcon	equ	0xFF2
  9534                           indf0	equ	0xFEF
  9535                           postinc0	equ	0xFEE
  9536                           fsr0h	equ	0xFEA
  9537                           fsr0l	equ	0xFE9
  9538                           wreg	equ	0xFE8
  9539                           indf1	equ	0xFE7
  9540                           fsr1h	equ	0xFE2
  9541                           fsr1l	equ	0xFE1
  9542                           indf2	equ	0xFDF
  9543                           postinc2	equ	0xFDE
  9544                           postdec2	equ	0xFDD
  9545                           plusw2	equ	0xFDB
  9546                           fsr2h	equ	0xFDA
  9547                           fsr2l	equ	0xFD9
  9548                           status	equ	0xFD8
  9549                           
  9550                           	psect	rparam
  9551  0000                     pclatu	equ	0xFFB
  9552                           pclath	equ	0xFFA
  9553                           tblptru	equ	0xFF8
  9554                           tblptrh	equ	0xFF7
  9555                           tblptrl	equ	0xFF6
  9556                           tablat	equ	0xFF5
  9557                           prodh	equ	0xFF4
  9558                           prodl	equ	0xFF3
  9559                           intcon	equ	0xFF2
  9560                           indf0	equ	0xFEF
  9561                           postinc0	equ	0xFEE
  9562                           fsr0h	equ	0xFEA
  9563                           fsr0l	equ	0xFE9
  9564                           wreg	equ	0xFE8
  9565                           indf1	equ	0xFE7
  9566                           fsr1h	equ	0xFE2
  9567                           fsr1l	equ	0xFE1
  9568                           indf2	equ	0xFDF
  9569                           postinc2	equ	0xFDE
  9570                           postdec2	equ	0xFDD
  9571                           plusw2	equ	0xFDB
  9572                           fsr2h	equ	0xFDA
  9573                           fsr2l	equ	0xFD9
  9574                           status	equ	0xFD8


Data Sizes:
    Strings     0
    Constant    198
    Data        0
    BSS         61
    Persistent  0
    Stack       0

Auto Spaces:
    Space          Size  Autos    Used
    COMRAM           95     42      86
    BANK0           160      9      26
    BANK1           256      0       0
    BANK2           256      0       0
    BANK3           256      0       0
    BANK4           208      0       0
    BANK5           128      0       0
    BANK6           256      0       0
    BANK7           256      0       0

Pointer List with Targets:

    USER_USB_CALLBACK_EVENT_HANDLER@pdata	PTR void  size(2) Largest target is 32
		 -> USTATcopy(COMRAM[1]), USBActiveConfiguration(COMRAM[1]), BDT(BIGRAMll[32]), NULL(NULL[0]), 

    memset@p1	PTR void  size(2) Largest target is 32
		 -> USBAlternateInterface(COMRAM[1]), BDT(BIGRAMll[32]), UEP1(SFR_1[1]), 

    memset@p	PTR unsigned char  size(2) Largest target is 32
		 -> USBAlternateInterface(COMRAM[1]), BDT(BIGRAMll[32]), UEP1(SFR_1[1]), 

    memcpy@d1	PTR void  size(2) Largest target is 8
		 -> SetupPkt(BIGRAMlh[8]), 

    memcpy@d	PTR unsigned char  size(2) Largest target is 8
		 -> SetupPkt(BIGRAMlh[8]), 

    memcpy@s1	PTR const void  size(2) Largest target is 2047
		 -> RAM(DATA[2047]), CtrlTrfData(BIGRAMlh[8]), SetupPkt(BIGRAMlh[8]), ToSendDataBuffer(BIGRAMh[64]), 
		 -> ReceivedDataBuffer(BIGRAMll[64]), 

    memcpy@s	PTR const unsigned char  size(2) Largest target is 2047
		 -> RAM(DATA[2047]), CtrlTrfData(BIGRAMlh[8]), SetupPkt(BIGRAMlh[8]), ToSendDataBuffer(BIGRAMh[64]), 
		 -> ReceivedDataBuffer(BIGRAMll[64]), 

    USBStdFeatureReqHandler@pUEP	PTR unsigned char  size(2) Largest target is 1
		 -> UEP0(SFR_1[1]), 

    USBStdFeatureReqHandler@p	PTR struct __BDT size(2) Largest target is 32
		 -> BDT(BIGRAMll[32]), NULL(NULL[0]), 

    sp__memcpy	PTR void  size(2) Largest target is 8
		 -> SetupPkt(BIGRAMlh[8]), 

    USBStdGetStatusHandler@p	PTR struct __BDT size(2) Largest target is 32
		 -> BDT(BIGRAMll[32]), NULL(NULL[0]), 

    pDst	PTR volatile unsigned char  size(2) Largest target is 8
		 -> CtrlTrfData(BIGRAMlh[8]), NULL(NULL[0]), 

    USBConfigureEndpoint@handle	PTR volatile struct __BDT size(2) Largest target is 32
		 -> BDT(BIGRAMll[32]), 

    pBDTEntryEP0OutCurrent	PTR volatile struct __BDT size(2) Largest target is 32
		 -> BDT(BIGRAMll[32]), NULL(NULL[0]), 

    pBDTEntryEP0OutNext	PTR volatile struct __BDT size(2) Largest target is 32
		 -> BDT(BIGRAMll[32]), NULL(NULL[0]), 

    USBTransferOnePacket@data	PTR unsigned char  size(2) Largest target is 64
		 -> ToSendDataBuffer(BIGRAMh[64]), ReceivedDataBuffer(BIGRAMll[64]), 

    USBTransferOnePacket@handle	PTR volatile struct __BDT size(2) Largest target is 32
		 -> BDT(BIGRAMll[32]), NULL(NULL[0]), 

    USBEnableEndpoint@p	PTR unsigned char  size(2) Largest target is 1
		 -> UEP0(SFR_1[1]), 

    pBDTEntryOut	PTR volatile struct __BDT[2] size(2) Largest target is 32
		 -> BDT(BIGRAMll[32]), NULL(NULL[0]), 

    pBDTEntryIn	PTR volatile struct __BDT[2] size(2) Largest target is 32
		 -> BDT(BIGRAMll[32]), NULL(NULL[0]), 

    S866$pFunc	PTR FTN()void  size(2) Largest target is 0

    outPipes.pFunc	PTR FTN()void  size(2) Largest target is 0

    S856$wRam	PTR unsigned int  size(2) Largest target is 0

    outPipes.pDst.wRam	PTR unsigned int  size(2) Largest target is 0

    S856$bRam	PTR unsigned char  size(2) Largest target is 0

    outPipes.pDst.bRam	PTR unsigned char  size(2) Largest target is 0

    S832$wRom	PTR const unsigned int  size(2) Largest target is 0

    inPipes.pSrc.wRom	PTR const unsigned int  size(2) Largest target is 0

    S832$wRam	PTR unsigned int  size(2) Largest target is 0

    inPipes.pSrc.wRam	PTR unsigned int  size(2) Largest target is 0

    S832$bRom	PTR const unsigned char  size(2) Largest target is 0

    inPipes.pSrc.bRom	PTR const unsigned char  size(2) Largest target is 0

    S832$bRam	PTR unsigned char  size(2) Largest target is 0

    inPipes.pSrc.bRam	PTR unsigned char  size(2) Largest target is 0

    sp__memset	PTR void  size(2) Largest target is 32
		 -> USBAlternateInterface(COMRAM[1]), BDT(BIGRAMll[32]), UEP1(SFR_1[1]), 

    sp__USBTransferOnePacket	PTR void  size(2) Largest target is 32
		 -> BDT(BIGRAMll[32]), NULL(NULL[0]), 

    USBOutHandle	PTR volatile void  size(2) Largest target is 32
		 -> BDT(BIGRAMll[32]), NULL(NULL[0]), 

    USBInHandle	PTR volatile void  size(2) Largest target is 32
		 -> BDT(BIGRAMll[32]), NULL(NULL[0]), 

    USB_SD_Ptr	const PTR const unsigned char [3] size(2) Largest target is 52
		 -> sd002(CODE[46]), sd001(CODE[52]), sd000(CODE[4]), 

    USB_CD_Ptr	const PTR const unsigned char [1] size(2) Largest target is 41
		 -> configDescriptor1(CODE[41]), 


Critical Paths under _main in COMRAM

    None.

Critical Paths under _SYS_InterruptHigh in COMRAM

    _SYS_InterruptHigh->_USBDeviceTasks
    _USBDeviceTasks->_USBCtrlEPService
    i2_USBDeviceInit->i2_memset
    _USBWakeFromSuspend->_USER_USB_CALLBACK_EVENT_HANDLER
    _USBSuspend->_USER_USB_CALLBACK_EVENT_HANDLER
    _USBCtrlEPAllowDataStage->_USBCtrlTrfTxService
    _USBCheckStdRequest->_USBStdFeatureReqHandler
    _USBStdSetCfgHandler->_USER_USB_CALLBACK_EVENT_HANDLER
    _USBStdFeatureReqHandler->_USER_USB_CALLBACK_EVENT_HANDLER
    i2_SYSTEM_Initialize->i2_ADC_Enable
    i2_SYSTEM_Initialize->i2_ADC_SetConfiguration
    i2_SYSTEM_Initialize->i2_BUTTON_Enable
    i2_SYSTEM_Initialize->i2_LED_Enable
    _APP_LEDUpdateUSBStatus->_LED_Off
    _APP_LEDUpdateUSBStatus->_LED_On
    _APP_DeviceCustomHIDInitialize->_USBEnableEndpoint
    _USBEnableEndpoint->_USBConfigureEndpoint
    _USBCtrlTrfOutHandler->_USBCtrlTrfRxService
    _USBCtrlTrfInHandler->_USBCtrlTrfTxService

Critical Paths under _main in BANK0

    _main->_APP_DeviceCustomHIDTasks
    _main->_USBDeviceInit
    _USBDeviceInit->_memset
    _SYSTEM_Initialize->_ADC_Enable
    _SYSTEM_Initialize->_ADC_SetConfiguration
    _SYSTEM_Initialize->_BUTTON_Enable
    _SYSTEM_Initialize->_LED_Enable
    _APP_DeviceCustomHIDTasks->_USBTransferOnePacket

Critical Paths under _SYS_InterruptHigh in BANK0

    None.

Critical Paths under _main in BANK1

    None.

Critical Paths under _SYS_InterruptHigh in BANK1

    None.

Critical Paths under _main in BANK2

    None.

Critical Paths under _SYS_InterruptHigh in BANK2

    None.

Critical Paths under _main in BANK3

    None.

Critical Paths under _SYS_InterruptHigh in BANK3

    None.

Critical Paths under _main in BANK4

    None.

Critical Paths under _SYS_InterruptHigh in BANK4

    None.

Critical Paths under _main in BANK5

    None.

Critical Paths under _SYS_InterruptHigh in BANK5

    None.

Critical Paths under _main in BANK6

    None.

Critical Paths under _SYS_InterruptHigh in BANK6

    None.

Critical Paths under _main in BANK7

    None.

Critical Paths under _SYS_InterruptHigh in BANK7

    None.

Call Graph Tables:

 ---------------------------------------------------------------------------------
 (Depth) Function   	        Calls       Base Space   Used Autos Params    Refs
 ---------------------------------------------------------------------------------
 (0) _main                                                 0     0      0    3314
           _APP_DeviceCustomHIDTasks
                  _SYSTEM_Initialize
                    _USBDeviceAttach
                      _USBDeviceInit
 ---------------------------------------------------------------------------------
 (1) _USBDeviceInit                                        1     1      0    1361
                                              8 BANK0      1     1      0
                             _memset
 ---------------------------------------------------------------------------------
 (2) _memset                                               8     2      6    1070
                                              0 BANK0      8     2      6
 ---------------------------------------------------------------------------------
 (1) _USBDeviceAttach                                      0     0      0       0
 ---------------------------------------------------------------------------------
 (1) _SYSTEM_Initialize                                    1     1      0     110
                                              1 BANK0      1     1      0
                         _ADC_Enable
               _ADC_SetConfiguration
                      _BUTTON_Enable
                         _LED_Enable
 ---------------------------------------------------------------------------------
 (2) _LED_Enable                                           1     1      0      22
                                              0 BANK0      1     1      0
 ---------------------------------------------------------------------------------
 (2) _BUTTON_Enable                                        1     1      0      22
                                              0 BANK0      1     1      0
 ---------------------------------------------------------------------------------
 (2) _ADC_SetConfiguration                                 1     1      0      22
                                              0 BANK0      1     1      0
 ---------------------------------------------------------------------------------
 (2) _ADC_Enable                                           1     1      0      22
                                              0 BANK0      1     1      0
 ---------------------------------------------------------------------------------
 (1) _APP_DeviceCustomHIDTasks                             2     2      0    1843
                                              7 BANK0      2     2      0
                      _ADC_Read10bit
                   _BUTTON_IsPressed
                         _LED_Toggle
               _USBTransferOnePacket
 ---------------------------------------------------------------------------------
 (2) _USBTransferOnePacket                                 7     3      4    1614
                                              0 BANK0      7     3      4
 ---------------------------------------------------------------------------------
 (2) _LED_Toggle                                           1     1      0      31
                                              0 BANK0      1     1      0
 ---------------------------------------------------------------------------------
 (2) _BUTTON_IsPressed                                     1     1      0      31
                                              0 BANK0      1     1      0
 ---------------------------------------------------------------------------------
 (2) _ADC_Read10bit                                        6     4      2     102
                                              0 BANK0      6     4      2
 ---------------------------------------------------------------------------------
 Estimated maximum stack depth 2
 ---------------------------------------------------------------------------------
 (Depth) Function   	        Calls       Base Space   Used Autos Params    Refs
 ---------------------------------------------------------------------------------
 (3) _SYS_InterruptHigh                                   14    14      0   29552
                                             28 COMRAM    14    14      0
                     _USBDeviceTasks
 ---------------------------------------------------------------------------------
 (4) _USBDeviceTasks                                       1     1      0   29552
                                             27 COMRAM     1     1      0
          _USBCtrlEPAllowStatusStage
                   _USBCtrlEPService
      _USBIncrement1msInternalTimers
                    _USBStallHandler
                         _USBSuspend
                 _USBWakeFromSuspend
    _USER_USB_CALLBACK_EVENT_HANDLER
                    i2_USBDeviceInit
 ---------------------------------------------------------------------------------
 (5) i2_USBDeviceInit                                      1     1      0     610
                                              8 COMRAM     1     1      0
                           i2_memset
 ---------------------------------------------------------------------------------
 (5) _USBWakeFromSuspend                                   0     0      0    3900
    _USER_USB_CALLBACK_EVENT_HANDLER
 ---------------------------------------------------------------------------------
 (5) _USBSuspend                                           0     0      0    3900
    _USER_USB_CALLBACK_EVENT_HANDLER
 ---------------------------------------------------------------------------------
 (5) _USBStallHandler                                      1     1      0       0
                                              0 COMRAM     1     1      0
 ---------------------------------------------------------------------------------
 (5) _USBIncrement1msInternalTimers                        0     0      0       0
 ---------------------------------------------------------------------------------
 (5) _USBCtrlEPService                                     1     1      0   17196
                                             26 COMRAM     1     1      0
                _USBCtrlTrfInHandler
               _USBCtrlTrfOutHandler
             _USBCtrlTrfSetupHandler
                             _memcpy
 ---------------------------------------------------------------------------------
 (6) _memcpy                                              10     4      6     387
                                              0 COMRAM    10     4      6
 ---------------------------------------------------------------------------------
 (6) _USBCtrlTrfSetupHandler                               0     0      0   16619
                 _USBCheckStdRequest
           _USBCtrlEPServiceComplete
    _USER_USB_CALLBACK_EVENT_HANDLER
 ---------------------------------------------------------------------------------
 (7) _USBCtrlEPServiceComplete                             0     0      0      92
            _USBCtrlEPAllowDataStage
          _USBCtrlEPAllowStatusStage
 ---------------------------------------------------------------------------------
 (8) _USBCtrlEPAllowDataStage                              0     0      0      92
                _USBCtrlTrfTxService
 ---------------------------------------------------------------------------------
 (7) _USBCheckStdRequest                                   0     0      0   12627
            _USBStdFeatureReqHandler
                _USBStdGetDscHandler
             _USBStdGetStatusHandler
                _USBStdSetCfgHandler
    _USER_USB_CALLBACK_EVENT_HANDLER
 ---------------------------------------------------------------------------------
 (8) _USBStdSetCfgHandler                                  1     1      0    4398
                                             20 COMRAM     1     1      0
    _USER_USB_CALLBACK_EVENT_HANDLER
                           i2_memset
 ---------------------------------------------------------------------------------
 (6) i2_memset                                             8     2      6     408
                                              0 COMRAM     8     2      6
 ---------------------------------------------------------------------------------
 (8) _USBStdGetStatusHandler                               3     3      0      46
                                              0 COMRAM     3     3      0
 ---------------------------------------------------------------------------------
 (8) _USBStdGetDscHandler                                  2     2      0       0
                                              0 COMRAM     2     2      0
 ---------------------------------------------------------------------------------
 (8) _USBStdFeatureReqHandler                              6     6      0    4283
                                             20 COMRAM     6     6      0
    _USER_USB_CALLBACK_EVENT_HANDLER
 ---------------------------------------------------------------------------------
 (5) _USER_USB_CALLBACK_EVENT_HANDLER                      8     2      6    3900
                                             12 COMRAM     8     2      6
      _APP_DeviceCustomHIDInitialize
             _APP_LEDUpdateUSBStatus
                 _USBCheckHIDRequest
                i2_SYSTEM_Initialize
 ---------------------------------------------------------------------------------
 (6) i2_SYSTEM_Initialize                                  1     1      0     110
                                              1 COMRAM     1     1      0
                       i2_ADC_Enable
             i2_ADC_SetConfiguration
                    i2_BUTTON_Enable
                       i2_LED_Enable
 ---------------------------------------------------------------------------------
 (7) i2_LED_Enable                                         1     1      0      22
                                              0 COMRAM     1     1      0
 ---------------------------------------------------------------------------------
 (7) i2_BUTTON_Enable                                      1     1      0      22
                                              0 COMRAM     1     1      0
 ---------------------------------------------------------------------------------
 (7) i2_ADC_SetConfiguration                               1     1      0      22
                                              0 COMRAM     1     1      0
 ---------------------------------------------------------------------------------
 (7) i2_ADC_Enable                                         1     1      0      22
                                              0 COMRAM     1     1      0
 ---------------------------------------------------------------------------------
 (6) _USBCheckHIDRequest                                   0     0      0       0
 ---------------------------------------------------------------------------------
 (6) _APP_LEDUpdateUSBStatus                               0     0      0      44
                            _LED_Off
                             _LED_On
 ---------------------------------------------------------------------------------
 (7) _LED_On                                               1     1      0      22
                                              0 COMRAM     1     1      0
 ---------------------------------------------------------------------------------
 (7) _LED_Off                                              1     1      0      22
                                              0 COMRAM     1     1      0
 ---------------------------------------------------------------------------------
 (6) _APP_DeviceCustomHIDInitialize                        0     0      0    1054
                  _USBEnableEndpoint
             i2_USBTransferOnePacket
 ---------------------------------------------------------------------------------
 (7) i2_USBTransferOnePacket                               7     3      4     410
                                              0 COMRAM     7     3      4
 ---------------------------------------------------------------------------------
 (7) _USBEnableEndpoint                                    4     3      1     644
                                              8 COMRAM     4     3      1
               _USBConfigureEndpoint
 ---------------------------------------------------------------------------------
 (8) _USBConfigureEndpoint                                 8     7      1     400
                                              0 COMRAM     8     7      1
 ---------------------------------------------------------------------------------
 (6) _USBCtrlTrfOutHandler                                 0     0      0      75
                _USBCtrlTrfRxService
 ---------------------------------------------------------------------------------
 (7) _USBCtrlTrfRxService                                  2     2      0      75
                                              0 COMRAM     2     2      0
          _USBCtrlEPAllowStatusStage
 ---------------------------------------------------------------------------------
 (8) _USBCtrlEPAllowStatusStage                            0     0      0       0
 ---------------------------------------------------------------------------------
 (6) _USBCtrlTrfInHandler                                  1     1      0     115
                                              1 COMRAM     1     1      0
                _USBCtrlTrfTxService
 ---------------------------------------------------------------------------------
 (9) _USBCtrlTrfTxService                                  1     1      0      92
                                              0 COMRAM     1     1      0
 ---------------------------------------------------------------------------------
 Estimated maximum stack depth 9
 ---------------------------------------------------------------------------------

 Call Graph Graphs:

 _main (ROOT)
   _APP_DeviceCustomHIDTasks
     _ADC_Read10bit
     _BUTTON_IsPressed
     _LED_Toggle
     _USBTransferOnePacket
   _SYSTEM_Initialize
     _ADC_Enable
     _ADC_SetConfiguration
     _BUTTON_Enable
     _LED_Enable
   _USBDeviceAttach
   _USBDeviceInit
     _memset

 _SYS_InterruptHigh (ROOT)
   _USBDeviceTasks
     _USBCtrlEPAllowStatusStage
     _USBCtrlEPService
       _USBCtrlTrfInHandler
         _USBCtrlTrfTxService
       _USBCtrlTrfOutHandler
         _USBCtrlTrfRxService
           _USBCtrlEPAllowStatusStage
       _USBCtrlTrfSetupHandler
         _USBCheckStdRequest
           _USBStdFeatureReqHandler
             _USER_USB_CALLBACK_EVENT_HANDLER
               _APP_DeviceCustomHIDInitialize
                 _USBEnableEndpoint
                   _USBConfigureEndpoint
                 i2_USBTransferOnePacket
               _APP_LEDUpdateUSBStatus
                 _LED_Off
                 _LED_On
               _USBCheckHIDRequest
               i2_SYSTEM_Initialize
                 i2_ADC_Enable
                 i2_ADC_SetConfiguration
                 i2_BUTTON_Enable
                 i2_LED_Enable
           _USBStdGetDscHandler
           _USBStdGetStatusHandler
           _USBStdSetCfgHandler
             _USER_USB_CALLBACK_EVENT_HANDLER
               _APP_DeviceCustomHIDInitialize
                 _USBEnableEndpoint
                   _USBConfigureEndpoint
                 i2_USBTransferOnePacket
               _APP_LEDUpdateUSBStatus
                 _LED_Off
                 _LED_On
               _USBCheckHIDRequest
               i2_SYSTEM_Initialize
                 i2_ADC_Enable
                 i2_ADC_SetConfiguration
                 i2_BUTTON_Enable
                 i2_LED_Enable
             i2_memset
           _USER_USB_CALLBACK_EVENT_HANDLER
             _APP_DeviceCustomHIDInitialize
               _USBEnableEndpoint
                 _USBConfigureEndpoint
               i2_USBTransferOnePacket
             _APP_LEDUpdateUSBStatus
               _LED_Off
               _LED_On
             _USBCheckHIDRequest
             i2_SYSTEM_Initialize
               i2_ADC_Enable
               i2_ADC_SetConfiguration
               i2_BUTTON_Enable
               i2_LED_Enable
         _USBCtrlEPServiceComplete
           _USBCtrlEPAllowDataStage
             _USBCtrlTrfTxService
           _USBCtrlEPAllowStatusStage
         _USER_USB_CALLBACK_EVENT_HANDLER
           _APP_DeviceCustomHIDInitialize
             _USBEnableEndpoint
               _USBConfigureEndpoint
             i2_USBTransferOnePacket
           _APP_LEDUpdateUSBStatus
             _LED_Off
             _LED_On
           _USBCheckHIDRequest
           i2_SYSTEM_Initialize
             i2_ADC_Enable
             i2_ADC_SetConfiguration
             i2_BUTTON_Enable
             i2_LED_Enable
       _memcpy
     _USBIncrement1msInternalTimers
     _USBStallHandler
     _USBSuspend
       _USER_USB_CALLBACK_EVENT_HANDLER
         _APP_DeviceCustomHIDInitialize
           _USBEnableEndpoint
             _USBConfigureEndpoint
           i2_USBTransferOnePacket
         _APP_LEDUpdateUSBStatus
           _LED_Off
           _LED_On
         _USBCheckHIDRequest
         i2_SYSTEM_Initialize
           i2_ADC_Enable
           i2_ADC_SetConfiguration
           i2_BUTTON_Enable
           i2_LED_Enable
     _USBWakeFromSuspend
       _USER_USB_CALLBACK_EVENT_HANDLER
         _APP_DeviceCustomHIDInitialize
           _USBEnableEndpoint
             _USBConfigureEndpoint
           i2_USBTransferOnePacket
         _APP_LEDUpdateUSBStatus
           _LED_Off
           _LED_On
         _USBCheckHIDRequest
         i2_SYSTEM_Initialize
           i2_ADC_Enable
           i2_ADC_SetConfiguration
           i2_BUTTON_Enable
           i2_LED_Enable
     _USER_USB_CALLBACK_EVENT_HANDLER
       _APP_DeviceCustomHIDInitialize
         _USBEnableEndpoint
           _USBConfigureEndpoint
         i2_USBTransferOnePacket
       _APP_LEDUpdateUSBStatus
         _LED_Off
         _LED_On
       _USBCheckHIDRequest
       i2_SYSTEM_Initialize
         i2_ADC_Enable
         i2_ADC_SetConfiguration
         i2_BUTTON_Enable
         i2_LED_Enable
     i2_USBDeviceInit
       i2_memset

 Address spaces:
Name               Size   Autos  Total    Cost      Usage
BIGRAMll           3FF      0       0      23        0.0%
BIGRAMh            280      0       0      21        0.0%
EEDATA             100      0       0       0        0.0%
BITBANK7           100      0       0      19        0.0%
BANK7              100      0       0      20        0.0%
BITBANK6           100      0       0      17        0.0%
BANK6              100      0       0      18        0.0%
BITBANK3           100      0       0      10        0.0%
BANK3              100      0       0      11        0.0%
BITBANK2           100      0       0       8        0.0%
BANK2              100      0       0       9        0.0%
BITBANK1           100      0       0       6        0.0%
BANK1              100      0       0       7        0.0%
BIGRAMlh            D0      0       0      22        0.0%
BITBANK4            D0      0       0      12        0.0%
BANK4               D0      0       0      13        0.0%
BITBANK0            A0      0       0       4        0.0%
BANK0               A0      9      1A       5       16.3%
BITBANK5            80      0       0      15        0.0%
BANK5               80      0       0      16        0.0%
BITCOMRAM           5F      0       0       0        0.0%
COMRAM              5F     2A      56       1       90.5%
BITSFR_1             0      0       0      40        0.0%
SFR_1                0      0       0      40        0.0%
BITSFR               0      0       0      40        0.0%
SFR                  0      0       0      40        0.0%
STACK                0      0       0       2        0.0%
NULL                 0      0       0       0        0.0%
ABS                  0      0      70      14        0.0%
DATA                 0      0      70       3        0.0%
CODE                 0      0       0       0        0.0%


Microchip Technology PIC18 Macro Assembler V1.34 build -361300703 
Symbol Table                                                                                   Mon Jan 25 15:52:23 2016

                              _USB_SD_Ptr 0801                                        l10 2150  
                                      l17 2272                                        l52 1EBC  
                                      l60 230C                                        l54 1EEA  
                                      l91 22B2                               ?_LED_Enable 002D  
                           _USBDeviceInit 0B56                        _USBCheckHIDRequest 13A4  
                     __size_of_ADC_Enable 001C                              __CFG_CP0$OFF 000000  
                            __CFG_CP1$OFF 000000                              __CFG_CP2$OFF 000000  
                            __CFG_CP3$OFF 000000      USER_USB_CALLBACK_EVENT_HANDLER@event 0039  
    USER_USB_CALLBACK_EVENT_HANDLER@pdata 003B                                       l105 2250  
                                     l133 1F24                               ?_LED_Toggle 002D  
                                     l180 21EE               __end_of_USBStdGetDscHandler 1196  
                                     l409 0BC4                                       l470 213C  
                                     l469 213E                                       _BDT 000400  
                            __CFG_CPB$OFF 000000                              __CFG_CPD$OFF 000000  
                                     _UIE 000F64                                       _UIR 000F65  
                  _APP_LEDUpdateUSBStatus 1CCC                                _USBSuspend 217A  
                    USBStdSetCfgHandler@i 0041                                       prod 000FF3  
                                     wreg 000FE8                            _USBDeviceTasks 0CB8  
                     ?_USBCheckHIDRequest 002D                            _USBDeviceState 001D  
                           _BUTTON_Enable 226C                     ??_USBCtrlTrfRxService 002D  
                __size_ofi2_USBDeviceInit 0144                  USBEnableEndpoint@options 0035  
                            __CFG_LVP$OFF 000000                           __end_of_LED_Off 2356  
                                    l4004 0C70                                      l4104 21F6  
                                    l4042 0F60                                      l4044 0F68  
              USBConfigureEndpoint@handle 0033                                      l4062 0FDC  
                                    l4054 0F98                                      l4056 0FA0  
                                    l4048 0F82                                      l4058 0FC2  
                                    l4074 1024                                      l4076 1048  
                                    l4098 21E6                                      l3900 15B0  
                                    l3840 2162                                      l3920 1648  
                                    l3842 2174                                      l3834 215C  
                                    l3906 15CA                                      l3850 227A  
                                    l3930 2094                                      l3918 1630  
                                    l3934 1F16                                      l3950 1F4C  
                                    l3926 2080                                      l3856 1EC6  
                                    l3858 1ED0                                      l3874 2314  
                                    l3970 0B9E                                      l3892 2258  
                                    l3886 22B6                                      l3982 0BD0  
                                    l3974 0BBC                                      l3898 1594  
                                    l3994 0C00                                      l3998 0C0A  
                   ??i2_SYSTEM_Initialize 002E                                      u2930 2158  
                                    i2l17 22EC                                      i2l60 2372  
                   ??_USBCtrlTrfTxService 002D                                      i2l84 2340  
                                    i2l77 2326                                      _UCFG 000F62  
                                    _UEP0 000F6A                                      _UEP1 000F6B  
                                    _UEIE 000F66                                      _UEIR 000F67  
                                    _UCON 000F60    USBStdFeatureReqHandler@current_ep_data 0044  
                                    _pDst 006C                                      _main 21D6  
                ??i2_USBTransferOnePacket 0031                                      fsr0h 000FEA  
                                    fsr1h 000FE2                                      indf0 000FEF  
                                    fsr0l 000FE9                                      fsr2h 000FDA  
                                    indf1 000FE7                                      fsr1l 000FE1  
                                    indf2 000FDF                                      fsr2l 000FD9  
                         _USBDeviceAttach 2118                             __CFG_BORV$190 000000  
                                    pclat 000FFA                                      prodh 000FF4  
                                    prodl 000FF3                                      start 007E  
                __size_ofi2_BUTTON_Enable 001E                             __CFG_IESO$OFF 000000  
                    ??_USBCheckHIDRequest 002D                __end_of_USBCheckStdRequest 1576  
                  ??_USBCtrlTrfOutHandler 002F                             __CFG_MCLRE$ON 000000  
                            ___param_bank 000010                 ??_USBStdFeatureReqHandler 0041  
                            _USBOutHandle 006A                  ??_USBStdGetStatusHandler 002D  
                          ?_USBDeviceInit 002D                                     ?_main 002D  
       __size_of_USBCtrlEPServiceComplete 00FA                    __end_of_USBDeviceTasks 0E00  
               ?_USBCtrlEPServiceComplete 002D                                     i2l105 22CE  
                                   i2l133 1F74                                     i2l420 0CE4  
                                   i2l430 0D82                                     i2l431 0DFC  
                                   i2l432 0D92                                     i2l409 0E5E  
                                   i2l605 1A42                                     i2l560 1AF2  
                                   i2l561 1A76                                     i2l634 08F2  
                                   i2l562 1A7A                                     i2l570 1FF0  
                                   i2l619 14A8                                     i2l628 14F8  
                                   i2l653 0ABE                                     i2l557 1A60  
                                   i2l494 1324                                     _UADDR 000F63  
                                   _USTAT 000F61                             __CFG_WRT0$OFF 000000  
      __size_of_USBCtrlEPAllowStatusStage 00C4                             __CFG_WRT1$OFF 000000  
                           __CFG_WRT2$OFF 000000                             __CFG_WRT3$OFF 000000  
                          __CFG_EBTR0$OFF 000000                            __CFG_FCMEN$OFF 000000  
                          ?_BUTTON_Enable 002D                            __CFG_EBTR1$OFF 000000  
                          __CFG_EBTR2$OFF 000000                            __CFG_EBTR3$OFF 000000  
         __end_of_USBCtrlEPAllowDataStage 1BA4                                     _sd000 08C3  
                                   _sd001 0809                                     _sd002 083D  
                           __CFG_WRTB$OFF 000000            ?_USBIncrement1msInternalTimers 002D  
                           __CFG_WRTC$OFF 000000                             __CFG_WRTD$OFF 000000  
                          __CFG_EBTRB$OFF 000000                                i2memset@p1 002D  
               __size_of_BUTTON_IsPressed 0030                                     tablat 000FF5  
                           ?i2_ADC_Enable 002D                       __size_of_LED_Enable 0022  
                                   plusw2 000FDB                                     status 000FD8  
                          __CFG_T3CMX$RC0 000000                            __CFG_ICPRT$OFF 000000  
                        __end_ofi2_memset 21D6                       __size_of_LED_Toggle 001E  
            __size_of_USBStdSetCfgHandler 00DE                           __initialization 2228  
                            __end_of_main 2200                  ??i2_ADC_SetConfiguration 002D  
               __size_of_USBCtrlEPService 0092                                    ??_main 007A  
                           __activetblptr 000002                           ?_USBDeviceTasks 002D  
                  __size_of_ADC_Read10bit 005C                               ?_USBSuspend 002D  
                               ??_LED_Off 002D                            __CFG_SDOMX$RC7 000000  
                         __CFG_CCP2MX$RC1 000000                   __end_of_USBDeviceAttach 214A  
                                  _ADCON0 000FC2                                    _ADCON1 000FC1  
                                  _ADCON2 000FC0                                    _ACTCON 000FB5  
                                  _ADRESH 000FC4                                    _ADRESL 000FC3  
                          ??i2_ADC_Enable 002D                    SYSTEM_Initialize@state 0072  
                            ??_ADC_Enable 0071                                    i2l3002 1694  
                                  i2l2036 1EAC                                    i2l2028 1E64  
                                  i2l3012 16C8                                    i2l3102 08EC  
                                  i2l3006 169C                                    i2l3040 1094  
                                  i2l3200 133A                                    i2l2224 1FEE  
                                  i2l3130 09EE                                    i2l3122 09AC  
                                  i2l3050 111E                                    i2l3140 0A3C  
                                  i2l3124 09B0                                    i2l3116 0966  
                                  i2l3036 1082                                    i2l3028 170E  
                                  i2l3118 09A4                                    i2l3062 117A  
                                  i2l3312 19C2                                    i2l1632 1856  
                                  i2l3144 0A56                                    i2l3128 09CC  
                                  i2l3056 116E                                    i2l3048 1118  
                                  i2l3232 14B0                                    i2l3208 134E  
                                  _LED_On 2322                                    i2l3314 19C8  
                                  i2l3170 0B20                                    i2l3154 0A9C  
                                  i2l3138 0A20                                    i2l3058 1174  
                                  i2l3074 1A98                                    i2l3234 14B6  
                                  i2l3332 1A28                                    i2l3172 0B2E  
                                  i2l3164 0ADA                                    i2l3156 0AAA  
                                  i2l3076 1ABA                                    i2l3068 1A6A  
                                  i2l3084 1ADA                                    i2l3244 14CE  
                                  i2l3236 14BC                                    i2l3326 1A08  
                                  i2l2702 232A                                    i2l3166 0AF6  
                                  i2l3246 14D6                                    i2l3262 1530  
                                  i2l1912 11B8                                    i2l3248 14DC  
                                  i2l3184 12C4                                    i2l3272 2024  
                                  i2l3424 20D2                                    i2l3520 0EA0  
                                  i2l3504 0E6A                                    i2l3338 1A4A  
                                  i2l1922 11EA                                    i2l2714 2048  
                                  i2l2802 1D36                                    i2l2810 1D4C  
                                  i2l4146 1E1A                                    i2l3258 1512  
                                  i2l3266 2006                                    i2l3426 20D6  
                                  i2l3602 0D46                                    i2l1916 11C6  
                                  i2l2708 2344                                    i2l2732 237A  
                                  i2l4148 1E4E                                    i2l2900 1DDE  
                                  i2l3188 12CE                                    i2l3516 0E98  
                                  i2l1934 1244                                    i2l2718 2058  
                                  i2l2750 18EA                                    i2l2830 13CE  
                                  i2l2822 13B4                                    i2l2726 22F4  
                                  i2l2902 1DEA                                    i2l2910 1E02  
                                  i2l3470 1CBA                                    i2l3526 0EFC  
                                  i2l3622 0D8A                                    i2l2752 1904  
                                  i2l2808 1D42                                    i2l2744 22D6  
                                  i2l2904 1DF6                                    i2l3616 0D78  
                                  i2l3608 0D52                                    i2l2930 1750  
                                  i2l1938 125E                                    i2l2770 1972  
                                  i2l2826 13C0                                    i2l2906 1DFC  
                                  i2l3642 0DD8                                    i2l2692 1C06  
                                  i2l2772 1988                                    i2l2852 1428  
                                  i2l2836 13E4                                    i2l3468 1CB4  
                                  i2l3492 0E3E                                    i2l3644 0DF8  
                                  i2l3636 0DB8                                    i2l3564 0CDC  
                                  i2l3556 0CCE                                    i2l2934 175C  
                                  i2l2694 1C20                                    i2l2758 1916  
                                  i2l2790 1CFE                                    i2l2782 1CDC  
                                  i2l2862 1448                                    i2l2838 13EA  
                                  i2l2846 13FE                                    i2l3638 0DCC  
                                  i2l3590 0D2A                                    i2l2944 1788  
                                  i2l2952 17C0                                    i2l2848 1412  
                                  i2l3496 0E58                                    i2l3584 0D04  
                                  i2l2954 17CC                                    i2l2962 1804  
                                  i2l2794 1D14                                    i2l2786 1CEC  
                                  i2l2858 143E                                    i2l2874 1468  
                                  i2l2970 21C4                                    i2l3578 0CF8  
                                  i2l2868 145E                                    i2l2798 1D24  
                                  i2l2878 1F66                                    i2l2894 1F9C  
                                  i2l2966 21B2                                    i2l2982 1B56  
                                  i2l3598 0D3A                                    i2l2898 1DD8  
                                  i2l2986 1B70           ??_APP_DeviceCustomHIDInitialize 0039  
                                  _OSCCON 000FD3                  i2USBTransferOnePacket@ep 0031  
                       ??i2_USBDeviceInit 0035           __size_ofi2_USBTransferOnePacket 00C0  
                       _shortPacketStatus 0023                            __CFG_XINST$OFF 000000  
                         USBDeviceTasks@i 0048               USBStdFeatureReqHandler@pUEP 0042  
                USBTransferOnePacket@data 0072                USBCtrlTrfInHandler@lastDTS 002E  
                         ??_USBDeviceInit 0079                            __CFG_STVREN$ON 000000  
                       ??i2_BUTTON_Enable 002D                         _USBEnableEndpoint 2036  
         __size_of_USBStdGetStatusHandler 00B6                                    _memcpy 1FF4  
                           ?i2_LED_Enable 002D                                    _memset 2076  
                                  clear_0 222E                                    clear_1 223A  
                      ?_USBEnableEndpoint 0035                        __end_of_ADC_Enable 2322  
           __size_of_USBTransferOnePacket 00DE                           ??_BUTTON_Enable 0071  
                            __mediumconst 0000                                    tblptrh 000FF7  
                                  tblptrl 000FF6                                    tblptru 000FF8  
                     ??_USBEnableEndpoint 0036                               _CtrlTrfData 000428  
                    _controlTransferState 0021                ??_APP_DeviceCustomHIDTasks 0078  
                    __CFG_LS48MHZ$SYS48X8 000000                         _SYSTEM_Initialize 1F10  
                              __accesstop 0060                   __end_of__initialization 2240  
                         __CFG_PBADEN$OFF 000000                             _ADC_Read10bit 1EB4  
                      ?_SYSTEM_Initialize 002D                             ___rparam_used 000001  
                __size_of_USBStallHandler 0044                       __size_of_USBSuspend 002E  
                          __pcstackCOMRAM 002D                 __end_of_USBEnableEndpoint 2076  
                        __CFG_nPWRTEN$OFF 000000                             __end_of_sd000 08C7  
                           __end_of_sd001 083D                             __end_of_sd002 086B  
                     ??_SYSTEM_Initialize 0072                                 LED_On@led 002D  
        __size_of_USBCtrlEPAllowDataStage 009C           __size_ofi2_ADC_SetConfiguration 0018  
                          ??i2_LED_Enable 002D                           _active_protocol 006F  
                            ??_LED_Enable 0071             __size_of_USBConfigureEndpoint 0096  
             __end_of_USBCtrlTrfInHandler 1A52                   ?_APP_LEDUpdateUSBStatus 002D  
                  i2_USBTransferOnePacket 18D4                              ??_LED_Toggle 0071  
                         __CFG_PCLKEN$OFF 000000                            __CFG_nLPBOR$ON 000000  
                               ?i2_memset 002D                  ??_USBCtrlTrfSetupHandler 0047  
                 _USBTicksSinceSuspendEnd 006E                          ?_USBDeviceAttach 002D  
               __end_of_SYSTEM_Initialize 1F62                          _BUTTON_IsPressed 214A  
           __size_of_ADC_SetConfiguration 001E                    _USBStdGetStatusHandler 1A52  
                              __pbssBANK0 0060                                   ?_LED_On 002D  
                          ?_ADC_Read10bit 0071                        __end_of_LED_Enable 226C  
             __size_of_USBWakeFromSuspend 0036                               _pBDTEntryIn 0009  
        __end_of_USBCtrlEPServiceComplete 13A4     __end_of_APP_DeviceCustomHIDInitialize 2118  
  __size_of_APP_DeviceCustomHIDInitialize 0036             _APP_DeviceCustomHIDInitialize 20E2  
                      __end_of_LED_Toggle 22CA                         __CFG_PLLSEL$PLL3X 000000  
                    USBCtrlTrfRxService@i 002D                             LED_Enable@led 0071  
          __end_of_APP_LEDUpdateUSBStatus 1D52                                   ?_memcpy 002D  
                    __end_ofi2_ADC_Enable 2386                                   ?_memset 0071  
                              _device_dsc 08B1                          _USBCtrlEPService 1C3A  
                              _ep_data_in 000F               __end_of_USBCtrlTrfRxService 12AA  
             APP_DeviceCustomHIDTasks@pot 0078                        _USBCheckStdRequest 1494  
                       _configDescriptor1 086B                                   _LED_Off 233C  
                         __CFG_WDTEN$SWON 000000               __end_ofi2_SYSTEM_Initialize 1FB0  
                              ??i2_memset 0033               __end_of_USBCtrlTrfTxService 1810  
                     _USBStdSetCfgHandler 1654                                   _OSCCON2 000FD2  
                                 _OSCTUNE 000F9B                    i2_ADC_SetConfiguration 2356  
                     ?_USBCheckStdRequest 002D              __size_of_USBStdGetDscHandler 0124  
                                 _UIEbits 000F64                                   _UIRbits 000F65  
                         __size_of_LED_On 001A            APP_LEDUpdateUSBStatus@ledCount 000D  
                                 __Hparam 0000           ??_USBIncrement1msInternalTimers 002D  
                    ?_USBStdSetCfgHandler 002D               __size_of_USBCheckHIDRequest 00F0  
                                 __Lparam 0000                         __end_of_hid_rpt01 08B1  
              __size_of_USBEnableEndpoint 0040       i2ADC_SetConfiguration@configuration 002D  
       ADC_SetConfiguration@configuration 0071                      ??_USBCheckStdRequest 0047  
           __size_of_USBCtrlTrfOutHandler 005E                          _ToSendDataBuffer 000540  
                        ??_USBDeviceTasks 0048                         ??_USBStallHandler 002D  
                            __psmallconst 0800                                   __pcinit 2228  
                         __size_of_memcpy 0042                           __size_of_memset 0036  
               __end_of_configDescriptor1 0894                                   __ramtop 0800  
                                 __ptext0 21D6                                   __ptext1 0B56  
                                 __ptext2 2076                                   __ptext3 2118  
                                 __ptext4 1F10                                   __ptext5 224A  
                                 __ptext6 226C                                   __ptext7 228E  
                                 __ptext8 2306                                   __ptext9 0F44  
                                 _inPipes 0024               _USBDeferOUTDataStagePackets 001B  
                            ??_USBSuspend 0041                           i2_USBDeviceInit 0E00  
                        i2USBDeviceInit@i 0035                        __end_of_USB_CD_Ptr 0809  
              __size_of_SYSTEM_Initialize 0052           __size_of_USBCtrlTrfSetupHandler 0082  
                    end_of_initialization 2240                           ??_ADC_Read10bit 0073  
                    __end_ofi2_LED_Enable 22E8                        __end_of_USB_SD_Ptr 0807  
                                 memcpy@d 0033                                   memcpy@n 0031  
                                 memcpy@s 0035                       _pBDTEntryEP0OutNext 0015  
                                 memset@c 0073                                   memset@n 0075  
                                 memset@p 0077                             __Lmediumconst 0000  
                         _USB1msTickCount 0060                           i2_BUTTON_Enable 22E8  
                ?_USBStdFeatureReqHandler 002D                     ??_USBStdSetCfgHandler 0041  
                      __end_of_USBSuspend 21A8                   _USBCtrlEPAllowDataStage 1B08  
                                 postdec2 000FDD                                   postinc0 000FEE  
                                 postinc2 000FDE                  _USBCtrlEPServiceComplete 12AA  
              _USBStatusStageEnabledFlag1 001E                _USBStatusStageEnabledFlag2 001F  
                      USBEnableEndpoint@p 0036                                 _PORTDbits 000F83  
                           LED_Toggle@led 0071                                 _TRISAbits 000F92  
                               _TRISCbits 000F94                                 _TRISDbits 000F95  
                      _ReceivedDataBuffer 000500                        _BothEP0OutUOWNsSet 0017  
               USBConfigureEndpoint@EPNum 0032                ?_USBCtrlEPAllowStatusStage 002D  
     USER_USB_CALLBACK_EVENT_HANDLER@size 003D                                 _USTATcopy 002C  
            __end_of_USBTransferOnePacket 1654                            __end_of_LED_On 233C  
                   __size_ofi2_ADC_Enable 0018                    _USBCtrlTrfSetupHandler 1D52  
                __end_of_BUTTON_IsPressed 217A                   ?i2_USBTransferOnePacket 002D  
                   __end_of_USBDeviceInit 0CB8     __end_of_USBIncrement1msInternalTimers 2228  
  __size_of_USBIncrement1msInternalTimers 0028             _USBIncrement1msInternalTimers 2200  
                              LED_Off@led 002D                   __end_ofi2_USBDeviceInit 0F44  
                               i2memset@c 002F                                 i2memset@n 0031  
                               i2memset@p 0033                            __end_of_memcpy 2036  
                          __end_of_memset 20AC                         _USBBusIsSuspended 0019  
                     start_initialization 2228                   ?_USBStdGetStatusHandler 002D  
                i2SYSTEM_Initialize@state 002E                     __end_of_BUTTON_Enable 228E  
           USBCtrlTrfRxService@byteToRead 002E                   __end_ofi2_BUTTON_Enable 2306  
                       __size_ofi2_memset 002E              __end_of_USBConfigureEndpoint 1C3A  
         __end_of_USBStdFeatureReqHandler 0B56                                  ??_LED_On 002D  
       __end_of_USBCtrlEPAllowStatusStage 18D4                              i2_ADC_Enable 236E  
                __end_of_USBCtrlEPService 1CCC                 ??_USBCtrlEPAllowDataStage 002E  
                          USBDeviceInit@i 0079                    _pBDTEntryEP0OutCurrent 0013  
                 USBTransferOnePacket@dir 0071                   USBTransferOnePacket@len 0074  
          __end_ofi2_USBTransferOnePacket 1994              __end_of_ADC_SetConfiguration 22AC  
                     _USBStdGetDscHandler 1072         __size_of_APP_DeviceCustomHIDTasks 012E  
               ?_APP_DeviceCustomHIDTasks 002D                                  ??_memcpy 0033  
                                ??_memset 0077                    BUTTON_IsPressed@button 0071  
                  _USBActiveConfiguration 002A            __end_of_USBStdGetStatusHandler 1B08  
                                ?_LED_Off 002D                   ?i2_ADC_SetConfiguration 002D  
                             __pbssCOMRAM 0001                             __pcstackBANK0 0071  
            __size_of_USBCtrlTrfInHandler 00BE                     __size_ofi2_LED_Enable 001E  
                    ?_USBStdGetDscHandler 002D                __end_of_USBWakeFromSuspend 20E2  
                         _USBStallHandler 1FB0                       i2ADC_Enable@channel 002D  
                            _pBDTEntryOut 0064                  __size_of_USBDeviceAttach 0032  
                   i2BUTTON_Enable@button 002D                                 __pintcode 0008  
                               _hid_rpt01 0894                                 _idle_rate 0070  
                            i2_LED_Enable 22CA                          ?i2_USBDeviceInit 002D  
          __end_ofi2_ADC_SetConfiguration 236E                      _USBTransferOnePacket 1576  
                             __smallconst 0800              __end_of_USBCtrlTrfOutHandler 1EB4  
                   ??_USBStdGetDscHandler 002D                               _ep_data_out 0011  
                        ?i2_BUTTON_Enable 002D              __size_of_USBCtrlTrfRxService 0114  
           USBConfigureEndpoint@direction 002D              __size_ofi2_SYSTEM_Initialize 004E  
            __size_of_USBCtrlTrfTxService 00DE                                  _LATCbits 000F8B  
              __end_of_USBCheckHIDRequest 1494                ??_USBCtrlEPServiceComplete 002E  
                                _IPR3bits 000FA5                                  _PIE3bits 000FA3  
                                i2u181_40 17B0                                  i2u181_47 17A6  
                                i2u183_40 17F4                                  i2u167_40 1D0A  
                                i2u183_47 17EA                                  i2u193_40 10E6  
                                i2u193_47 10DC                                  i2u194_40 1114  
                                i2u194_47 110A                                  i2u196_40 1164  
                                i2u196_47 115A                                  _PIR3bits 000FA4  
                                _RCONbits 000FD0                          __CFG_WDTPS$32768 000000  
                                _UEP0bits 000F6A                _USBDeferINDataStagePackets 001A  
             __size_of_USBCheckStdRequest 00E2                                  _UCONbits 000F60  
                    _USBConfigureEndpoint 1BA4          __size_of_USBStdFeatureReqHandler 028E  
                              _ADCON0bits 000FC2                     ?_USBTransferOnePacket 0071  
                         i2LED_Enable@led 002D                         _SYS_InterruptHigh 0008  
                            _RemoteWakeup 0018                                  i2_memset 21A8  
                       __CFG_CFGPLLEN$OFF 000000                          __size_of_LED_Off 001A  
                      ?_SYS_InterruptHigh 002D                   __end_of_USBStallHandler 1FF4  
                    _ADC_SetConfiguration 228E               ??_USBCtrlEPAllowStatusStage 002D  
             __end_of_USBStdSetCfgHandler 1732                                _ADC_Enable 2306  
                     ??_SYS_InterruptHigh 0049                     __end_of_ADC_Read10bit 1F10  
                      __end_of_device_dsc 08C3                  ??_APP_LEDUpdateUSBStatus 002E  
                 ?_USBCtrlTrfSetupHandler 002D                   USBStdGetStatusHandler@p 002E  
                                __Hrparam 0000                                  __Lrparam 0000  
                  USBTransferOnePacket@ep 0075                        __CFG_BOREN$SBORDIS 000000  
                                _SetupPkt 000420                     ?_USBConfigureEndpoint 002D  
                       ??_USBDeviceAttach 0071                         ?_BUTTON_IsPressed 002D  
               __end_of_SYS_InterruptHigh 007E                        ??_BUTTON_IsPressed 0071  
                              _ANSELAbits 000F5B                                _ANSELCbits 000F5D  
                              _ANSELDbits 000F5E                   __size_of_USBDeviceTasks 0148  
                                __ptext10 1576                                  __ptext11 22AC  
                                __ptext20 2200                                  __ptext12 214A  
                                __ptext21 1C3A                                  __ptext13 1EB4  
                                __ptext30 1072                                  __ptext22 1FF4  
                                __ptext31 08C8                                  __ptext23 1D52  
                                __ptext15 0CB8                                  __ptext40 2322  
                                __ptext32 1DD4                                  __ptext24 12AA  
                                __ptext16 0E00                                  __ptext41 233C  
                                __ptext33 1F62                                  __ptext25 1B08  
                                __ptext17 20AC                                  __ptext50 1732  
                                __ptext42 20E2                                  __ptext34 22CA  
                                __ptext26 1494                                  __ptext18 217A  
                                __ptext43 18D4                                  __ptext35 22E8  
                                __ptext27 1654                                  __ptext19 1FB0  
                                __ptext44 2036                                  __ptext36 2356  
                                __ptext28 21A8                                  __ptext45 1BA4  
                                __ptext37 236E                                  __ptext29 1A52  
                                __ptext46 1E56                                  __ptext38 13A4  
                                __ptext47 1196                                  __ptext39 1CCC  
                                __ptext48 1810                                  __ptext49 1994  
                   ?_ADC_SetConfiguration 002D                               _OSCCON2bits 000FD2  
        __end_of_APP_DeviceCustomHIDTasks 1072            __end_of_USBCtrlTrfSetupHandler 1DD4  
                           __size_of_main 002A                         ?_USBCtrlEPService 002D  
                      ??_USBCtrlEPService 0047                       _USBCtrlTrfInHandler 1994  
                     BUTTON_Enable@button 0071                                  _outPipes 0001  
                    _USBCtrlTrfOutHandler 1E56                 _USBCtrlEPAllowStatusStage 1810  
                              _LED_Enable 224A                    ??_USBTransferOnePacket 0075  
          ?_APP_DeviceCustomHIDInitialize 002D                                _LED_Toggle 22AC  
               _USBDeferStatusStagePacket 001C                                _INTCONbits 000FF2  
                    ?_USBCtrlTrfInHandler 002D                                  memcpy@d1 002D  
                                memcpy@s1 002F             USBCtrlTrfTxService@byteToSend 002D  
                                memset@p1 0071                          ?_USBStallHandler 002D  
                USBStdFeatureReqHandler@p 0045                                  intlevel2 0000  
                             ?_ADC_Enable 002D                    __size_of_USBDeviceInit 0162  
 __end_of_USER_USB_CALLBACK_EVENT_HANDLER 1E56  __size_of_USER_USB_CALLBACK_EVENT_HANDLER 0082  
       ??_USER_USB_CALLBACK_EVENT_HANDLER 003F          ?_USER_USB_CALLBACK_EVENT_HANDLER 0039  
         _USER_USB_CALLBACK_EVENT_HANDLER 1DD4              i2USBTransferOnePacket@handle 0032  
                    ADC_Read10bit@channel 0076           __size_of_APP_LEDUpdateUSBStatus 0086  
              i2USBTransferOnePacket@data 002E                    ??_USBConfigureEndpoint 002E  
                   ?_USBCtrlTrfOutHandler 002D                    __size_of_BUTTON_Enable 0022  
                    __CFG_CPUDIV$NOCLKDIV 000000                       _USBCtrlTrfRxService 1196  
                      _USBWakeFromSuspend 20AC                   _USBStdFeatureReqHandler 08C8  
                     i2_SYSTEM_Initialize 1F62                       _USBCtrlTrfTxService 1732  
              __size_of_SYS_InterruptHigh 0076                         ADC_Enable@channel 0071  
                     ?_USBWakeFromSuspend 002D                     ??_USBCtrlTrfInHandler 002E  
                   _USBAlternateInterface 002B                    ??_ADC_SetConfiguration 0071  
               i2USBTransferOnePacket@dir 002D                 i2USBTransferOnePacket@len 0030  
                     USBEnableEndpoint@ep 0038                           _endpoint_number 0022  
                     ADC_Read10bit@result 0074                      ?_USBCtrlTrfRxService 002D  
                      __CFG_FOSC$INTOSCIO 000000                      ?i2_SYSTEM_Initialize 002D  
                ?_USBCtrlEPAllowDataStage 002D                      ?_USBCtrlTrfTxService 002D  
            _USBStatusStageTimeoutCounter 0020                      ??_USBWakeFromSuspend 0041  
              USBTransferOnePacket@handle 0076                                _USB_CD_Ptr 0807  
                             _USBInHandle 0068                  _APP_DeviceCustomHIDTasks 0F44  
