

Microchip Technology PIC18 LITE Macro Assembler V1.34 build -361300703 
                                                                                               Thu Jan 28 14:02:57 2016

Microchip Technology Omniscient Code Generator (Lite mode) build 201502162209
     1                           	processor	18F45K50
     2                           	fnconf	rparam,??,?,0
     3                           	opt	pw 120
     4                           	opt	lm
     5                           	psect	mediumconst,global,reloc=2,class=MEDIUMCONST,delta=1
     6                           	psect	cinit,global,reloc=2,class=CODE,delta=1
     7                           	psect	bssCOMRAM,global,class=COMRAM,space=1,delta=1
     8                           	psect	bssBANK0,global,class=BANK0,space=1,delta=1
     9                           	psect	cstackBANK0,global,class=BANK0,space=1,delta=1
    10                           	psect	cstackCOMRAM,global,class=COMRAM,space=1,delta=1
    11                           	psect	text0,global,reloc=2,class=CODE,delta=1
    12                           	psect	text1,global,reloc=2,class=CODE,delta=1
    13                           	psect	text2,global,reloc=2,class=CODE,delta=1
    14                           	psect	text3,global,reloc=2,class=CODE,delta=1
    15                           	psect	text4,global,reloc=2,class=CODE,delta=1
    16                           	psect	text5,global,reloc=2,class=CODE,delta=1
    17                           	psect	text6,global,reloc=2,class=CODE,delta=1
    18                           	psect	text7,global,reloc=2,class=CODE,delta=1
    19                           	psect	text8,global,reloc=2,class=CODE,delta=1
    20                           	psect	text9,global,reloc=2,class=CODE,delta=1
    21                           	psect	text10,global,reloc=2,class=CODE,delta=1
    22                           	psect	text11,global,reloc=2,class=CODE,delta=1
    23                           	psect	text12,global,reloc=2,class=CODE,delta=1
    24                           	psect	text13,global,reloc=2,class=CODE,delta=1
    25                           	psect	text14,global,reloc=2,class=CODE,delta=1
    26                           	psect	text15,global,reloc=2,class=CODE,delta=1
    27                           	psect	text16,global,reloc=2,class=CODE,delta=1
    28                           	psect	text17,global,reloc=2,class=CODE,delta=1
    29                           	psect	text18,global,reloc=2,class=CODE,delta=1
    30                           	psect	text19,global,reloc=2,class=CODE,delta=1
    31                           	psect	text20,global,reloc=2,class=CODE,delta=1
    32                           	psect	text21,global,reloc=2,class=CODE,delta=1
    33                           	psect	text22,global,reloc=2,class=CODE,delta=1
    34                           	psect	text23,global,reloc=2,class=CODE,delta=1
    35                           	psect	text24,global,reloc=2,class=CODE,delta=1
    36                           	psect	text25,global,reloc=2,class=CODE,delta=1
    37                           	psect	text26,global,reloc=2,class=CODE,delta=1
    38                           	psect	text27,global,reloc=2,class=CODE,delta=1
    39                           	psect	text28,global,reloc=2,class=CODE,delta=1
    40                           	psect	text29,global,reloc=2,class=CODE,delta=1
    41                           	psect	text30,global,reloc=2,class=CODE,delta=1
    42                           	psect	text31,global,reloc=2,class=CODE,delta=1
    43                           	psect	text32,global,reloc=2,class=CODE,delta=1
    44                           	psect	text33,global,reloc=2,class=CODE,delta=1
    45                           	psect	text34,global,reloc=2,class=CODE,delta=1
    46                           	psect	text35,global,reloc=2,class=CODE,delta=1
    47                           	psect	text36,global,reloc=2,class=CODE,delta=1
    48                           	psect	intcode,global,reloc=2,class=CODE,delta=1
    49                           	psect	text38,global,reloc=2,class=CODE,delta=1
    50                           	psect	text39,global,reloc=2,class=CODE,delta=1
    51                           	psect	text40,global,reloc=2,class=CODE,delta=1
    52                           	psect	text41,global,reloc=2,class=CODE,delta=1
    53                           	psect	text42,global,reloc=2,class=CODE,delta=1
    54                           	psect	text43,global,reloc=2,class=CODE,delta=1
    55                           	psect	text44,global,reloc=2,class=CODE,delta=1
    56                           	psect	text45,global,reloc=2,class=CODE,delta=1
    57                           	psect	text46,global,reloc=2,class=CODE,delta=1
    58                           	psect	text47,global,reloc=2,class=CODE,delta=1
    59                           	psect	text48,global,reloc=2,class=CODE,delta=1
    60                           	psect	text49,global,reloc=2,class=CODE,delta=1
    61                           	psect	text50,global,reloc=2,class=CODE,delta=1
    62                           	psect	text51,global,reloc=2,class=CODE,delta=1
    63                           	psect	text52,global,reloc=2,class=CODE,delta=1
    64                           	psect	text53,global,reloc=2,class=CODE,delta=1
    65                           	psect	text54,global,reloc=2,class=CODE,delta=1
    66                           	psect	text55,global,reloc=2,class=CODE,delta=1
    67                           	psect	text56,global,reloc=2,class=CODE,delta=1
    68                           	psect	text57,global,reloc=2,class=CODE,delta=1
    69                           	psect	text58,global,reloc=2,class=CODE,delta=1
    70                           	psect	text59,global,reloc=2,class=CODE,delta=1
    71                           	psect	text60,global,reloc=2,class=CODE,delta=1
    72                           	psect	text61,global,reloc=2,class=CODE,delta=1
    73                           	psect	text62,global,reloc=2,class=CODE,delta=1
    74                           	psect	text63,global,reloc=2,class=CODE,delta=1
    75                           	psect	text64,global,reloc=2,class=CODE,delta=1
    76                           	psect	text65,global,reloc=2,class=CODE,delta=1
    77                           	psect	text66,global,reloc=2,class=CODE,delta=1
    78                           	psect	text67,global,reloc=2,class=CODE,delta=1
    79                           	psect	text68,global,reloc=2,class=CODE,delta=1
    80                           	psect	text69,global,reloc=2,class=CODE,delta=1
    81                           	psect	text70,global,reloc=2,class=CODE,delta=1
    82                           	psect	text71,global,reloc=2,class=CODE,delta=1
    83                           	psect	text72,global,reloc=2,class=CODE,delta=1
    84                           	psect	text73,global,reloc=2,class=CODE,delta=1
    85                           	psect	intsave_regs,global,class=BIGRAM,space=1,delta=1
    86                           	psect	rparam,global,class=COMRAM,space=1,delta=1
    87                           	dabs	1,0x500,64,_ReceivedDataBuffer
    88                           	dabs	1,0x400,32,_BDT
    89                           	dabs	1,0x540,64,_ToSendDataBuffer
    90                           	dabs	1,0x428,8,_CtrlTrfData
    91                           	dabs	1,0x420,8,_SetupPkt
    92  0000                     
    93                           	psect	mediumconst
    94  007EFE                     __pmediumconst:
    95                           	opt stack 0
    96  007EFE  00                 	db	0
    97  007EFF                     _USB_SD_Ptr:
    98                           	opt stack 0
    99  007EFF  FA                 	db	low _sd000
   100  007F00  7F                 	db	high _sd000
   101  007F01  07                 	db	low _sd001
   102  007F02  7F                 	db	high _sd001
   103  007F03  3B                 	db	low _sd002
   104  007F04  7F                 	db	high _sd002
   105  007F05                     __end_of_USB_SD_Ptr:
   106                           	opt stack 0
   107  007F05                     _USB_CD_Ptr:
   108                           	opt stack 0
   109  007F05  69                 	db	low _configDescriptor1
   110  007F06  7F                 	db	high _configDescriptor1
   111  007F07                     __end_of_USB_CD_Ptr:
   112                           	opt stack 0
   113  007F07                     _sd001:
   114                           	opt stack 0
   115  007F07  34                 	db	52
   116  007F08  03                 	db	3
   117  007F09  004D               	dw	77
   118  007F0B  0069               	dw	105
   119  007F0D  0063               	dw	99
   120  007F0F  0072               	dw	114
   121  007F11  006F               	dw	111
   122  007F13  0063               	dw	99
   123  007F15  0068               	dw	104
   124  007F17  0069               	dw	105
   125  007F19  0070               	dw	112
   126  007F1B  0020               	dw	32
   127  007F1D  0054               	dw	84
   128  007F1F  0065               	dw	101
   129  007F21  0063               	dw	99
   130  007F23  0068               	dw	104
   131  007F25  006E               	dw	110
   132  007F27  006F               	dw	111
   133  007F29  006C               	dw	108
   134  007F2B  006F               	dw	111
   135  007F2D  0067               	dw	103
   136  007F2F  0079               	dw	121
   137  007F31  0020               	dw	32
   138  007F33  0049               	dw	73
   139  007F35  006E               	dw	110
   140  007F37  0063               	dw	99
   141  007F39  002E               	dw	46
   142  007F3B                     __end_of_sd001:
   143                           	opt stack 0
   144  007F3B                     _sd002:
   145                           	opt stack 0
   146  007F3B  2E                 	db	46
   147  007F3C  03                 	db	3
   148  007F3D  0053               	dw	83
   149  007F3F  0069               	dw	105
   150  007F41  006D               	dw	109
   151  007F43  0070               	dw	112
   152  007F45  006C               	dw	108
   153  007F47  0065               	dw	101
   154  007F49  0020               	dw	32
   155  007F4B  0048               	dw	72
   156  007F4D  0049               	dw	73
   157  007F4F  0044               	dw	68
   158  007F51  0020               	dw	32
   159  007F53  0044               	dw	68
   160  007F55  0065               	dw	101
   161  007F57  0076               	dw	118
   162  007F59  0069               	dw	105
   163  007F5B  0063               	dw	99
   164  007F5D  0065               	dw	101
   165  007F5F  0020               	dw	32
   166  007F61  0044               	dw	68
   167  007F63  0065               	dw	101
   168  007F65  006D               	dw	109
   169  007F67  006F               	dw	111
   170  007F69                     __end_of_sd002:
   171                           	opt stack 0
   172  007F69                     _configDescriptor1:
   173                           	opt stack 0
   174  007F69  09                 	db	9
   175  007F6A  02                 	db	2
   176  007F6B  29                 	db	41
   177  007F6C  00                 	db	0
   178  007F6D  01                 	db	1
   179  007F6E  01                 	db	1
   180  007F6F  00                 	db	0
   181  007F70  C0                 	db	192
   182  007F71  32                 	db	50
   183  007F72  09                 	db	9
   184  007F73  04                 	db	4
   185  007F74  00                 	db	0
   186  007F75  00                 	db	0
   187  007F76  02                 	db	2
   188  007F77  03                 	db	3
   189  007F78  00                 	db	0
   190  007F79  00                 	db	0
   191  007F7A  00                 	db	0
   192  007F7B  09                 	db	9
   193  007F7C  21                 	db	33
   194  007F7D  11                 	db	17
   195  007F7E  01                 	db	1
   196  007F7F  00                 	db	0
   197  007F80  01                 	db	1
   198  007F81  22                 	db	34
   199  007F82  1D                 	db	29
   200  007F83  00                 	db	0
   201  007F84  07                 	db	7
   202  007F85  05                 	db	5
   203  007F86  81                 	db	129
   204  007F87  03                 	db	3
   205  007F88  40                 	db	64
   206  007F89  00                 	db	0
   207  007F8A  01                 	db	1
   208  007F8B  07                 	db	7
   209  007F8C  05                 	db	5
   210  007F8D  01                 	db	1
   211  007F8E  03                 	db	3
   212  007F8F  40                 	db	64
   213  007F90  00                 	db	0
   214  007F91  01                 	db	1
   215  007F92                     __end_of_configDescriptor1:
   216                           	opt stack 0
   217  007F92                     exp@coeff:
   218                           	opt stack 0
   219  007F92  00                 	db	0
   220  007F93  80                 	db	128
   221  007F94  3F                 	db	63
   222  007F95  72                 	db	114
   223  007F96  31                 	db	49
   224  007F97  3F                 	db	63
   225  007F98  FE                 	db	254
   226  007F99  75                 	db	117
   227  007F9A  3E                 	db	62
   228  007F9B  58                 	db	88
   229  007F9C  63                 	db	99
   230  007F9D  3D                 	db	61
   231  007F9E  95                 	db	149
   232  007F9F  1D                 	db	29
   233  007FA0  3C                 	db	60
   234  007FA1  C5                 	db	197
   235  007FA2  AE                 	db	174
   236  007FA3  3A                 	db	58
   237  007FA4  79                 	db	121
   238  007FA5  21                 	db	33
   239  007FA6  39                 	db	57
   240  007FA7  94                 	db	148
   241  007FA8  80                 	db	128
   242  007FA9  37                 	db	55
   243  007FAA  93                 	db	147
   244  007FAB  A7                 	db	167
   245  007FAC  35                 	db	53
   246  007FAD  56                 	db	86
   247  007FAE  15                 	db	21
   248  007FAF  34                 	db	52
   249  007FB0                     __end_ofexp@coeff:
   250                           	opt stack 0
   251  007FB0                     _hid_rpt01:
   252                           	opt stack 0
   253  007FB0  06                 	db	6
   254  007FB1  00                 	db	0
   255  007FB2  FF                 	db	255
   256  007FB3  09                 	db	9
   257  007FB4  01                 	db	1
   258  007FB5  A1                 	db	161
   259  007FB6  01                 	db	1
   260  007FB7  19                 	db	25
   261  007FB8  01                 	db	1
   262  007FB9  29                 	db	41
   263  007FBA  40                 	db	64
   264  007FBB  15                 	db	21
   265  007FBC  00                 	db	0
   266  007FBD  26                 	db	38
   267  007FBE  FF                 	db	255
   268  007FBF  00                 	db	0
   269  007FC0  75                 	db	117
   270  007FC1  08                 	db	8
   271  007FC2  95                 	db	149
   272  007FC3  40                 	db	64
   273  007FC4  81                 	db	129
   274  007FC5  00                 	db	0
   275  007FC6  19                 	db	25
   276  007FC7  01                 	db	1
   277  007FC8  29                 	db	41
   278  007FC9  40                 	db	64
   279  007FCA  91                 	db	145
   280  007FCB  00                 	db	0
   281  007FCC  C0                 	db	192
   282  007FCD                     __end_of_hid_rpt01:
   283                           	opt stack 0
   284  007FCD                     log@coeff:
   285                           	opt stack 0
   286  007FCD  00                 	db	0
   287  007FCE  00                 	db	0
   288  007FCF  00                 	db	0
   289  007FD0  00                 	db	0
   290  007FD1  80                 	db	128
   291  007FD2  3F                 	db	63
   292  007FD3  F0                 	db	240
   293  007FD4  FF                 	db	255
   294  007FD5  BE                 	db	190
   295  007FD6  E2                 	db	226
   296  007FD7  A9                 	db	169
   297  007FD8  3E                 	db	62
   298  007FD9  83                 	db	131
   299  007FDA  76                 	db	118
   300  007FDB  BE                 	db	190
   301  007FDC  AE                 	db	174
   302  007FDD  2B                 	db	43
   303  007FDE  3E                 	db	62
   304  007FDF  3C                 	db	60
   305  007FE0  C3                 	db	195
   306  007FE1  BD                 	db	189
   307  007FE2  D2                 	db	210
   308  007FE3  13                 	db	19
   309  007FE4  3D                 	db	61
   310  007FE5  78                 	db	120
   311  007FE6  D3                 	db	211
   312  007FE7  BB                 	db	187
   313  007FE8                     __end_oflog@coeff:
   314                           	opt stack 0
   315  007FE8                     _device_dsc:
   316                           	opt stack 0
   317  007FE8  12                 	db	18
   318  007FE9  01                 	db	1
   319  007FEA  0200               	dw	512
   320  007FEC  00                 	db	0
   321  007FED  00                 	db	0
   322  007FEE  00                 	db	0
   323  007FEF  08                 	db	8
   324  007FF0  04D8               	dw	1240
   325  007FF2  003F               	dw	63
   326  007FF4  0100               	dw	256
   327  007FF6  01                 	db	1
   328  007FF7  02                 	db	2
   329  007FF8  00                 	db	0
   330  007FF9  01                 	db	1
   331  007FFA                     __end_of_device_dsc:
   332                           	opt stack 0
   333  007FFA                     _sd000:
   334                           	opt stack 0
   335  007FFA  04                 	db	4
   336  007FFB  03                 	db	3
   337  007FFC  0409               	dw	1033
   338  007FFE                     __end_of_sd000:
   339                           	opt stack 0
   340  0000                     _ANSELAbits	set	3931
   341  0000                     _ANSELCbits	set	3933
   342  0000                     _ANSELDbits	set	3934
   343  0000                     _ACTCON	set	4021
   344  0000                     _ADCON0	set	4034
   345  0000                     _ADCON0bits	set	4034
   346  0000                     _ADCON1	set	4033
   347  0000                     _ADCON2	set	4032
   348  0000                     _ADRESH	set	4036
   349  0000                     _ADRESL	set	4035
   350  0000                     _INTCONbits	set	4082
   351  0000                     _IPR3bits	set	4005
   352  0000                     _LATCbits	set	3979
   353  0000                     _OSCCON	set	4051
   354  0000                     _OSCCON2	set	4050
   355  0000                     _OSCCON2bits	set	4050
   356  0000                     _OSCTUNE	set	3995
   357  0000                     _PIE3bits	set	4003
   358  0000                     _PIR3bits	set	4004
   359  0000                     _PORTDbits	set	3971
   360  0000                     _RCONbits	set	4048
   361  0000                     _TRISAbits	set	3986
   362  0000                     _TRISCbits	set	3988
   363  0000                     _TRISDbits	set	3989
   364  0000                     _UADDR	set	3939
   365  0000                     _UCFG	set	3938
   366  0000                     _UCON	set	3936
   367  0000                     _UCONbits	set	3936
   368  0000                     _UEIE	set	3942
   369  0000                     _UEIR	set	3943
   370  0000                     _UEP0bits	set	3946
   371  0000                     _UIE	set	3940
   372  0000                     _UIEbits	set	3940
   373  0000                     _UIR	set	3941
   374  0000                     _UIRbits	set	3941
   375  0000                     _USTAT	set	3937
   376  0000                     _UEP0	set	3946
   377  0000                     _UEP1	set	3947
   378                           
   379                           ; #config settings
   380  007FFE  00                 	db	0	; dummy byte at the end
   381  0000                     
   382                           	psect	cinit
   383  0031A0                     __pcinit:
   384                           	opt stack 0
   385  0031A0                     start_initialization:
   386                           	opt stack 0
   387  0031A0                     __initialization:
   388                           	opt stack 0
   389                           
   390                           ; Clear objects allocated to BANK0 (21 bytes)
   391  0031A0  EE00  F0E2         	lfsr	0,__pbssBANK0
   392  0031A4  0E15               	movlw	21
   393  0031A6                     clear_0:
   394  0031A6  6AEE               	clrf	postinc0,c
   395  0031A8  06E8               	decf	wreg,f,c
   396  0031AA  E1FD               	bnz	clear_0
   397                           
   398                           ; Clear objects allocated to COMRAM (42 bytes)
   399  0031AC  EE00  F001         	lfsr	0,__pbssCOMRAM
   400  0031B0  0E2A               	movlw	42
   401  0031B2                     clear_1:
   402  0031B2  6AEE               	clrf	postinc0,c
   403  0031B4  06E8               	decf	wreg,f,c
   404  0031B6  E1FD               	bnz	clear_1
   405  0031B8                     end_of_initialization:
   406                           	opt stack 0
   407  0031B8                     __end_of__initialization:
   408                           	opt stack 0
   409  0031B8  0E00               	movlw	low (__Lmediumconst shr (0+16))
   410  0031BA  6EF8               	movwf	tblptru,c
   411  0031BC  0100               	movlb	0
   412  0031BE  EF34  F018         	goto	_main	;jump to C main() function
   413                           tblptru	equ	0xFF8
   414                           postinc0	equ	0xFEE
   415                           wreg	equ	0xFE8
   416                           
   417                           	psect	bssCOMRAM
   418  000001                     __pbssCOMRAM:
   419                           	opt stack 0
   420  000001                     _outPipes:
   421                           	opt stack 0
   422  000001                     	ds	8
   423  000009                     _pBDTEntryIn:
   424                           	opt stack 0
   425  000009                     	ds	4
   426  00000D                     APP_LEDUpdateUSBStatus@ledCount:
   427                           	opt stack 0
   428  00000D                     	ds	2
   429  00000F                     _ep_data_in:
   430                           	opt stack 0
   431  00000F                     	ds	2
   432  000011                     _ep_data_out:
   433                           	opt stack 0
   434  000011                     	ds	2
   435  000013                     _pBDTEntryEP0OutCurrent:
   436                           	opt stack 0
   437  000013                     	ds	2
   438  000015                     _pBDTEntryEP0OutNext:
   439                           	opt stack 0
   440  000015                     	ds	2
   441  000017                     _BothEP0OutUOWNsSet:
   442                           	opt stack 0
   443  000017                     	ds	1
   444  000018                     _RemoteWakeup:
   445                           	opt stack 0
   446  000018                     	ds	1
   447  000019                     _USBBusIsSuspended:
   448                           	opt stack 0
   449  000019                     	ds	1
   450  00001A                     _USBDeferStatusStagePacket:
   451                           	opt stack 0
   452  00001A                     	ds	1
   453  00001B                     _USBDeviceState:
   454                           	opt stack 0
   455  00001B                     	ds	1
   456  00001C                     _USBStatusStageEnabledFlag1:
   457                           	opt stack 0
   458  00001C                     	ds	1
   459  00001D                     _USBStatusStageEnabledFlag2:
   460                           	opt stack 0
   461  00001D                     	ds	1
   462  00001E                     _USBStatusStageTimeoutCounter:
   463                           	opt stack 0
   464  00001E                     	ds	1
   465  00001F                     _controlTransferState:
   466                           	opt stack 0
   467  00001F                     	ds	1
   468  000020                     _endpoint_number:
   469                           	opt stack 0
   470  000020                     	ds	1
   471  000021                     _shortPacketStatus:
   472                           	opt stack 0
   473  000021                     	ds	1
   474  000022                     _inPipes:
   475                           	opt stack 0
   476  000022                     	ds	6
   477  000028                     _USBActiveConfiguration:
   478                           	opt stack 0
   479  000028                     	ds	1
   480  000029                     _USBAlternateInterface:
   481                           	opt stack 0
   482  000029                     	ds	1
   483  00002A                     _USTATcopy:
   484                           	opt stack 0
   485  00002A                     	ds	1
   486                           tblptru	equ	0xFF8
   487                           postinc0	equ	0xFEE
   488                           wreg	equ	0xFE8
   489                           
   490                           	psect	bssBANK0
   491  0000E2                     __pbssBANK0:
   492                           	opt stack 0
   493  0000E2                     _USB1msTickCount:
   494                           	opt stack 0
   495  0000E2                     	ds	4
   496  0000E6                     _pBDTEntryOut:
   497                           	opt stack 0
   498  0000E6                     	ds	4
   499  0000EA                     _USBInHandle:
   500                           	opt stack 0
   501  0000EA                     	ds	2
   502  0000EC                     _USBOutHandle:
   503                           	opt stack 0
   504  0000EC                     	ds	2
   505  0000EE                     _errno:
   506                           	opt stack 0
   507  0000EE                     	ds	2
   508  0000F0                     _pDst:
   509                           	opt stack 0
   510  0000F0                     	ds	2
   511  0000F2                     _USBDeferINDataStagePackets:
   512                           	opt stack 0
   513  0000F2                     	ds	1
   514  0000F3                     _USBDeferOUTDataStagePackets:
   515                           	opt stack 0
   516  0000F3                     	ds	1
   517  0000F4                     _USBTicksSinceSuspendEnd:
   518                           	opt stack 0
   519  0000F4                     	ds	1
   520  0000F5                     _active_protocol:
   521                           	opt stack 0
   522  0000F5                     	ds	1
   523  0000F6                     _idle_rate:
   524                           	opt stack 0
   525  0000F6                     	ds	1
   526                           tblptru	equ	0xFF8
   527                           postinc0	equ	0xFEE
   528                           wreg	equ	0xFE8
   529                           
   530                           	psect	cstackBANK0
   531  000060                     __pcstackBANK0:
   532                           	opt stack 0
   533  000060                     ?_USBTransferOnePacket:
   534                           	opt stack 0
   535  000060                     ?___wmul:
   536                           	opt stack 0
   537  000060                     ?___ftpack:
   538                           	opt stack 0
   539  000060                     ?_frexp:
   540                           	opt stack 0
   541  000060                     ?___ftneg:
   542                           	opt stack 0
   543  000060                     BUTTON_Enable@button:
   544                           	opt stack 0
   545  000060                     ADC_Enable@channel:
   546                           	opt stack 0
   547  000060                     ADC_SetConfiguration@configuration:
   548                           	opt stack 0
   549  000060                     LED_On@led:
   550                           	opt stack 0
   551  000060                     LED_Off@led:
   552                           	opt stack 0
   553  000060                     LED_Toggle@led:
   554                           	opt stack 0
   555  000060                     LED_Enable@led:
   556                           	opt stack 0
   557  000060                     USBTransferOnePacket@dir:
   558                           	opt stack 0
   559  000060                     ___wmul@multiplier:
   560                           	opt stack 0
   561  000060                     memset@p1:
   562                           	opt stack 0
   563  000060                     ___ftpack@arg:
   564                           	opt stack 0
   565  000060                     ___ftge@ff1:
   566                           	opt stack 0
   567  000060                     ___ftneg@f1:
   568                           	opt stack 0
   569  000060                     frexp@value:
   570                           	opt stack 0
   571                           
   572                           ; 3 bytes @ 0x0
   573  000060                     	ds	1
   574  000061                     ?_ADC_Read10bit:
   575                           	opt stack 0
   576  000061                     SYSTEM_Initialize@state:
   577                           	opt stack 0
   578  000061                     USBTransferOnePacket@data:
   579                           	opt stack 0
   580                           
   581                           ; 2 bytes @ 0x1
   582  000061                     	ds	1
   583  000062                     ___wmul@multiplicand:
   584                           	opt stack 0
   585  000062                     memset@c:
   586                           	opt stack 0
   587                           
   588                           ; 2 bytes @ 0x2
   589  000062                     	ds	1
   590  000063                     ??_ADC_Read10bit:
   591  000063                     USBTransferOnePacket@len:
   592                           	opt stack 0
   593  000063                     ___ftpack@exp:
   594                           	opt stack 0
   595  000063                     frexp@eptr:
   596                           	opt stack 0
   597  000063                     ___ftge@ff2:
   598                           	opt stack 0
   599                           
   600                           ; 3 bytes @ 0x3
   601  000063                     	ds	1
   602  000064                     USBTransferOnePacket@ep:
   603                           	opt stack 0
   604  000064                     ___ftpack@sign:
   605                           	opt stack 0
   606  000064                     ADC_Read10bit@result:
   607                           	opt stack 0
   608  000064                     ___wmul@product:
   609                           	opt stack 0
   610  000064                     memset@n:
   611                           	opt stack 0
   612                           
   613                           ; 2 bytes @ 0x4
   614  000064                     	ds	1
   615  000065                     ??___ftpack:
   616  000065                     ??_frexp:
   617  000065                     USBTransferOnePacket@handle:
   618                           	opt stack 0
   619                           
   620                           ; 2 bytes @ 0x5
   621  000065                     	ds	1
   622  000066                     ??___ftge:
   623  000066                     ADC_Read10bit@channel:
   624                           	opt stack 0
   625  000066                     memset@p:
   626                           	opt stack 0
   627                           
   628                           ; 2 bytes @ 0x6
   629  000066                     	ds	1
   630  000067                     ?___lwdiv:
   631                           	opt stack 0
   632  000067                     ___lwdiv@dividend:
   633                           	opt stack 0
   634                           
   635                           ; 2 bytes @ 0x7
   636  000067                     	ds	1
   637  000068                     ?___awtoft:
   638                           	opt stack 0
   639  000068                     ?___lbtoft:
   640                           	opt stack 0
   641  000068                     ?___lltoft:
   642                           	opt stack 0
   643  000068                     USBDeviceInit@i:
   644                           	opt stack 0
   645  000068                     ___awtoft@c:
   646                           	opt stack 0
   647  000068                     ___lltoft@c:
   648                           	opt stack 0
   649                           
   650                           ; 4 bytes @ 0x8
   651  000068                     	ds	1
   652  000069                     ___lwdiv@divisor:
   653                           	opt stack 0
   654                           
   655                           ; 2 bytes @ 0x9
   656  000069                     	ds	2
   657  00006B                     ___awtoft@sign:
   658                           	opt stack 0
   659  00006B                     ___lbtoft@c:
   660                           	opt stack 0
   661  00006B                     ___lwdiv@counter:
   662                           	opt stack 0
   663                           
   664                           ; 1 bytes @ 0xB
   665  00006B                     	ds	1
   666  00006C                     ??___lltoft:
   667  00006C                     ___lwdiv@quotient:
   668                           	opt stack 0
   669                           
   670                           ; 2 bytes @ 0xC
   671  00006C                     	ds	2
   672  00006E                     ADC_ReadPercentage@channel:
   673                           	opt stack 0
   674                           
   675                           ; 1 bytes @ 0xE
   676  00006E                     	ds	1
   677  00006F                     ADC_ReadPercentage@percent:
   678                           	opt stack 0
   679                           
   680                           ; 1 bytes @ 0xF
   681  00006F                     	ds	1
   682  000070                     ?___ftmul:
   683                           	opt stack 0
   684  000070                     ___lltoft@exp:
   685                           	opt stack 0
   686  000070                     ___ftmul@f1:
   687                           	opt stack 0
   688                           
   689                           ; 3 bytes @ 0x10
   690  000070                     	ds	3
   691  000073                     ___ftmul@f2:
   692                           	opt stack 0
   693                           
   694                           ; 3 bytes @ 0x13
   695  000073                     	ds	3
   696  000076                     ??___ftmul:
   697                           
   698                           ; 0 bytes @ 0x16
   699  000076                     	ds	3
   700  000079                     ___ftmul@exp:
   701                           	opt stack 0
   702                           
   703                           ; 1 bytes @ 0x19
   704  000079                     	ds	1
   705  00007A                     ___ftmul@f3_as_product:
   706                           	opt stack 0
   707                           
   708                           ; 3 bytes @ 0x1A
   709  00007A                     	ds	3
   710  00007D                     ___ftmul@cntr:
   711                           	opt stack 0
   712                           
   713                           ; 1 bytes @ 0x1D
   714  00007D                     	ds	1
   715  00007E                     ___ftmul@sign:
   716                           	opt stack 0
   717                           
   718                           ; 1 bytes @ 0x1E
   719  00007E                     	ds	1
   720  00007F                     ?___ftdiv:
   721                           	opt stack 0
   722  00007F                     ___ftdiv@f1:
   723                           	opt stack 0
   724                           
   725                           ; 3 bytes @ 0x1F
   726  00007F                     	ds	3
   727  000082                     ___ftdiv@f2:
   728                           	opt stack 0
   729                           
   730                           ; 3 bytes @ 0x22
   731  000082                     	ds	3
   732  000085                     ??___ftdiv:
   733                           
   734                           ; 0 bytes @ 0x25
   735  000085                     	ds	3
   736  000088                     ___ftdiv@cntr:
   737                           	opt stack 0
   738                           
   739                           ; 1 bytes @ 0x28
   740  000088                     	ds	1
   741  000089                     ___ftdiv@f3:
   742                           	opt stack 0
   743                           
   744                           ; 3 bytes @ 0x29
   745  000089                     	ds	3
   746  00008C                     ___ftdiv@exp:
   747                           	opt stack 0
   748                           
   749                           ; 1 bytes @ 0x2C
   750  00008C                     	ds	1
   751  00008D                     ___ftdiv@sign:
   752                           	opt stack 0
   753                           
   754                           ; 1 bytes @ 0x2D
   755  00008D                     	ds	1
   756  00008E                     ?___ftadd:
   757                           	opt stack 0
   758  00008E                     ___ftadd@f1:
   759                           	opt stack 0
   760                           
   761                           ; 3 bytes @ 0x2E
   762  00008E                     	ds	3
   763  000091                     ___ftadd@f2:
   764                           	opt stack 0
   765                           
   766                           ; 3 bytes @ 0x31
   767  000091                     	ds	3
   768  000094                     ??___ftadd:
   769                           
   770                           ; 0 bytes @ 0x34
   771  000094                     	ds	3
   772  000097                     ___ftadd@sign:
   773                           	opt stack 0
   774                           
   775                           ; 1 bytes @ 0x37
   776  000097                     	ds	1
   777  000098                     ___ftadd@exp2:
   778                           	opt stack 0
   779                           
   780                           ; 1 bytes @ 0x38
   781  000098                     	ds	1
   782  000099                     ___ftadd@exp1:
   783                           	opt stack 0
   784                           
   785                           ; 1 bytes @ 0x39
   786  000099                     	ds	1
   787  00009A                     ?___ftsub:
   788                           	opt stack 0
   789  00009A                     ?_eval_poly:
   790                           	opt stack 0
   791  00009A                     ?___fttol:
   792                           	opt stack 0
   793  00009A                     ___ftsub@f1:
   794                           	opt stack 0
   795  00009A                     ___fttol@f1:
   796                           	opt stack 0
   797  00009A                     eval_poly@x:
   798                           	opt stack 0
   799                           
   800                           ; 3 bytes @ 0x3A
   801  00009A                     	ds	3
   802  00009D                     eval_poly@d:
   803                           	opt stack 0
   804  00009D                     ___ftsub@f2:
   805                           	opt stack 0
   806                           
   807                           ; 3 bytes @ 0x3D
   808  00009D                     	ds	1
   809  00009E                     ??___fttol:
   810                           
   811                           ; 0 bytes @ 0x3E
   812  00009E                     	ds	1
   813  00009F                     eval_poly@n:
   814                           	opt stack 0
   815                           
   816                           ; 2 bytes @ 0x3F
   817  00009F                     	ds	1
   818  0000A0                     
   819                           ; 0 bytes @ 0x40
   820  0000A0                     	ds	1
   821  0000A1                     ??_eval_poly:
   822                           
   823                           ; 0 bytes @ 0x41
   824  0000A1                     	ds	2
   825  0000A3                     ___fttol@sign1:
   826                           	opt stack 0
   827  0000A3                     eval_poly@res:
   828                           	opt stack 0
   829                           
   830                           ; 3 bytes @ 0x43
   831  0000A3                     	ds	1
   832  0000A4                     ___fttol@lval:
   833                           	opt stack 0
   834                           
   835                           ; 4 bytes @ 0x44
   836  0000A4                     	ds	2
   837  0000A6                     ?_log:
   838                           	opt stack 0
   839  0000A6                     ?_ldexp:
   840                           	opt stack 0
   841  0000A6                     ldexp@value:
   842                           	opt stack 0
   843  0000A6                     log@x:
   844                           	opt stack 0
   845                           
   846                           ; 3 bytes @ 0x46
   847  0000A6                     	ds	2
   848  0000A8                     ___fttol@exp1:
   849                           	opt stack 0
   850                           
   851                           ; 1 bytes @ 0x48
   852  0000A8                     	ds	1
   853  0000A9                     ?___altoft:
   854                           	opt stack 0
   855  0000A9                     ldexp@newexp:
   856                           	opt stack 0
   857  0000A9                     log@exponent:
   858                           	opt stack 0
   859  0000A9                     ___altoft@c:
   860                           	opt stack 0
   861                           
   862                           ; 4 bytes @ 0x49
   863  0000A9                     	ds	2
   864  0000AB                     ??_ldexp:
   865                           
   866                           ; 0 bytes @ 0x4B
   867  0000AB                     	ds	2
   868  0000AD                     ??___altoft:
   869                           
   870                           ; 0 bytes @ 0x4D
   871  0000AD                     	ds	4
   872  0000B1                     ___altoft@exp:
   873                           	opt stack 0
   874                           
   875                           ; 1 bytes @ 0x51
   876  0000B1                     	ds	1
   877  0000B2                     ___altoft@sign:
   878                           	opt stack 0
   879                           
   880                           ; 1 bytes @ 0x52
   881  0000B2                     	ds	1
   882  0000B3                     ?_floor:
   883                           	opt stack 0
   884  0000B3                     floor@x:
   885                           	opt stack 0
   886                           
   887                           ; 3 bytes @ 0x53
   888  0000B3                     	ds	3
   889  0000B6                     floor@i:
   890                           	opt stack 0
   891                           
   892                           ; 3 bytes @ 0x56
   893  0000B6                     	ds	3
   894  0000B9                     floor@expon:
   895                           	opt stack 0
   896                           
   897                           ; 2 bytes @ 0x59
   898  0000B9                     	ds	2
   899  0000BB                     ?_exp:
   900                           	opt stack 0
   901  0000BB                     exp@x:
   902                           	opt stack 0
   903                           
   904                           ; 3 bytes @ 0x5B
   905  0000BB                     	ds	3
   906  0000BE                     _exp$3087:
   907                           	opt stack 0
   908                           
   909                           ; 3 bytes @ 0x5E
   910  0000BE                     	ds	3
   911  0000C1                     exp@exponent:
   912                           	opt stack 0
   913                           
   914                           ; 2 bytes @ 0x61
   915  0000C1                     	ds	2
   916  0000C3                     exp@sign:
   917                           	opt stack 0
   918                           
   919                           ; 1 bytes @ 0x63
   920  0000C3                     	ds	1
   921  0000C4                     ?_pow:
   922                           	opt stack 0
   923  0000C4                     pow@x:
   924                           	opt stack 0
   925                           
   926                           ; 3 bytes @ 0x64
   927  0000C4                     	ds	3
   928  0000C7                     pow@y:
   929                           	opt stack 0
   930                           
   931                           ; 3 bytes @ 0x67
   932  0000C7                     	ds	3
   933  0000CA                     _pow$3085:
   934                           	opt stack 0
   935                           
   936                           ; 3 bytes @ 0x6A
   937  0000CA                     	ds	3
   938  0000CD                     _pow$3086:
   939                           	opt stack 0
   940                           
   941                           ; 3 bytes @ 0x6D
   942  0000CD                     	ds	3
   943  0000D0                     pow@sign:
   944                           	opt stack 0
   945                           
   946                           ; 1 bytes @ 0x70
   947  0000D0                     	ds	1
   948  0000D1                     pow@yi:
   949                           	opt stack 0
   950                           
   951                           ; 4 bytes @ 0x71
   952  0000D1                     	ds	4
   953  0000D5                     ??_APP_DeviceCustomHIDTasks:
   954                           
   955                           ; 0 bytes @ 0x75
   956  0000D5                     	ds	2
   957  0000D7                     _APP_DeviceCustomHIDTasks$3084:
   958                           	opt stack 0
   959                           
   960                           ; 3 bytes @ 0x77
   961  0000D7                     	ds	3
   962  0000DA                     APP_DeviceCustomHIDTasks@pot_861:
   963                           	opt stack 0
   964                           
   965                           ; 2 bytes @ 0x7A
   966  0000DA                     	ds	2
   967  0000DC                     APP_DeviceCustomHIDTasks@pot_862:
   968                           	opt stack 0
   969                           
   970                           ; 2 bytes @ 0x7C
   971  0000DC                     	ds	2
   972  0000DE                     APP_DeviceCustomHIDTasks@pot:
   973                           	opt stack 0
   974                           
   975                           ; 1 bytes @ 0x7E
   976  0000DE                     	ds	1
   977  0000DF                     APP_DeviceCustomHIDTasks@i:
   978                           	opt stack 0
   979                           
   980                           ; 1 bytes @ 0x7F
   981  0000DF                     	ds	1
   982  0000E0                     APP_DeviceCustomHIDTasks@j:
   983                           	opt stack 0
   984                           
   985                           ; 1 bytes @ 0x80
   986  0000E0                     	ds	1
   987  0000E1                     APP_DeviceCustomHIDTasks@i_859:
   988                           	opt stack 0
   989                           
   990                           ; 1 bytes @ 0x81
   991  0000E1                     	ds	1
   992  0000E2                     tblptru	equ	0xFF8
   993                           postinc0	equ	0xFEE
   994                           wreg	equ	0xFE8
   995                           
   996                           ; 0 bytes @ 0x82
   997                           
   998                           	psect	cstackCOMRAM
   999  00002B                     __pcstackCOMRAM:
  1000                           	opt stack 0
  1001  00002B                     ??_USBStdGetDscHandler:
  1002  00002B                     ??_USBStdGetStatusHandler:
  1003  00002B                     ?i2_USBTransferOnePacket:
  1004                           	opt stack 0
  1005  00002B                     USBConfigureEndpoint@direction:
  1006                           	opt stack 0
  1007  00002B                     USBCtrlTrfTxService@byteToSend:
  1008                           	opt stack 0
  1009  00002B                     USBCtrlTrfRxService@i:
  1010                           	opt stack 0
  1011  00002B                     i2BUTTON_Enable@button:
  1012                           	opt stack 0
  1013  00002B                     i2ADC_Enable@channel:
  1014                           	opt stack 0
  1015  00002B                     i2ADC_SetConfiguration@configuration:
  1016                           	opt stack 0
  1017  00002B                     i2LED_On@led:
  1018                           	opt stack 0
  1019  00002B                     i2LED_Off@led:
  1020                           	opt stack 0
  1021  00002B                     i2LED_Enable@led:
  1022                           	opt stack 0
  1023  00002B                     i2USBTransferOnePacket@dir:
  1024                           	opt stack 0
  1025  00002B                     memcpy@d1:
  1026                           	opt stack 0
  1027  00002B                     i2memset@p1:
  1028                           	opt stack 0
  1029                           
  1030                           ; 2 bytes @ 0x0
  1031  00002B                     	ds	1
  1032  00002C                     ??_USBConfigureEndpoint:
  1033  00002C                     USBCtrlTrfRxService@byteToRead:
  1034                           	opt stack 0
  1035  00002C                     USBCtrlTrfInHandler@lastDTS:
  1036                           	opt stack 0
  1037  00002C                     i2SYSTEM_Initialize@state:
  1038                           	opt stack 0
  1039  00002C                     USBStdGetStatusHandler@p:
  1040                           	opt stack 0
  1041  00002C                     i2USBTransferOnePacket@data:
  1042                           	opt stack 0
  1043                           
  1044                           ; 2 bytes @ 0x1
  1045  00002C                     	ds	1
  1046  00002D                     memcpy@s1:
  1047                           	opt stack 0
  1048  00002D                     i2memset@c:
  1049                           	opt stack 0
  1050                           
  1051                           ; 2 bytes @ 0x2
  1052  00002D                     	ds	1
  1053  00002E                     i2USBTransferOnePacket@len:
  1054                           	opt stack 0
  1055                           
  1056                           ; 1 bytes @ 0x3
  1057  00002E                     	ds	1
  1058  00002F                     i2USBTransferOnePacket@ep:
  1059                           	opt stack 0
  1060  00002F                     memcpy@n:
  1061                           	opt stack 0
  1062  00002F                     i2memset@n:
  1063                           	opt stack 0
  1064                           
  1065                           ; 2 bytes @ 0x4
  1066  00002F                     	ds	1
  1067  000030                     USBConfigureEndpoint@EPNum:
  1068                           	opt stack 0
  1069  000030                     i2USBTransferOnePacket@handle:
  1070                           	opt stack 0
  1071                           
  1072                           ; 2 bytes @ 0x5
  1073  000030                     	ds	1
  1074  000031                     USBConfigureEndpoint@handle:
  1075                           	opt stack 0
  1076  000031                     memcpy@d:
  1077                           	opt stack 0
  1078  000031                     i2memset@p:
  1079                           	opt stack 0
  1080                           
  1081                           ; 2 bytes @ 0x6
  1082  000031                     	ds	2
  1083  000033                     USBEnableEndpoint@options:
  1084                           	opt stack 0
  1085  000033                     i2USBDeviceInit@i:
  1086                           	opt stack 0
  1087  000033                     memcpy@s:
  1088                           	opt stack 0
  1089                           
  1090                           ; 2 bytes @ 0x8
  1091  000033                     	ds	1
  1092  000034                     USBEnableEndpoint@p:
  1093                           	opt stack 0
  1094                           
  1095                           ; 2 bytes @ 0x9
  1096  000034                     	ds	2
  1097  000036                     USBEnableEndpoint@ep:
  1098                           	opt stack 0
  1099                           
  1100                           ; 1 bytes @ 0xB
  1101  000036                     	ds	1
  1102  000037                     USER_USB_CALLBACK_EVENT_HANDLER@event:
  1103                           	opt stack 0
  1104                           
  1105                           ; 2 bytes @ 0xC
  1106  000037                     	ds	2
  1107  000039                     USER_USB_CALLBACK_EVENT_HANDLER@pdata:
  1108                           	opt stack 0
  1109                           
  1110                           ; 2 bytes @ 0xE
  1111  000039                     	ds	2
  1112  00003B                     USER_USB_CALLBACK_EVENT_HANDLER@size:
  1113                           	opt stack 0
  1114                           
  1115                           ; 2 bytes @ 0x10
  1116  00003B                     	ds	2
  1117  00003D                     ??_USER_USB_CALLBACK_EVENT_HANDLER:
  1118                           
  1119                           ; 0 bytes @ 0x12
  1120  00003D                     	ds	2
  1121  00003F                     ??_USBStdFeatureReqHandler:
  1122  00003F                     USBStdSetCfgHandler@i:
  1123                           	opt stack 0
  1124                           
  1125                           ; 1 bytes @ 0x14
  1126  00003F                     	ds	1
  1127  000040                     USBStdFeatureReqHandler@pUEP:
  1128                           	opt stack 0
  1129                           
  1130                           ; 2 bytes @ 0x15
  1131  000040                     	ds	2
  1132  000042                     USBStdFeatureReqHandler@current_ep_data:
  1133                           	opt stack 0
  1134                           
  1135                           ; 1 bytes @ 0x17
  1136  000042                     	ds	1
  1137  000043                     USBStdFeatureReqHandler@p:
  1138                           	opt stack 0
  1139                           
  1140                           ; 2 bytes @ 0x18
  1141  000043                     	ds	2
  1142  000045                     ??_USBCtrlEPService:
  1143  000045                     
  1144                           ; 0 bytes @ 0x1A
  1145  000045                     	ds	1
  1146  000046                     USBDeviceTasks@i:
  1147                           	opt stack 0
  1148                           
  1149                           ; 1 bytes @ 0x1B
  1150  000046                     	ds	1
  1151  000047                     ??_SYS_InterruptHigh:
  1152                           
  1153                           ; 0 bytes @ 0x1C
  1154  000047                     	ds	14
  1155                           tblptru	equ	0xFF8
  1156                           postinc0	equ	0xFEE
  1157                           wreg	equ	0xFE8
  1158                           
  1159 ;;
  1160 ;;Main: autosize = 0, tempsize = 0, incstack = 0, save=0
  1161 ;;
  1162 ;; *************** function _main *****************
  1163 ;; Defined at:
  1164 ;;		line 35 in file "../src/main.c"
  1165 ;; Parameters:    Size  Location     Type
  1166 ;;		None
  1167 ;; Auto vars:     Size  Location     Type
  1168 ;;		None
  1169 ;; Return value:  Size  Location     Type
  1170 ;;		None               void
  1171 ;; Registers used:
  1172 ;;		wreg, fsr2l, fsr2h, status,2, status,0, tblptrl, tblptrh, tblptru, prodl, prodh, cstack
  1173 ;; Tracked objects:
  1174 ;;		On entry : 0/0
  1175 ;;		On exit  : 0/0
  1176 ;;		Unchanged: 0/0
  1177 ;; Data sizes:     COMRAM   BANK0   BANK1   BANK2   BANK3   BANK4   BANK5   BANK6   BANK7
  1178 ;;      Params:         0       0       0       0       0       0       0       0       0
  1179 ;;      Locals:         0       0       0       0       0       0       0       0       0
  1180 ;;      Temps:          0       0       0       0       0       0       0       0       0
  1181 ;;      Totals:         0       0       0       0       0       0       0       0       0
  1182 ;;Total ram usage:        0 bytes
  1183 ;; Hardware stack levels required when called:   16
  1184 ;; This function calls:
  1185 ;;		_APP_DeviceCustomHIDTasks
  1186 ;;		_SYSTEM_Initialize
  1187 ;;		_USBDeviceAttach
  1188 ;;		_USBDeviceInit
  1189 ;; This function is called by:
  1190 ;;		Startup code after reset
  1191 ;; This function uses a non-reentrant model
  1192 ;;
  1193                           
  1194                           	psect	text0
  1195  003068                     __ptext0:
  1196                           	opt stack 0
  1197  003068                     _main:
  1198                           	opt stack 15
  1199                           
  1200                           ;main.c: 37: SYSTEM_Initialize(SYSTEM_STATE_USB_START);
  1201                           
  1202                           ; BSR set to: 0
  1203                           ;incstack = 0
  1204  003068  0E00               	movlw	0
  1205  00306A  ECBE  F015         	call	_SYSTEM_Initialize
  1206                           
  1207                           ;main.c: 39: USBDeviceInit();
  1208  00306E  ECED  F006         	call	_USBDeviceInit	;wreg free
  1209                           
  1210                           ;main.c: 40: USBDeviceAttach();
  1211  003072  EC8F  F017         	call	_USBDeviceAttach	;wreg free
  1212  003076  D000               	goto	l6049
  1213  003078                     l6049:
  1214                           
  1215                           ;main.c: 43: {
  1216                           ;main.c: 44: ;
  1217                           ;main.c: 65: if( USBDeviceState < CONFIGURED_STATE )
  1218  003078  0E20               	movlw	32
  1219  00307A  601B               	cpfslt	_USBDeviceState,c	;volatile
  1220  00307C  D001               	goto	l197
  1221                           
  1222                           ;main.c: 66: {
  1223                           ;main.c: 68: continue;
  1224  00307E  D7FC               	goto	l6049
  1225  003080                     l197:
  1226                           
  1227                           ;main.c: 69: }
  1228                           ;main.c: 75: if( UCONbits.SUSPND == 1 )
  1229  003080  B260               	btfsc	3936,1,c	;volatile
  1230  003082  D7FA               	goto	l6049
  1231  003084  D001               	goto	l6055
  1232                           
  1233                           ;main.c: 76: {
  1234                           ;main.c: 78: continue;
  1235  003086  D7F8               	goto	l6049
  1236  003088                     l6055:
  1237                           
  1238                           ;main.c: 79: }
  1239                           ;main.c: 82: APP_DeviceCustomHIDTasks();
  1240  003088  EC41  F000         	call	_APP_DeviceCustomHIDTasks	;wreg free
  1241  00308C  D7F5               	goto	l6049
  1242  00308E  EF3F  F000         	goto	start
  1243  003092                     __end_of_main:
  1244                           	opt stack 0
  1245                           tblptru	equ	0xFF8
  1246                           postinc0	equ	0xFEE
  1247                           wreg	equ	0xFE8
  1248                           
  1249 ;; *************** function _USBDeviceInit *****************
  1250 ;; Defined at:
  1251 ;;		line 295 in file "../../../../../../microchip/mla/v2015_08_10/framework/usb/src/usb_device.c"
  1252 ;; Parameters:    Size  Location     Type
  1253 ;;		None
  1254 ;; Auto vars:     Size  Location     Type
  1255 ;;  i               1    8[BANK0 ] unsigned char 
  1256 ;; Return value:  Size  Location     Type
  1257 ;;		None               void
  1258 ;; Registers used:
  1259 ;;		wreg, fsr2l, fsr2h, status,2, status,0, prodl, prodh, cstack
  1260 ;; Tracked objects:
  1261 ;;		On entry : 0/0
  1262 ;;		On exit  : 0/0
  1263 ;;		Unchanged: 0/0
  1264 ;; Data sizes:     COMRAM   BANK0   BANK1   BANK2   BANK3   BANK4   BANK5   BANK6   BANK7
  1265 ;;      Params:         0       0       0       0       0       0       0       0       0
  1266 ;;      Locals:         0       1       0       0       0       0       0       0       0
  1267 ;;      Temps:          0       0       0       0       0       0       0       0       0
  1268 ;;      Totals:         0       1       0       0       0       0       0       0       0
  1269 ;;Total ram usage:        1 bytes
  1270 ;; Hardware stack levels used:    1
  1271 ;; Hardware stack levels required when called:   11
  1272 ;; This function calls:
  1273 ;;		_memset
  1274 ;; This function is called by:
  1275 ;;		_main
  1276 ;; This function uses a non-reentrant model
  1277 ;;
  1278                           
  1279                           	psect	text1
  1280  000DDA                     __ptext1:
  1281                           	opt stack 0
  1282  000DDA                     _USBDeviceInit:
  1283                           	opt stack 19
  1284                           
  1285                           ;usb_device.c: 297: uint8_t i;
  1286                           ;usb_device.c: 299: {PIE3bits.USBIE = 0;};
  1287                           
  1288                           ;incstack = 0
  1289  000DDA  94A3               	bcf	4003,2,c	;volatile
  1290                           
  1291                           ;usb_device.c: 303: ;
  1292                           ;usb_device.c: 306: {UEIR = 0;};
  1293  000DDC  0E00               	movlw	0
  1294  000DDE  6E67               	movwf	3943,c	;volatile
  1295                           
  1296                           ;usb_device.c: 309: {UIR = 0;};
  1297  000DE0  0E00               	movlw	0
  1298  000DE2  6E65               	movwf	3941,c	;volatile
  1299                           
  1300                           ;usb_device.c: 312: UEP0 = 0;
  1301  000DE4  0E00               	movlw	0
  1302  000DE6  6E6A               	movwf	3946,c	;volatile
  1303                           
  1304                           ;usb_device.c: 314: memset((void*)&UEP1,0x00,(1));;
  1305  000DE8  0E6B               	movlw	107
  1306  000DEA  0100               	movlb	0	; () banked
  1307  000DEC  6F60               	movwf	memset@p1& (0+255),b
  1308  000DEE  0E0F               	movlw	15
  1309  000DF0  0100               	movlb	0	; () banked
  1310  000DF2  6F61               	movwf	(memset@p1+1)& (0+255),b
  1311  000DF4  0E00               	movlw	0
  1312  000DF6  0100               	movlb	0	; () banked
  1313  000DF8  6F63               	movwf	(memset@c+1)& (0+255),b
  1314  000DFA  0E00               	movlw	0
  1315  000DFC  6F62               	movwf	memset@c& (0+255),b
  1316  000DFE  0E00               	movlw	0
  1317  000E00  0100               	movlb	0	; () banked
  1318  000E02  6F65               	movwf	(memset@n+1)& (0+255),b
  1319  000E04  0E01               	movlw	1
  1320  000E06  6F64               	movwf	memset@n& (0+255),b
  1321  000E08  EC3E  F017         	call	_memset	;wreg free
  1322                           
  1323                           ;usb_device.c: 316: { UCFG = 0x10 | 0x00 | 0x04 | 0x02; UEIE = 0x9F; UIE = 0x39 | 0x40 |
      +                           0x02; };
  1324  000E0C  0E16               	movlw	22
  1325  000E0E  6E62               	movwf	3938,c	;volatile
  1326  000E10  0E9F               	movlw	159
  1327  000E12  6E66               	movwf	3942,c	;volatile
  1328  000E14  0E7B               	movlw	123
  1329  000E16  6E64               	movwf	3940,c	;volatile
  1330                           
  1331                           ;usb_device.c: 319: ;
  1332                           ;usb_device.c: 322: ;
  1333                           ;usb_device.c: 325: for(i = 0; i < (sizeof(BDT)/sizeof(BDT_ENTRY)); i++)
  1334  000E18  0E00               	movlw	0
  1335  000E1A  0100               	movlb	0	; () banked
  1336  000E1C  6F68               	movwf	USBDeviceInit@i& (0+255),b
  1337  000E1E  D010               	goto	l5893
  1338                           
  1339                           ; BSR set to: 0
  1340                           
  1341                           ; BSR set to: 0
  1342  000E20  D013               	goto	l435
  1343  000E22                     l5889:
  1344                           
  1345                           ; BSR set to: 0
  1346                           ;usb_device.c: 326: {
  1347                           ;usb_device.c: 327: BDT[i].Val = 0x00;
  1348  000E22  0100               	movlb	0	; () banked
  1349  000E24  5168               	movf	USBDeviceInit@i& (0+255),w,b
  1350  000E26  0D04               	mullw	4
  1351  000E28  0E00               	movlw	0
  1352  000E2A  24F3               	addwf	prodl,w,c
  1353  000E2C  6ED9               	movwf	fsr2l,c
  1354  000E2E  0E04               	movlw	4
  1355  000E30  20F4               	addwfc	prodh,w,c
  1356  000E32  6EDA               	movwf	fsr2h,c
  1357  000E34  6ADE               	clrf	postinc2,c
  1358  000E36  6ADE               	clrf	postinc2,c
  1359  000E38  6ADE               	clrf	postinc2,c
  1360  000E3A  6ADD               	clrf	postdec2,c
  1361                           
  1362                           ; BSR set to: 0
  1363  000E3C  0100               	movlb	0	; () banked
  1364  000E3E  2B68               	incf	USBDeviceInit@i& (0+255),f,b
  1365  000E40                     l5893:
  1366                           
  1367                           ; BSR set to: 0
  1368  000E40  0E07               	movlw	7
  1369  000E42  0100               	movlb	0	; () banked
  1370  000E44  6568               	cpfsgt	USBDeviceInit@i& (0+255),b
  1371  000E46  D7ED               	goto	l5889
  1372  000E48                     l435:
  1373                           
  1374                           ; BSR set to: 0
  1375                           ;usb_device.c: 328: }
  1376                           ;usb_device.c: 331: UCONbits.PPBRST = 1;
  1377  000E48  8C60               	bsf	3936,6,c	;volatile
  1378                           
  1379                           ; BSR set to: 0
  1380                           ;usb_device.c: 334: UADDR = 0x00;
  1381  000E4A  0E00               	movlw	0
  1382  000E4C  6E63               	movwf	3939,c	;volatile
  1383                           
  1384                           ; BSR set to: 0
  1385                           ;usb_device.c: 337: UCONbits.PKTDIS = 0;
  1386  000E4E  9860               	bcf	3936,4,c	;volatile
  1387                           
  1388                           ; BSR set to: 0
  1389                           ;usb_device.c: 340: UCONbits.PPBRST = 0;
  1390  000E50  9C60               	bcf	3936,6,c	;volatile
  1391  000E52  D000               	goto	l5901
  1392  000E54                     l5901:
  1393                           
  1394                           ;usb_device.c: 344: {
  1395                           ;usb_device.c: 345: (UIR &= 0xF7);
  1396  000E54  9665               	bcf	3941,3,c	;volatile
  1397                           
  1398                           ;usb_device.c: 347: inPipes[0].info.Val = 0;
  1399  000E56  0E00               	movlw	0
  1400  000E58  6E25               	movwf	_inPipes+3,c	;volatile
  1401                           
  1402                           ;usb_device.c: 348: outPipes[0].info.Val = 0;
  1403  000E5A  0E00               	movlw	0
  1404  000E5C  6E04               	movwf	_outPipes+3,c	;volatile
  1405                           
  1406                           ;usb_device.c: 349: outPipes[0].wCount.Val = 0;
  1407  000E5E  0E00               	movlw	0
  1408  000E60  6E06               	movwf	_outPipes+5,c	;volatile
  1409  000E62  0E00               	movlw	0
  1410  000E64  6E05               	movwf	_outPipes+4,c	;volatile
  1411                           
  1412                           ;usb_device.c: 350: }while(UIRbits.TRNIF == 1);
  1413  000E66  B665               	btfsc	3941,3,c	;volatile
  1414  000E68  D7F5               	goto	l5901
  1415                           
  1416                           ;usb_device.c: 354: USBStatusStageEnabledFlag1 = 1;
  1417  000E6A  0E01               	movlw	1
  1418  000E6C  6E1C               	movwf	_USBStatusStageEnabledFlag1,c	;volatile
  1419                           
  1420                           ;usb_device.c: 355: USBStatusStageEnabledFlag2 = 1;
  1421  000E6E  0E01               	movlw	1
  1422  000E70  6E1D               	movwf	_USBStatusStageEnabledFlag2,c	;volatile
  1423                           
  1424                           ;usb_device.c: 357: USBDeferINDataStagePackets = 0;
  1425  000E72  0E00               	movlw	0
  1426  000E74  0100               	movlb	0	; () banked
  1427  000E76  6FF2               	movwf	_USBDeferINDataStagePackets& (0+255),b	;volatile
  1428                           
  1429                           ;usb_device.c: 358: USBDeferOUTDataStagePackets = 0;
  1430  000E78  0E00               	movlw	0
  1431  000E7A  0100               	movlb	0	; () banked
  1432  000E7C  6FF3               	movwf	_USBDeferOUTDataStagePackets& (0+255),b	;volatile
  1433                           
  1434                           ;usb_device.c: 359: USBBusIsSuspended = 0;
  1435  000E7E  0E00               	movlw	0
  1436  000E80  6E19               	movwf	_USBBusIsSuspended,c	;volatile
  1437                           
  1438                           ;usb_device.c: 363: for(i = 0; i < (uint8_t)(1+1u); i++)
  1439  000E82  0E00               	movlw	0
  1440  000E84  0100               	movlb	0	; () banked
  1441  000E86  6F68               	movwf	USBDeviceInit@i& (0+255),b
  1442  000E88                     l5913:
  1443                           
  1444                           ; BSR set to: 0
  1445  000E88  0E01               	movlw	1
  1446  000E8A  0100               	movlb	0	; () banked
  1447  000E8C  6568               	cpfsgt	USBDeviceInit@i& (0+255),b
  1448  000E8E  D001               	goto	l5917
  1449                           
  1450                           ; BSR set to: 0
  1451  000E90  D033               	goto	l5923
  1452  000E92                     l5917:
  1453                           
  1454                           ; BSR set to: 0
  1455                           ;usb_device.c: 364: {
  1456                           ;usb_device.c: 365: pBDTEntryIn[i] = 0u;
  1457  000E92  0100               	movlb	0	; () banked
  1458  000E94  5168               	movf	USBDeviceInit@i& (0+255),w,b
  1459  000E96  0D02               	mullw	2
  1460  000E98  0E09               	movlw	low _pBDTEntryIn
  1461  000E9A  24F3               	addwf	prodl,w,c
  1462  000E9C  6ED9               	movwf	fsr2l,c
  1463  000E9E  0E00               	movlw	high _pBDTEntryIn
  1464  000EA0  20F4               	addwfc	prodh,w,c
  1465  000EA2  6EDA               	movwf	fsr2h,c
  1466  000EA4  0E00               	movlw	0
  1467  000EA6  6EDE               	movwf	postinc2,c
  1468  000EA8  0E00               	movlw	0
  1469  000EAA  6EDD               	movwf	postdec2,c
  1470                           
  1471                           ;usb_device.c: 366: pBDTEntryOut[i] = 0u;
  1472  000EAC  0100               	movlb	0	; () banked
  1473  000EAE  5168               	movf	USBDeviceInit@i& (0+255),w,b
  1474  000EB0  0D02               	mullw	2
  1475  000EB2  0EE6               	movlw	low _pBDTEntryOut
  1476  000EB4  24F3               	addwf	prodl,w,c
  1477  000EB6  6ED9               	movwf	fsr2l,c
  1478  000EB8  0E00               	movlw	high _pBDTEntryOut
  1479  000EBA  20F4               	addwfc	prodh,w,c
  1480  000EBC  6EDA               	movwf	fsr2h,c
  1481  000EBE  0E00               	movlw	0
  1482  000EC0  6EDE               	movwf	postinc2,c
  1483  000EC2  0E00               	movlw	0
  1484  000EC4  6EDD               	movwf	postdec2,c
  1485                           
  1486                           ;usb_device.c: 367: ep_data_in[i].Val = 0u;
  1487  000EC6  0100               	movlb	0	; () banked
  1488  000EC8  5168               	movf	USBDeviceInit@i& (0+255),w,b
  1489  000ECA  0D01               	mullw	1
  1490  000ECC  0E0F               	movlw	low _ep_data_in
  1491  000ECE  24F3               	addwf	prodl,w,c
  1492  000ED0  6ED9               	movwf	fsr2l,c
  1493  000ED2  0E00               	movlw	high _ep_data_in
  1494  000ED4  20F4               	addwfc	prodh,w,c
  1495  000ED6  6EDA               	movwf	fsr2h,c
  1496  000ED8  0E00               	movlw	0
  1497  000EDA  6EDF               	movwf	indf2,c
  1498                           
  1499                           ;usb_device.c: 368: ep_data_out[i].Val = 0u;
  1500  000EDC  0100               	movlb	0	; () banked
  1501  000EDE  5168               	movf	USBDeviceInit@i& (0+255),w,b
  1502  000EE0  0D01               	mullw	1
  1503  000EE2  0E11               	movlw	low _ep_data_out
  1504  000EE4  24F3               	addwf	prodl,w,c
  1505  000EE6  6ED9               	movwf	fsr2l,c
  1506  000EE8  0E00               	movlw	high _ep_data_out
  1507  000EEA  20F4               	addwfc	prodh,w,c
  1508  000EEC  6EDA               	movwf	fsr2h,c
  1509  000EEE  0E00               	movlw	0
  1510  000EF0  6EDF               	movwf	indf2,c
  1511                           
  1512                           ; BSR set to: 0
  1513  000EF2  0100               	movlb	0	; () banked
  1514  000EF4  2B68               	incf	USBDeviceInit@i& (0+255),f,b
  1515  000EF6  D7C8               	goto	l5913
  1516  000EF8                     l5923:
  1517                           
  1518                           ; BSR set to: 0
  1519                           ;usb_device.c: 369: }
  1520                           ;usb_device.c: 372: pBDTEntryIn[0] = (volatile BDT_ENTRY*)&BDT[2];
  1521  000EF8  0E08               	movlw	8
  1522  000EFA  6E09               	movwf	_pBDTEntryIn,c
  1523  000EFC  0E04               	movlw	4
  1524  000EFE  6E0A               	movwf	_pBDTEntryIn+1,c
  1525                           
  1526                           ; BSR set to: 0
  1527                           ;usb_device.c: 374: UEP0 = 0x06|0x10;
  1528  000F00  0E16               	movlw	22
  1529  000F02  6E6A               	movwf	3946,c	;volatile
  1530                           
  1531                           ; BSR set to: 0
  1532                           ;usb_device.c: 376: BDT[0].ADR = ((uint16_t)(&SetupPkt));
  1533  000F04  0E04               	movlw	4
  1534  000F06  0104               	movlb	4	; () banked
  1535  000F08  6F03               	movwf	3,b	;volatile
  1536  000F0A  0E20               	movlw	32
  1537  000F0C  6F02               	movwf	2,b	;volatile
  1538                           
  1539                           ; BSR set to: 4
  1540                           ;usb_device.c: 377: BDT[0].CNT = 8;
  1541  000F0E  0E08               	movlw	8
  1542  000F10  0104               	movlb	4	; () banked
  1543  000F12  6F01               	movwf	1,b	;volatile
  1544                           
  1545                           ; BSR set to: 4
  1546                           ;usb_device.c: 378: BDT[0].STAT.Val = 0x00|0x04;
  1547  000F14  0E04               	movlw	4
  1548  000F16  0104               	movlb	4	; () banked
  1549  000F18  6F00               	movwf	0,b	;volatile
  1550                           
  1551                           ; BSR set to: 4
  1552                           ;usb_device.c: 379: BDT[0].STAT.Val |= 0x80;
  1553  000F1A  0104               	movlb	4	; () banked
  1554  000F1C  8F00               	bsf	0,7,b	;volatile
  1555                           
  1556                           ; BSR set to: 4
  1557                           ;usb_device.c: 382: USBActiveConfiguration = 0;
  1558  000F1E  0E00               	movlw	0
  1559  000F20  6E28               	movwf	_USBActiveConfiguration,c	;volatile
  1560                           
  1561                           ; BSR set to: 4
  1562                           ;usb_device.c: 384: USB1msTickCount = 0;
  1563  000F22  0E00               	movlw	0
  1564  000F24  0100               	movlb	0	; () banked
  1565  000F26  6FE2               	movwf	_USB1msTickCount& (0+255),b	;volatile
  1566  000F28  0E00               	movlw	0
  1567  000F2A  6FE3               	movwf	(_USB1msTickCount+1)& (0+255),b	;volatile
  1568  000F2C  0E00               	movlw	0
  1569  000F2E  6FE4               	movwf	(_USB1msTickCount+2)& (0+255),b	;volatile
  1570  000F30  0E00               	movlw	0
  1571  000F32  6FE5               	movwf	(_USB1msTickCount+3)& (0+255),b	;volatile
  1572                           
  1573                           ; BSR set to: 0
  1574                           ;usb_device.c: 385: USBTicksSinceSuspendEnd = 0;
  1575  000F34  0E00               	movlw	0
  1576  000F36  0100               	movlb	0	; () banked
  1577  000F38  6FF4               	movwf	_USBTicksSinceSuspendEnd& (0+255),b	;volatile
  1578                           
  1579                           ; BSR set to: 0
  1580                           ;usb_device.c: 388: USBDeviceState = DETACHED_STATE;
  1581  000F3A  0E00               	movlw	0
  1582  000F3C  6E1B               	movwf	_USBDeviceState,c	;volatile
  1583                           
  1584                           ; BSR set to: 0
  1585  000F3E  0012               	return		;funcret
  1586  000F40                     __end_of_USBDeviceInit:
  1587                           	opt stack 0
  1588                           tblptru	equ	0xFF8
  1589                           prodh	equ	0xFF4
  1590                           prodl	equ	0xFF3
  1591                           postinc0	equ	0xFEE
  1592                           wreg	equ	0xFE8
  1593                           indf2	equ	0xFDF
  1594                           postinc2	equ	0xFDE
  1595                           postdec2	equ	0xFDD
  1596                           fsr2h	equ	0xFDA
  1597                           fsr2l	equ	0xFD9
  1598                           
  1599 ;; *************** function _memset *****************
  1600 ;; Defined at:
  1601 ;;		line 8 in file "C:\Program Files (x86)\Microchip\xc8\v1.34\sources\common\memset.c"
  1602 ;; Parameters:    Size  Location     Type
  1603 ;;  p1              2    0[BANK0 ] PTR void 
  1604 ;;		 -> USBAlternateInterface(1), BDT(32), UEP1(1), 
  1605 ;;  c               2    2[BANK0 ] int 
  1606 ;;  n               2    4[BANK0 ] unsigned int 
  1607 ;; Auto vars:     Size  Location     Type
  1608 ;;  p               2    6[BANK0 ] PTR unsigned char 
  1609 ;;		 -> USBAlternateInterface(1), BDT(32), UEP1(1), 
  1610 ;; Return value:  Size  Location     Type
  1611 ;;                  2    0[BANK0 ] PTR void 
  1612 ;; Registers used:
  1613 ;;		wreg, fsr2l, fsr2h, status,2, status,0
  1614 ;; Tracked objects:
  1615 ;;		On entry : 0/0
  1616 ;;		On exit  : 0/0
  1617 ;;		Unchanged: 0/0
  1618 ;; Data sizes:     COMRAM   BANK0   BANK1   BANK2   BANK3   BANK4   BANK5   BANK6   BANK7
  1619 ;;      Params:         0       6       0       0       0       0       0       0       0
  1620 ;;      Locals:         0       2       0       0       0       0       0       0       0
  1621 ;;      Temps:          0       0       0       0       0       0       0       0       0
  1622 ;;      Totals:         0       8       0       0       0       0       0       0       0
  1623 ;;Total ram usage:        8 bytes
  1624 ;; Hardware stack levels used:    1
  1625 ;; Hardware stack levels required when called:   10
  1626 ;; This function calls:
  1627 ;;		Nothing
  1628 ;; This function is called by:
  1629 ;;		_USBDeviceInit
  1630 ;; This function uses a non-reentrant model
  1631 ;;
  1632                           
  1633                           	psect	text2
  1634  002E7C                     __ptext2:
  1635                           	opt stack 0
  1636  002E7C                     _memset:
  1637                           	opt stack 19
  1638                           
  1639                           ; BSR set to: 0
  1640                           ;incstack = 0
  1641  002E7C  C060  F066         	movff	memset@p1,memset@p
  1642  002E80  C061  F067         	movff	memset@p1+1,memset@p+1
  1643  002E84  D00A               	goto	l5841
  1644  002E86                     l5837:
  1645  002E86  C066  FFD9         	movff	memset@p,fsr2l
  1646  002E8A  C067  FFDA         	movff	memset@p+1,fsr2h
  1647  002E8E  C062  FFDF         	movff	memset@c,indf2
  1648  002E92  0100               	movlb	0	; () banked
  1649  002E94  4B66               	infsnz	memset@p& (0+255),f,b
  1650  002E96  2B67               	incf	(memset@p+1)& (0+255),f,b
  1651  002E98  D000               	goto	l5841
  1652  002E9A                     l5841:
  1653  002E9A  0100               	movlb	0	; () banked
  1654  002E9C  0764               	decf	memset@n& (0+255),f,b
  1655  002E9E  A0D8               	btfss	status,0,c
  1656  002EA0  0765               	decf	(memset@n+1)& (0+255),f,b
  1657  002EA2  0100               	movlb	0	; () banked
  1658  002EA4  2964               	incf	memset@n& (0+255),w,b
  1659  002EA6  E1EF               	bnz	l5837
  1660  002EA8  0100               	movlb	0	; () banked
  1661  002EAA  2965               	incf	(memset@n+1)& (0+255),w,b
  1662  002EAC  A4D8               	btfss	status,2,c
  1663  002EAE  D7EB               	goto	l5837
  1664                           
  1665                           ; BSR set to: 0
  1666                           
  1667                           ; BSR set to: 0
  1668                           ;	Return value of _memset is never used
  1669  002EB0  0012               	return		;funcret
  1670  002EB2                     __end_of_memset:
  1671                           	opt stack 0
  1672                           tblptru	equ	0xFF8
  1673                           prodh	equ	0xFF4
  1674                           prodl	equ	0xFF3
  1675                           postinc0	equ	0xFEE
  1676                           wreg	equ	0xFE8
  1677                           indf2	equ	0xFDF
  1678                           postinc2	equ	0xFDE
  1679                           postdec2	equ	0xFDD
  1680                           fsr2h	equ	0xFDA
  1681                           fsr2l	equ	0xFD9
  1682                           status	equ	0xFD8
  1683                           
  1684 ;; *************** function _USBDeviceAttach *****************
  1685 ;; Defined at:
  1686 ;;		line 1370 in file "../../../../../../microchip/mla/v2015_08_10/framework/usb/src/usb_device.c"
  1687 ;; Parameters:    Size  Location     Type
  1688 ;;		None
  1689 ;; Auto vars:     Size  Location     Type
  1690 ;;		None
  1691 ;; Return value:  Size  Location     Type
  1692 ;;		None               void
  1693 ;; Registers used:
  1694 ;;		wreg, status,2
  1695 ;; Tracked objects:
  1696 ;;		On entry : 0/0
  1697 ;;		On exit  : 0/0
  1698 ;;		Unchanged: 0/0
  1699 ;; Data sizes:     COMRAM   BANK0   BANK1   BANK2   BANK3   BANK4   BANK5   BANK6   BANK7
  1700 ;;      Params:         0       0       0       0       0       0       0       0       0
  1701 ;;      Locals:         0       0       0       0       0       0       0       0       0
  1702 ;;      Temps:          0       0       0       0       0       0       0       0       0
  1703 ;;      Totals:         0       0       0       0       0       0       0       0       0
  1704 ;;Total ram usage:        0 bytes
  1705 ;; Hardware stack levels used:    1
  1706 ;; Hardware stack levels required when called:   10
  1707 ;; This function calls:
  1708 ;;		Nothing
  1709 ;; This function is called by:
  1710 ;;		_main
  1711 ;; This function uses a non-reentrant model
  1712 ;;
  1713                           
  1714                           	psect	text3
  1715  002F1E                     __ptext3:
  1716                           	opt stack 0
  1717  002F1E                     _USBDeviceAttach:
  1718                           	opt stack 20
  1719                           
  1720                           ;usb_device.c: 1374: {
  1721                           ;usb_device.c: 1375: if(1 == 1)
  1722                           
  1723                           ; BSR set to: 0
  1724                           ;incstack = 0
  1725  002F1E  501B               	movf	_USBDeviceState,w,c	;volatile
  1726  002F20  A4D8               	btfss	status,2,c
  1727  002F22  0012               	return	
  1728                           
  1729                           ;usb_device.c: 1376: {
  1730                           ;usb_device.c: 1378: UCON = 0;
  1731  002F24  0E00               	movlw	0
  1732  002F26  6E60               	movwf	3936,c	;volatile
  1733                           
  1734                           ;usb_device.c: 1381: UIE = 0;
  1735  002F28  0E00               	movlw	0
  1736  002F2A  6E64               	movwf	3940,c	;volatile
  1737                           
  1738                           ;usb_device.c: 1385: { UCFG = 0x10 | 0x00 | 0x04 | 0x02; UEIE = 0x9F; UIE = 0x39 | 0x40 
      +                          | 0x02; };
  1739  002F2C  0E16               	movlw	22
  1740  002F2E  6E62               	movwf	3938,c	;volatile
  1741  002F30  0E9F               	movlw	159
  1742  002F32  6E66               	movwf	3942,c	;volatile
  1743  002F34  0E7B               	movlw	123
  1744  002F36  6E64               	movwf	3940,c	;volatile
  1745                           
  1746                           ;usb_device.c: 1387: {RCONbits.IPEN = 1;IPR3bits.USBIP = 1;PIE3bits.USBIE = 1;INTCONbits
      +                          .GIEH = 1;};
  1747  002F38  8ED0               	bsf	4048,7,c	;volatile
  1748  002F3A  84A5               	bsf	4005,2,c	;volatile
  1749  002F3C  84A3               	bsf	4003,2,c	;volatile
  1750  002F3E  8EF2               	bsf	intcon,7,c	;volatile
  1751                           
  1752                           ;usb_device.c: 1390: while(!UCONbits.USBEN){UCONbits.USBEN = 1;}
  1753  002F40  D001               	goto	l495
  1754  002F42                     l496:
  1755  002F42  8660               	bsf	3936,3,c	;volatile
  1756  002F44                     l495:
  1757  002F44  A660               	btfss	3936,3,c	;volatile
  1758  002F46  D7FD               	goto	l496
  1759                           
  1760                           ;usb_device.c: 1393: USBDeviceState = ATTACHED_STATE;
  1761  002F48  0E01               	movlw	1
  1762  002F4A  6E1B               	movwf	_USBDeviceState,c	;volatile
  1763  002F4C  0012               	return	
  1764  002F4E  0012               	return		;funcret
  1765  002F50                     __end_of_USBDeviceAttach:
  1766                           	opt stack 0
  1767                           tblptru	equ	0xFF8
  1768                           prodh	equ	0xFF4
  1769                           prodl	equ	0xFF3
  1770                           intcon	equ	0xFF2
  1771                           postinc0	equ	0xFEE
  1772                           wreg	equ	0xFE8
  1773                           indf2	equ	0xFDF
  1774                           postinc2	equ	0xFDE
  1775                           postdec2	equ	0xFDD
  1776                           fsr2h	equ	0xFDA
  1777                           fsr2l	equ	0xFD9
  1778                           status	equ	0xFD8
  1779                           
  1780 ;; *************** function _SYSTEM_Initialize *****************
  1781 ;; Defined at:
  1782 ;;		line 88 in file "../src/system_config/pic18f45k50/system.c"
  1783 ;; Parameters:    Size  Location     Type
  1784 ;;  state           1    wreg     enum E6716
  1785 ;; Auto vars:     Size  Location     Type
  1786 ;;  state           1    1[BANK0 ] enum E6716
  1787 ;; Return value:  Size  Location     Type
  1788 ;;		None               void
  1789 ;; Registers used:
  1790 ;;		wreg, status,2, status,0, cstack
  1791 ;; Tracked objects:
  1792 ;;		On entry : 0/0
  1793 ;;		On exit  : 0/0
  1794 ;;		Unchanged: 0/0
  1795 ;; Data sizes:     COMRAM   BANK0   BANK1   BANK2   BANK3   BANK4   BANK5   BANK6   BANK7
  1796 ;;      Params:         0       0       0       0       0       0       0       0       0
  1797 ;;      Locals:         0       1       0       0       0       0       0       0       0
  1798 ;;      Temps:          0       0       0       0       0       0       0       0       0
  1799 ;;      Totals:         0       1       0       0       0       0       0       0       0
  1800 ;;Total ram usage:        1 bytes
  1801 ;; Hardware stack levels used:    1
  1802 ;; Hardware stack levels required when called:   11
  1803 ;; This function calls:
  1804 ;;		_ADC_Enable
  1805 ;;		_ADC_SetConfiguration
  1806 ;;		_BUTTON_Enable
  1807 ;;		_LED_Enable
  1808 ;; This function is called by:
  1809 ;;		_main
  1810 ;; This function uses a non-reentrant model
  1811 ;;
  1812                           
  1813                           	psect	text4
  1814  002B7C                     __ptext4:
  1815                           	opt stack 0
  1816  002B7C                     _SYSTEM_Initialize:
  1817                           	opt stack 19
  1818                           
  1819                           ;incstack = 0
  1820                           ;SYSTEM_Initialize@state stored from wreg
  1821  002B7C  0100               	movlb	0	; () banked
  1822  002B7E  6F61               	movwf	SYSTEM_Initialize@state& (0+255),b
  1823                           
  1824                           ; BSR set to: 0
  1825                           ;system.c: 90: switch(state)
  1826  002B80  D021               	goto	l5869
  1827  002B82                     l5849:
  1828                           
  1829                           ; BSR set to: 0
  1830                           ;system.c: 97: OSCTUNE = 0x80;
  1831  002B82  0E80               	movlw	128
  1832  002B84  6E9B               	movwf	3995,c	;volatile
  1833                           
  1834                           ;system.c: 98: OSCCON = 0x70;
  1835  002B86  0E70               	movlw	112
  1836  002B88  6ED3               	movwf	4051,c	;volatile
  1837                           
  1838                           ;system.c: 99: OSCCON2 = 0x10;
  1839  002B8A  0E10               	movlw	16
  1840  002B8C  6ED2               	movwf	4050,c	;volatile
  1841                           
  1842                           ;system.c: 100: while(OSCCON2bits.PLLRDY != 1);
  1843  002B8E  D000               	goto	l150
  1844  002B90                     l150:
  1845  002B90  AED2               	btfss	4050,7,c	;volatile
  1846  002B92  D7FE               	goto	l150
  1847                           
  1848                           ;system.c: 101: ACTCON = 0x90;
  1849  002B94  0E90               	movlw	144
  1850  002B96  6EB5               	movwf	4021,c	;volatile
  1851                           
  1852                           ;system.c: 104: LED_Enable(LED_NONE);
  1853  002B98  0E00               	movlw	0
  1854  002B9A  ECA8  F017         	call	_LED_Enable
  1855                           
  1856                           ;system.c: 105: LED_Enable(LED_D1);
  1857  002B9E  0E01               	movlw	1
  1858  002BA0  ECA8  F017         	call	_LED_Enable
  1859                           
  1860                           ;system.c: 106: LED_Enable(LED_D2);
  1861  002BA4  0E02               	movlw	2
  1862  002BA6  ECA8  F017         	call	_LED_Enable
  1863                           
  1864                           ;system.c: 107: BUTTON_Enable(BUTTON_S2);
  1865  002BAA  0E01               	movlw	1
  1866  002BAC  ECE1  F018         	call	_BUTTON_Enable
  1867                           
  1868                           ;system.c: 109: ADC_SetConfiguration(ADC_CONFIGURATION_DEFAULT);
  1869  002BB0  0E00               	movlw	0
  1870  002BB2  EC03  F019         	call	_ADC_SetConfiguration
  1871                           
  1872                           ;system.c: 110: ADC_Enable(ADC_CHANNEL_0);
  1873  002BB6  0E00               	movlw	0
  1874  002BB8  EC99  F018         	call	_ADC_Enable
  1875                           
  1876                           ;system.c: 111: ADC_Enable(ADC_CHANNEL_1);
  1877  002BBC  0E01               	movlw	1
  1878  002BBE  EC99  F018         	call	_ADC_Enable
  1879                           
  1880                           ;system.c: 119: }
  1881                           
  1882                           ;system.c: 118: break;
  1883                           
  1884                           ;system.c: 117: case SYSTEM_STATE_USB_RESUME:
  1885                           
  1886                           ;system.c: 115: break;
  1887                           
  1888                           ;system.c: 114: case SYSTEM_STATE_USB_SUSPEND:
  1889                           
  1890                           ;system.c: 112: break;
  1891  002BC2  0012               	return	
  1892  002BC4                     l5869:
  1893  002BC4  0100               	movlb	0	; () banked
  1894  002BC6  5161               	movf	SYSTEM_Initialize@state& (0+255),w,b
  1895                           
  1896                           ; Switch size 1, requested type "space"
  1897                           ; Number of cases is 3, Range of values is 0 to 2
  1898                           ; switch strategies available:
  1899                           ; Name         Instructions Cycles
  1900                           ; simple_byte           10     6 (average)
  1901                           ;	Chosen strategy is simple_byte
  1902  002BC8  0A00               	xorlw	0	; case 0
  1903  002BCA  B4D8               	btfsc	status,2,c
  1904  002BCC  D7DA               	goto	l5849
  1905  002BCE  0A01               	xorlw	1	; case 1
  1906  002BD0  B4D8               	btfsc	status,2,c
  1907  002BD2  0012               	return	
  1908  002BD4  0A03               	xorlw	3	; case 2
  1909  002BD6  0012               	return	
  1910                           
  1911                           ; BSR set to: 0
  1912  002BD8  0012               	return		;funcret
  1913  002BDA                     __end_of_SYSTEM_Initialize:
  1914                           	opt stack 0
  1915                           tblptru	equ	0xFF8
  1916                           prodh	equ	0xFF4
  1917                           prodl	equ	0xFF3
  1918                           intcon	equ	0xFF2
  1919                           postinc0	equ	0xFEE
  1920                           wreg	equ	0xFE8
  1921                           indf2	equ	0xFDF
  1922                           postinc2	equ	0xFDE
  1923                           postdec2	equ	0xFDD
  1924                           fsr2h	equ	0xFDA
  1925                           fsr2l	equ	0xFD9
  1926                           status	equ	0xFD8
  1927                           
  1928 ;; *************** function _LED_Enable *****************
  1929 ;; Defined at:
  1930 ;;		line 227 in file "../bsp_pic18f45k50/leds.c"
  1931 ;; Parameters:    Size  Location     Type
  1932 ;;  led             1    wreg     enum E2
  1933 ;; Auto vars:     Size  Location     Type
  1934 ;;  led             1    0[BANK0 ] enum E2
  1935 ;; Return value:  Size  Location     Type
  1936 ;;		None               void
  1937 ;; Registers used:
  1938 ;;		wreg, status,2, status,0
  1939 ;; Tracked objects:
  1940 ;;		On entry : 0/0
  1941 ;;		On exit  : 0/0
  1942 ;;		Unchanged: 0/0
  1943 ;; Data sizes:     COMRAM   BANK0   BANK1   BANK2   BANK3   BANK4   BANK5   BANK6   BANK7
  1944 ;;      Params:         0       0       0       0       0       0       0       0       0
  1945 ;;      Locals:         0       1       0       0       0       0       0       0       0
  1946 ;;      Temps:          0       0       0       0       0       0       0       0       0
  1947 ;;      Totals:         0       1       0       0       0       0       0       0       0
  1948 ;;Total ram usage:        1 bytes
  1949 ;; Hardware stack levels used:    1
  1950 ;; Hardware stack levels required when called:   10
  1951 ;; This function calls:
  1952 ;;		Nothing
  1953 ;; This function is called by:
  1954 ;;		_SYSTEM_Initialize
  1955 ;; This function uses a non-reentrant model
  1956 ;;
  1957                           
  1958                           	psect	text5
  1959  002F50                     __ptext5:
  1960                           	opt stack 0
  1961  002F50                     _LED_Enable:
  1962                           	opt stack 19
  1963                           
  1964                           ;incstack = 0
  1965                           ;LED_Enable@led stored from wreg
  1966  002F50  0100               	movlb	0	; () banked
  1967  002F52  6F60               	movwf	LED_Enable@led& (0+255),b
  1968                           
  1969                           ; BSR set to: 0
  1970                           ;leds.c: 229: switch(led)
  1971  002F54  D008               	goto	l5763
  1972  002F56                     l121:
  1973                           
  1974                           ; BSR set to: 0
  1975                           ;leds.c: 232: TRISCbits.TRISC2 = 0;
  1976  002F56  9494               	bcf	3988,2,c	;volatile
  1977                           
  1978                           ;leds.c: 233: ANSELCbits.ANSC2 = 0;
  1979  002F58  010F               	movlb	15	; () banked
  1980  002F5A  955D               	bcf	93,2,b	;volatile
  1981                           
  1982                           ;leds.c: 234: break;
  1983  002F5C  0012               	return	
  1984  002F5E                     l123:
  1985                           
  1986                           ; BSR set to: 0
  1987                           ;leds.c: 237: TRISCbits.TRISC0 = 0;
  1988  002F5E  9094               	bcf	3988,0,c	;volatile
  1989                           
  1990                           ;leds.c: 238: ANSELCbits.ANSC2 = 0;
  1991  002F60  010F               	movlb	15	; () banked
  1992  002F62  955D               	bcf	93,2,b	;volatile
  1993                           
  1994                           ; BSR set to: 15
  1995                           ;leds.c: 253: }
  1996                           
  1997                           ; BSR set to: 15
  1998                           ;leds.c: 252: break;
  1999                           
  2000                           ;leds.c: 251: case LED_NONE:
  2001                           
  2002                           ;leds.c: 239: break;
  2003  002F64  0012               	return	
  2004  002F66                     l5763:
  2005  002F66  0100               	movlb	0	; () banked
  2006  002F68  5160               	movf	LED_Enable@led& (0+255),w,b
  2007                           
  2008                           ; Switch size 1, requested type "space"
  2009                           ; Number of cases is 3, Range of values is 0 to 2
  2010                           ; switch strategies available:
  2011                           ; Name         Instructions Cycles
  2012                           ; simple_byte           10     6 (average)
  2013                           ;	Chosen strategy is simple_byte
  2014  002F6A  0A00               	xorlw	0	; case 0
  2015  002F6C  B4D8               	btfsc	status,2,c
  2016  002F6E  0012               	return	
  2017  002F70  0A01               	xorlw	1	; case 1
  2018  002F72  B4D8               	btfsc	status,2,c
  2019  002F74  D7F0               	goto	l121
  2020  002F76  0A03               	xorlw	3	; case 2
  2021  002F78  A4D8               	btfss	status,2,c
  2022  002F7A  0012               	return	
  2023  002F7C  D7F0               	goto	l123
  2024                           
  2025                           ; BSR set to: 0
  2026  002F7E  0012               	return		;funcret
  2027  002F80                     __end_of_LED_Enable:
  2028                           	opt stack 0
  2029                           tblptru	equ	0xFF8
  2030                           prodh	equ	0xFF4
  2031                           prodl	equ	0xFF3
  2032                           intcon	equ	0xFF2
  2033                           postinc0	equ	0xFEE
  2034                           wreg	equ	0xFE8
  2035                           indf2	equ	0xFDF
  2036                           postinc2	equ	0xFDE
  2037                           postdec2	equ	0xFDD
  2038                           fsr2h	equ	0xFDA
  2039                           fsr2l	equ	0xFD9
  2040                           status	equ	0xFD8
  2041                           
  2042 ;; *************** function _BUTTON_Enable *****************
  2043 ;; Defined at:
  2044 ;;		line 96 in file "../bsp_pic18f45k50/buttons.c"
  2045 ;; Parameters:    Size  Location     Type
  2046 ;;  button          1    wreg     enum E6643
  2047 ;; Auto vars:     Size  Location     Type
  2048 ;;  button          1    0[BANK0 ] enum E6643
  2049 ;; Return value:  Size  Location     Type
  2050 ;;		None               void
  2051 ;; Registers used:
  2052 ;;		wreg, status,2, status,0
  2053 ;; Tracked objects:
  2054 ;;		On entry : 0/0
  2055 ;;		On exit  : 0/0
  2056 ;;		Unchanged: 0/0
  2057 ;; Data sizes:     COMRAM   BANK0   BANK1   BANK2   BANK3   BANK4   BANK5   BANK6   BANK7
  2058 ;;      Params:         0       0       0       0       0       0       0       0       0
  2059 ;;      Locals:         0       1       0       0       0       0       0       0       0
  2060 ;;      Temps:          0       0       0       0       0       0       0       0       0
  2061 ;;      Totals:         0       1       0       0       0       0       0       0       0
  2062 ;;Total ram usage:        1 bytes
  2063 ;; Hardware stack levels used:    1
  2064 ;; Hardware stack levels required when called:   10
  2065 ;; This function calls:
  2066 ;;		Nothing
  2067 ;; This function is called by:
  2068 ;;		_SYSTEM_Initialize
  2069 ;; This function uses a non-reentrant model
  2070 ;;
  2071                           
  2072                           	psect	text6
  2073  0031C2                     __ptext6:
  2074                           	opt stack 0
  2075  0031C2                     _BUTTON_Enable:
  2076                           	opt stack 19
  2077                           
  2078                           ;incstack = 0
  2079                           ;BUTTON_Enable@button stored from wreg
  2080  0031C2  0100               	movlb	0	; () banked
  2081  0031C4  6F60               	movwf	BUTTON_Enable@button& (0+255),b
  2082                           
  2083                           ; BSR set to: 0
  2084                           ;buttons.c: 98: switch(button)
  2085  0031C6  D004               	goto	l5721
  2086  0031C8                     l17:
  2087                           
  2088                           ; BSR set to: 0
  2089                           ;buttons.c: 101: TRISDbits.TRISD3 = 1;
  2090  0031C8  8695               	bsf	3989,3,c	;volatile
  2091                           
  2092                           ;buttons.c: 102: ANSELDbits.ANSD3 = 0;
  2093  0031CA  010F               	movlb	15	; () banked
  2094  0031CC  975E               	bcf	94,3,b	;volatile
  2095                           
  2096                           ; BSR set to: 15
  2097                           ;buttons.c: 112: }
  2098                           
  2099                           ; BSR set to: 15
  2100                           ;buttons.c: 111: break;
  2101                           
  2102                           ;buttons.c: 110: case BUTTON_NONE:
  2103                           
  2104                           ;buttons.c: 103: break;
  2105  0031CE  0012               	return	
  2106  0031D0                     l5721:
  2107  0031D0  0100               	movlb	0	; () banked
  2108  0031D2  5160               	movf	BUTTON_Enable@button& (0+255),w,b
  2109                           
  2110                           ; Switch size 1, requested type "space"
  2111                           ; Number of cases is 2, Range of values is 0 to 1
  2112                           ; switch strategies available:
  2113                           ; Name         Instructions Cycles
  2114                           ; simple_byte            7     4 (average)
  2115                           ;	Chosen strategy is simple_byte
  2116  0031D4  0A00               	xorlw	0	; case 0
  2117  0031D6  B4D8               	btfsc	status,2,c
  2118  0031D8  0012               	return	
  2119  0031DA  0A01               	xorlw	1	; case 1
  2120  0031DC  A4D8               	btfss	status,2,c
  2121  0031DE  0012               	return	
  2122  0031E0  D7F3               	goto	l17
  2123                           
  2124                           ; BSR set to: 0
  2125  0031E2  0012               	return		;funcret
  2126  0031E4                     __end_of_BUTTON_Enable:
  2127                           	opt stack 0
  2128                           tblptru	equ	0xFF8
  2129                           prodh	equ	0xFF4
  2130                           prodl	equ	0xFF3
  2131                           intcon	equ	0xFF2
  2132                           postinc0	equ	0xFEE
  2133                           wreg	equ	0xFE8
  2134                           indf2	equ	0xFDF
  2135                           postinc2	equ	0xFDE
  2136                           postdec2	equ	0xFDD
  2137                           fsr2h	equ	0xFDA
  2138                           fsr2l	equ	0xFD9
  2139                           status	equ	0xFD8
  2140                           
  2141 ;; *************** function _ADC_SetConfiguration *****************
  2142 ;; Defined at:
  2143 ;;		line 166 in file "../bsp_pic18f45k50/adc.c"
  2144 ;; Parameters:    Size  Location     Type
  2145 ;;  configuratio    1    wreg     enum E34
  2146 ;; Auto vars:     Size  Location     Type
  2147 ;;  configuratio    1    0[BANK0 ] enum E34
  2148 ;; Return value:  Size  Location     Type
  2149 ;;                  1    wreg      unsigned char 
  2150 ;; Registers used:
  2151 ;;		wreg, status,2
  2152 ;; Tracked objects:
  2153 ;;		On entry : 0/0
  2154 ;;		On exit  : 0/0
  2155 ;;		Unchanged: 0/0
  2156 ;; Data sizes:     COMRAM   BANK0   BANK1   BANK2   BANK3   BANK4   BANK5   BANK6   BANK7
  2157 ;;      Params:         0       0       0       0       0       0       0       0       0
  2158 ;;      Locals:         0       1       0       0       0       0       0       0       0
  2159 ;;      Temps:          0       0       0       0       0       0       0       0       0
  2160 ;;      Totals:         0       1       0       0       0       0       0       0       0
  2161 ;;Total ram usage:        1 bytes
  2162 ;; Hardware stack levels used:    1
  2163 ;; Hardware stack levels required when called:   10
  2164 ;; This function calls:
  2165 ;;		Nothing
  2166 ;; This function is called by:
  2167 ;;		_SYSTEM_Initialize
  2168 ;; This function uses a non-reentrant model
  2169 ;;
  2170                           
  2171                           	psect	text7
  2172  003206                     __ptext7:
  2173                           	opt stack 0
  2174  003206                     _ADC_SetConfiguration:
  2175                           	opt stack 19
  2176                           
  2177                           ;incstack = 0
  2178                           ;ADC_SetConfiguration@configuration stored from wreg
  2179  003206  0100               	movlb	0	; () banked
  2180  003208  6F60               	movwf	ADC_SetConfiguration@configuration& (0+255),b
  2181                           
  2182                           ; BSR set to: 0
  2183                           ;adc.c: 168: if(configuration == ADC_CONFIGURATION_DEFAULT)
  2184  00320A  0100               	movlb	0	; () banked
  2185  00320C  5160               	movf	ADC_SetConfiguration@configuration& (0+255),w,b
  2186  00320E  0100               	movlb	0	; () banked
  2187  003210  A4D8               	btfss	status,2,c
  2188  003212  0012               	return	
  2189                           
  2190                           ; BSR set to: 0
  2191                           ;adc.c: 169: {
  2192                           ;adc.c: 170: ADCON1=0;
  2193  003214  0E00               	movlw	0
  2194  003216  6EC1               	movwf	4033,c	;volatile
  2195                           
  2196                           ;adc.c: 171: ADCON2=0xBE;
  2197  003218  0EBE               	movlw	190
  2198  00321A  6EC0               	movwf	4032,c	;volatile
  2199                           
  2200                           ;adc.c: 172: ADCON0=0x01;
  2201  00321C  0E01               	movlw	1
  2202  00321E  6EC2               	movwf	4034,c	;volatile
  2203                           
  2204                           ; BSR set to: 0
  2205                           ;adc.c: 174: return 1;
  2206                           ;	Return value of _ADC_SetConfiguration is never used
  2207  003220  0012               	return	
  2208                           
  2209                           ; BSR set to: 0
  2210                           
  2211                           ; BSR set to: 0
  2212                           ;adc.c: 175: }
  2213                           ;adc.c: 177: return 0;
  2214                           ;	Return value of _ADC_SetConfiguration is never used
  2215  003222  0012               	return		;funcret
  2216  003224                     __end_of_ADC_SetConfiguration:
  2217                           	opt stack 0
  2218                           tblptru	equ	0xFF8
  2219                           prodh	equ	0xFF4
  2220                           prodl	equ	0xFF3
  2221                           intcon	equ	0xFF2
  2222                           postinc0	equ	0xFEE
  2223                           wreg	equ	0xFE8
  2224                           indf2	equ	0xFDF
  2225                           postinc2	equ	0xFDE
  2226                           postdec2	equ	0xFDD
  2227                           fsr2h	equ	0xFDA
  2228                           fsr2l	equ	0xFD9
  2229                           status	equ	0xFD8
  2230                           
  2231 ;; *************** function _ADC_Enable *****************
  2232 ;; Defined at:
  2233 ;;		line 137 in file "../bsp_pic18f45k50/adc.c"
  2234 ;; Parameters:    Size  Location     Type
  2235 ;;  channel         1    wreg     enum E30
  2236 ;; Auto vars:     Size  Location     Type
  2237 ;;  channel         1    0[BANK0 ] enum E30
  2238 ;; Return value:  Size  Location     Type
  2239 ;;                  1    wreg      unsigned char 
  2240 ;; Registers used:
  2241 ;;		wreg, status,2, status,0
  2242 ;; Tracked objects:
  2243 ;;		On entry : 0/0
  2244 ;;		On exit  : 0/0
  2245 ;;		Unchanged: 0/0
  2246 ;; Data sizes:     COMRAM   BANK0   BANK1   BANK2   BANK3   BANK4   BANK5   BANK6   BANK7
  2247 ;;      Params:         0       0       0       0       0       0       0       0       0
  2248 ;;      Locals:         0       1       0       0       0       0       0       0       0
  2249 ;;      Temps:          0       0       0       0       0       0       0       0       0
  2250 ;;      Totals:         0       1       0       0       0       0       0       0       0
  2251 ;;Total ram usage:        1 bytes
  2252 ;; Hardware stack levels used:    1
  2253 ;; Hardware stack levels required when called:   10
  2254 ;; This function calls:
  2255 ;;		Nothing
  2256 ;; This function is called by:
  2257 ;;		_SYSTEM_Initialize
  2258 ;; This function uses a non-reentrant model
  2259 ;;
  2260                           
  2261                           	psect	text8
  2262  003132                     __ptext8:
  2263                           	opt stack 0
  2264  003132                     _ADC_Enable:
  2265                           	opt stack 19
  2266                           
  2267                           ; BSR set to: 0
  2268                           ;incstack = 0
  2269                           ;ADC_Enable@channel stored from wreg
  2270  003132  0100               	movlb	0	; () banked
  2271  003134  6F60               	movwf	ADC_Enable@channel& (0+255),b
  2272                           
  2273                           ; BSR set to: 0
  2274                           ;adc.c: 139: switch(channel)
  2275  003136  D006               	goto	l5745
  2276  003138                     l68:
  2277                           
  2278                           ; BSR set to: 0
  2279                           ;adc.c: 142: TRISAbits.TRISA0 = 1;
  2280  003138  8092               	bsf	3986,0,c	;volatile
  2281                           
  2282                           ;adc.c: 143: ANSELAbits.ANSA0 = 1;
  2283  00313A  010F               	movlb	15	; () banked
  2284  00313C  815B               	bsf	91,0,b	;volatile
  2285                           
  2286                           ;adc.c: 144: return 1;
  2287                           ;	Return value of _ADC_Enable is never used
  2288  00313E  0012               	return	
  2289  003140                     l70:
  2290                           
  2291                           ; BSR set to: 0
  2292                           ;adc.c: 147: TRISCbits.TRISC0 = 0;
  2293  003140  9094               	bcf	3988,0,c	;volatile
  2294                           
  2295                           ; BSR set to: 0
  2296                           ;adc.c: 151: }
  2297                           
  2298                           ; BSR set to: 0
  2299                           ;adc.c: 150: return 0;
  2300                           ;	Return value of _ADC_Enable is never used
  2301                           
  2302                           ;adc.c: 149: default:
  2303                           
  2304                           ;adc.c: 148: return 1;
  2305                           ;	Return value of _ADC_Enable is never used
  2306  003142  0012               	return	
  2307  003144                     l5745:
  2308                           
  2309                           ; BSR set to: 0
  2310  003144  0100               	movlb	0	; () banked
  2311  003146  5160               	movf	ADC_Enable@channel& (0+255),w,b
  2312                           
  2313                           ; Switch size 1, requested type "space"
  2314                           ; Number of cases is 2, Range of values is 0 to 1
  2315                           ; switch strategies available:
  2316                           ; Name         Instructions Cycles
  2317                           ; simple_byte            7     4 (average)
  2318                           ;	Chosen strategy is simple_byte
  2319  003148  0A00               	xorlw	0	; case 0
  2320  00314A  B4D8               	btfsc	status,2,c
  2321  00314C  D7F5               	goto	l68
  2322  00314E  0A01               	xorlw	1	; case 1
  2323  003150  A4D8               	btfss	status,2,c
  2324  003152  0012               	return	
  2325  003154  D7F5               	goto	l70
  2326                           
  2327                           ; BSR set to: 0
  2328  003156  0012               	return		;funcret
  2329  003158                     __end_of_ADC_Enable:
  2330                           	opt stack 0
  2331                           tblptru	equ	0xFF8
  2332                           prodh	equ	0xFF4
  2333                           prodl	equ	0xFF3
  2334                           intcon	equ	0xFF2
  2335                           postinc0	equ	0xFEE
  2336                           wreg	equ	0xFE8
  2337                           indf2	equ	0xFDF
  2338                           postinc2	equ	0xFDE
  2339                           postdec2	equ	0xFDD
  2340                           fsr2h	equ	0xFDA
  2341                           fsr2l	equ	0xFD9
  2342                           status	equ	0xFD8
  2343                           
  2344 ;; *************** function _APP_DeviceCustomHIDTasks *****************
  2345 ;; Defined at:
  2346 ;;		line 111 in file "../src/app_device_custom_hid.c"
  2347 ;; Parameters:    Size  Location     Type
  2348 ;;		None
  2349 ;; Auto vars:     Size  Location     Type
  2350 ;;  pot             2  124[BANK0 ] unsigned int 
  2351 ;;  pot             2  122[BANK0 ] unsigned int 
  2352 ;;  i               1  129[BANK0 ] unsigned char 
  2353 ;;  j               1    0        unsigned char 
  2354 ;;  j               1  128[BANK0 ] unsigned char 
  2355 ;;  i               1  127[BANK0 ] unsigned char 
  2356 ;;  pot             1  126[BANK0 ] unsigned char 
  2357 ;; Return value:  Size  Location     Type
  2358 ;;		None               void
  2359 ;; Registers used:
  2360 ;;		wreg, fsr2l, fsr2h, status,2, status,0, tblptrl, tblptrh, tblptru, prodl, prodh, cstack
  2361 ;; Tracked objects:
  2362 ;;		On entry : 0/0
  2363 ;;		On exit  : 0/0
  2364 ;;		Unchanged: 0/0
  2365 ;; Data sizes:     COMRAM   BANK0   BANK1   BANK2   BANK3   BANK4   BANK5   BANK6   BANK7
  2366 ;;      Params:         0       0       0       0       0       0       0       0       0
  2367 ;;      Locals:         0      11       0       0       0       0       0       0       0
  2368 ;;      Temps:          0       2       0       0       0       0       0       0       0
  2369 ;;      Totals:         0      13       0       0       0       0       0       0       0
  2370 ;;Total ram usage:       13 bytes
  2371 ;; Hardware stack levels used:    1
  2372 ;; Hardware stack levels required when called:   15
  2373 ;; This function calls:
  2374 ;;		_ADC_Read10bit
  2375 ;;		_ADC_ReadPercentage
  2376 ;;		_LED_Toggle
  2377 ;;		_USBTransferOnePacket
  2378 ;;		___ftadd
  2379 ;;		___ftdiv
  2380 ;;		___ftmul
  2381 ;;		___fttol
  2382 ;;		___lbtoft
  2383 ;;		_pow
  2384 ;; This function is called by:
  2385 ;;		_main
  2386 ;; This function uses a non-reentrant model
  2387 ;;
  2388                           
  2389                           	psect	text9
  2390  000082                     __ptext9:
  2391                           	opt stack 0
  2392  000082                     _APP_DeviceCustomHIDTasks:
  2393                           	opt stack 15
  2394                           
  2395                           ;app_device_custom_hid.c: 114: if(((USBOutHandle != 0x0000) && ((*(volatile uint8_t*)USB
      +                          OutHandle & 0x80) != 0x00)) == 0)
  2396                           
  2397                           ;incstack = 0
  2398  000082  0100               	movlb	0	; () banked
  2399  000084  51EC               	movf	_USBOutHandle& (0+255),w,b
  2400  000086  0100               	movlb	0	; () banked
  2401  000088  11ED               	iorwf	(_USBOutHandle+1)& (0+255),w,b
  2402  00008A  B4D8               	btfsc	status,2,c
  2403  00008C  D14B               	goto	l6039
  2404                           
  2405                           ; BSR set to: 0
  2406  00008E  C0EC  FFD9         	movff	_USBOutHandle,fsr2l
  2407  000092  C0ED  FFDA         	movff	_USBOutHandle+1,fsr2h
  2408  000096  0100               	movlb	0	; () banked
  2409  000098  BEDF               	btfsc	indf2,7,c
  2410  00009A  0012               	return	
  2411                           
  2412                           ; BSR set to: 0
  2413                           ;app_device_custom_hid.c: 115: {
  2414                           ;app_device_custom_hid.c: 119: switch(ReceivedDataBuffer[0])
  2415  00009C  D143               	goto	l6039
  2416  00009E                     l5961:
  2417                           
  2418                           ;app_device_custom_hid.c: 122: LED_Toggle(LED_D1);
  2419  00009E  0E01               	movlw	1
  2420  0000A0  EC49  F018         	call	_LED_Toggle
  2421                           
  2422                           ;app_device_custom_hid.c: 123: LED_Toggle(LED_D2);
  2423  0000A4  0E02               	movlw	2
  2424  0000A6  EC49  F018         	call	_LED_Toggle
  2425                           
  2426                           ;app_device_custom_hid.c: 124: break;
  2427  0000AA  D14E               	goto	l6041
  2428  0000AC                     l5963:
  2429                           
  2430                           ;app_device_custom_hid.c: 127: if(!((USBInHandle != 0x0000) && ((*(volatile uint8_t*)USB
      +                          InHandle & 0x80) != 0x00)))
  2431  0000AC  0100               	movlb	0	; () banked
  2432  0000AE  51EA               	movf	_USBInHandle& (0+255),w,b
  2433  0000B0  0100               	movlb	0	; () banked
  2434  0000B2  11EB               	iorwf	(_USBInHandle+1)& (0+255),w,b
  2435  0000B4  B4D8               	btfsc	status,2,c
  2436  0000B6  D007               	goto	l5967
  2437                           
  2438                           ; BSR set to: 0
  2439  0000B8  C0EA  FFD9         	movff	_USBInHandle,fsr2l
  2440  0000BC  C0EB  FFDA         	movff	_USBInHandle+1,fsr2h
  2441  0000C0  0100               	movlb	0	; () banked
  2442  0000C2  BEDF               	btfsc	indf2,7,c
  2443  0000C4  D141               	goto	l6041
  2444  0000C6                     l5967:
  2445                           
  2446                           ; BSR set to: 0
  2447                           ;app_device_custom_hid.c: 128: {
  2448                           ;app_device_custom_hid.c: 129: ToSendDataBuffer[0] = 0x81;
  2449  0000C6  0E81               	movlw	129
  2450  0000C8  0105               	movlb	5	; () banked
  2451  0000CA  6F40               	movwf	64,b
  2452                           
  2453                           ; BSR set to: 5
  2454                           ;app_device_custom_hid.c: 132: USBInHandle = USBTransferOnePacket(1,1,(uint8_t*)&ToSendD
      +                          ataBuffer[0],64);
  2455  0000CC  0E01               	movlw	1
  2456  0000CE  0100               	movlb	0	; () banked
  2457  0000D0  6F60               	movwf	USBTransferOnePacket@dir& (0+255),b
  2458  0000D2  0E40               	movlw	64
  2459  0000D4  0100               	movlb	0	; () banked
  2460  0000D6  6F61               	movwf	USBTransferOnePacket@data& (0+255),b
  2461  0000D8  0E05               	movlw	5
  2462  0000DA  0100               	movlb	0	; () banked
  2463  0000DC  6F62               	movwf	(USBTransferOnePacket@data+1)& (0+255),b
  2464  0000DE  0E40               	movlw	64
  2465  0000E0  0100               	movlb	0	; () banked
  2466  0000E2  6F63               	movwf	USBTransferOnePacket@len& (0+255),b
  2467  0000E4  0E01               	movlw	1
  2468  0000E6  EC80  F00F         	call	_USBTransferOnePacket
  2469  0000EA  D117               	goto	L4
  2470                           
  2471                           ;app_device_custom_hid.c: 133: }
  2472                           ;app_device_custom_hid.c: 134: break;
  2473  0000EC  D12D               	goto	l6041
  2474  0000EE                     l5971:
  2475                           
  2476                           ;app_device_custom_hid.c: 136: {uint8_t i,j;
  2477                           ;app_device_custom_hid.c: 137: uint8_t pot;
  2478                           ;app_device_custom_hid.c: 138: if(!((USBInHandle != 0x0000) && ((*(volatile uint8_t*)USB
      +                          InHandle & 0x80) != 0x00)))
  2479  0000EE  0100               	movlb	0	; () banked
  2480  0000F0  51EA               	movf	_USBInHandle& (0+255),w,b
  2481  0000F2  0100               	movlb	0	; () banked
  2482  0000F4  11EB               	iorwf	(_USBInHandle+1)& (0+255),w,b
  2483  0000F6  B4D8               	btfsc	status,2,c
  2484  0000F8  D007               	goto	l5975
  2485                           
  2486                           ; BSR set to: 0
  2487  0000FA  C0EA  FFD9         	movff	_USBInHandle,fsr2l
  2488  0000FE  C0EB  FFDA         	movff	_USBInHandle+1,fsr2h
  2489  000102  0100               	movlb	0	; () banked
  2490  000104  BEDF               	btfsc	indf2,7,c
  2491  000106  D120               	goto	l6041
  2492  000108                     l5975:
  2493                           
  2494                           ; BSR set to: 0
  2495                           ;app_device_custom_hid.c: 139: {
  2496                           ;app_device_custom_hid.c: 140: ToSendDataBuffer[0] = 0x10;
  2497  000108  0E10               	movlw	16
  2498  00010A  0105               	movlb	5	; () banked
  2499  00010C  6F40               	movwf	64,b
  2500                           
  2501                           ;app_device_custom_hid.c: 142: for(i =1; i<64;i=i++ ){
  2502  00010E  0E01               	movlw	1
  2503  000110  0100               	movlb	0	; () banked
  2504  000112  6FDF               	movwf	APP_DeviceCustomHIDTasks@i& (0+255),b
  2505  000114                     l5977:
  2506                           
  2507                           ; BSR set to: 0
  2508  000114  0E3F               	movlw	63
  2509  000116  0100               	movlb	0	; () banked
  2510  000118  65DF               	cpfsgt	APP_DeviceCustomHIDTasks@i& (0+255),b
  2511  00011A  D001               	goto	l5981
  2512                           
  2513                           ; BSR set to: 0
  2514  00011C  D079               	goto	l6003
  2515  00011E                     l5981:
  2516                           
  2517                           ; BSR set to: 0
  2518                           ;app_device_custom_hid.c: 144: for (j=0;j<8;j++){
  2519  00011E  0E00               	movlw	0
  2520  000120  0100               	movlb	0	; () banked
  2521  000122  6FE0               	movwf	APP_DeviceCustomHIDTasks@j& (0+255),b
  2522  000124                     l5983:
  2523                           
  2524                           ; BSR set to: 0
  2525  000124  0E07               	movlw	7
  2526  000126  0100               	movlb	0	; () banked
  2527  000128  65E0               	cpfsgt	APP_DeviceCustomHIDTasks@j& (0+255),b
  2528  00012A  D001               	goto	l5987
  2529                           
  2530                           ; BSR set to: 0
  2531  00012C  D060               	goto	l5995
  2532  00012E                     l5987:
  2533                           
  2534                           ; BSR set to: 0
  2535                           ;app_device_custom_hid.c: 145: pot = pot + pow(2,j)* ADC_ReadPercentage(ADC_CHANNEL_0) /
      +                           50 ;
  2536  00012E  0100               	movlb	0	; () banked
  2537  000130  51E0               	movf	APP_DeviceCustomHIDTasks@j& (0+255),w,b
  2538  000132  ECD8  F017         	call	___lbtoft
  2539  000136  C068  F0C7         	movff	?___lbtoft,pow@y
  2540  00013A  C069  F0C8         	movff	?___lbtoft+1,pow@y+1
  2541  00013E  C06A  F0C9         	movff	?___lbtoft+2,pow@y+2
  2542  000142  0E00               	movlw	0
  2543  000144  0100               	movlb	0	; () banked
  2544  000146  6FC4               	movwf	pow@x& (0+255),b
  2545  000148  0E00               	movlw	0
  2546  00014A  0100               	movlb	0	; () banked
  2547  00014C  6FC5               	movwf	(pow@x+1)& (0+255),b
  2548  00014E  0E40               	movlw	64
  2549  000150  0100               	movlb	0	; () banked
  2550  000152  6FC6               	movwf	(pow@x+2)& (0+255),b
  2551  000154  EC5C  F005         	call	_pow	;wreg free
  2552  000158  C0C4  F0D7         	movff	?_pow,_APP_DeviceCustomHIDTasks$3084
  2553  00015C  C0C5  F0D8         	movff	?_pow+1,_APP_DeviceCustomHIDTasks$3084+1
  2554  000160  C0C6  F0D9         	movff	?_pow+2,_APP_DeviceCustomHIDTasks$3084+2
  2555                           
  2556                           ;app_device_custom_hid.c: 145: pot = pot + pow(2,j)* ADC_ReadPercentage(ADC_CHANNEL_0) /
      +                           50 ;
  2557  000164  0E00               	movlw	0
  2558  000166  0100               	movlb	0	; () banked
  2559  000168  6F82               	movwf	___ftdiv@f2& (0+255),b
  2560  00016A  0E48               	movlw	72
  2561  00016C  0100               	movlb	0	; () banked
  2562  00016E  6F83               	movwf	(___ftdiv@f2+1)& (0+255),b
  2563  000170  0E42               	movlw	66
  2564  000172  0100               	movlb	0	; () banked
  2565  000174  6F84               	movwf	(___ftdiv@f2+2)& (0+255),b
  2566  000176  0E00               	movlw	0
  2567  000178  EC49  F016         	call	_ADC_ReadPercentage
  2568  00017C  ECD8  F017         	call	___lbtoft
  2569  000180  C068  F073         	movff	?___lbtoft,___ftmul@f2
  2570  000184  C069  F074         	movff	?___lbtoft+1,___ftmul@f2+1
  2571  000188  C06A  F075         	movff	?___lbtoft+2,___ftmul@f2+2
  2572  00018C  C0D7  F070         	movff	_APP_DeviceCustomHIDTasks$3084,___ftmul@f1
  2573  000190  C0D8  F071         	movff	_APP_DeviceCustomHIDTasks$3084+1,___ftmul@f1+1
  2574  000194  C0D9  F072         	movff	_APP_DeviceCustomHIDTasks$3084+2,___ftmul@f1+2
  2575  000198  EC37  F006         	call	___ftmul	;wreg free
  2576  00019C  C070  F07F         	movff	?___ftmul,___ftdiv@f1
  2577  0001A0  C071  F080         	movff	?___ftmul+1,___ftdiv@f1+1
  2578  0001A4  C072  F081         	movff	?___ftmul+2,___ftdiv@f1+2
  2579  0001A8  ECF2  F008         	call	___ftdiv	;wreg free
  2580  0001AC  C07F  F091         	movff	?___ftdiv,___ftadd@f2
  2581  0001B0  C080  F092         	movff	?___ftdiv+1,___ftadd@f2+1
  2582  0001B4  C081  F093         	movff	?___ftdiv+2,___ftadd@f2+2
  2583  0001B8  0100               	movlb	0	; () banked
  2584  0001BA  51DE               	movf	APP_DeviceCustomHIDTasks@pot& (0+255),w,b
  2585  0001BC  ECD8  F017         	call	___lbtoft
  2586  0001C0  C068  F08E         	movff	?___lbtoft,___ftadd@f1
  2587  0001C4  C069  F08F         	movff	?___lbtoft+1,___ftadd@f1+1
  2588  0001C8  C06A  F090         	movff	?___lbtoft+2,___ftadd@f1+2
  2589  0001CC  EC00  F003         	call	___ftadd	;wreg free
  2590  0001D0  C08E  F09A         	movff	?___ftadd,___fttol@f1
  2591  0001D4  C08F  F09B         	movff	?___ftadd+1,___fttol@f1+1
  2592  0001D8  C090  F09C         	movff	?___ftadd+2,___fttol@f1+2
  2593  0001DC  EC49  F008         	call	___fttol	;wreg free
  2594  0001E0  0100               	movlb	0	; () banked
  2595  0001E2  519A               	movf	?___fttol& (0+255),w,b
  2596  0001E4  0100               	movlb	0	; () banked
  2597  0001E6  6FDE               	movwf	APP_DeviceCustomHIDTasks@pot& (0+255),b
  2598                           
  2599                           ; BSR set to: 0
  2600  0001E8  0100               	movlb	0	; () banked
  2601  0001EA  2BE0               	incf	APP_DeviceCustomHIDTasks@j& (0+255),f,b
  2602  0001EC  D79B               	goto	l5983
  2603  0001EE                     l5995:
  2604                           
  2605                           ; BSR set to: 0
  2606                           ;app_device_custom_hid.c: 146: }
  2607                           ;app_device_custom_hid.c: 147: ToSendDataBuffer[i] = pot;
  2608  0001EE  0100               	movlb	0	; () banked
  2609  0001F0  51DF               	movf	APP_DeviceCustomHIDTasks@i& (0+255),w,b
  2610  0001F2  0D01               	mullw	1
  2611  0001F4  0E40               	movlw	64
  2612  0001F6  24F3               	addwf	prodl,w,c
  2613  0001F8  6ED9               	movwf	fsr2l,c
  2614  0001FA  0E05               	movlw	5
  2615  0001FC  20F4               	addwfc	prodh,w,c
  2616  0001FE  6EDA               	movwf	fsr2h,c
  2617  000200  C0DE  FFDF         	movff	APP_DeviceCustomHIDTasks@pot,indf2
  2618                           
  2619                           ; BSR set to: 0
  2620                           ;app_device_custom_hid.c: 148: pot = 0;
  2621  000204  0E00               	movlw	0
  2622  000206  0100               	movlb	0	; () banked
  2623  000208  6FDE               	movwf	APP_DeviceCustomHIDTasks@pot& (0+255),b
  2624                           
  2625                           ; BSR set to: 0
  2626  00020A  0100               	movlb	0	; () banked
  2627  00020C  2BDF               	incf	APP_DeviceCustomHIDTasks@i& (0+255),f,b
  2628  00020E  D782               	goto	l5977
  2629  000210                     l6003:
  2630                           
  2631                           ; BSR set to: 0
  2632                           ;app_device_custom_hid.c: 149: }
  2633                           ;app_device_custom_hid.c: 151: USBInHandle = USBTransferOnePacket(1,1,(uint8_t*)&ToSendD
      +                          ataBuffer[0],64);
  2634  000210  0E01               	movlw	1
  2635  000212  0100               	movlb	0	; () banked
  2636  000214  6F60               	movwf	USBTransferOnePacket@dir& (0+255),b
  2637  000216  0E40               	movlw	64
  2638  000218  0100               	movlb	0	; () banked
  2639  00021A  6F61               	movwf	USBTransferOnePacket@data& (0+255),b
  2640  00021C  0E05               	movlw	5
  2641  00021E  0100               	movlb	0	; () banked
  2642  000220  6F62               	movwf	(USBTransferOnePacket@data+1)& (0+255),b
  2643  000222  0E40               	movlw	64
  2644  000224  0100               	movlb	0	; () banked
  2645  000226  6F63               	movwf	USBTransferOnePacket@len& (0+255),b
  2646  000228  0E01               	movlw	1
  2647  00022A  EC80  F00F         	call	_USBTransferOnePacket
  2648  00022E  D075               	goto	L4
  2649                           
  2650                           ;app_device_custom_hid.c: 152: }
  2651                           ;app_device_custom_hid.c: 153: }
  2652                           ;app_device_custom_hid.c: 154: break;
  2653  000230  D08B               	goto	l6041
  2654  000232                     l6005:
  2655                           
  2656                           ;app_device_custom_hid.c: 156: {
  2657                           ;app_device_custom_hid.c: 157: uint8_t i,j;
  2658                           ;app_device_custom_hid.c: 158: uint16_t pot;
  2659                           ;app_device_custom_hid.c: 159: ToSendDataBuffer[0] = 0x11;
  2660  000232  0E11               	movlw	17
  2661  000234  0105               	movlb	5	; () banked
  2662  000236  6F40               	movwf	64,b
  2663                           
  2664                           ;app_device_custom_hid.c: 161: for(i =1; i<63;i=i+2 ){
  2665  000238  0E01               	movlw	1
  2666  00023A  0100               	movlb	0	; () banked
  2667  00023C  6FE1               	movwf	APP_DeviceCustomHIDTasks@i_859& (0+255),b
  2668  00023E  D02C               	goto	l6019
  2669                           
  2670                           ; BSR set to: 0
  2671                           
  2672                           ; BSR set to: 0
  2673  000240  D030               	goto	l6021
  2674  000242                     l6011:
  2675                           
  2676                           ; BSR set to: 0
  2677                           ;app_device_custom_hid.c: 162: pot = ADC_Read10bit(ADC_CHANNEL_0);
  2678  000242  0E00               	movlw	0
  2679  000244  EC84  F015         	call	_ADC_Read10bit
  2680  000248  C061  F0DA         	movff	?_ADC_Read10bit,APP_DeviceCustomHIDTasks@pot_861
  2681  00024C  C062  F0DB         	movff	?_ADC_Read10bit+1,APP_DeviceCustomHIDTasks@pot_861+1
  2682                           
  2683                           ;app_device_custom_hid.c: 163: ToSendDataBuffer[i] = (uint8_t)pot;
  2684  000250  0100               	movlb	0	; () banked
  2685  000252  51E1               	movf	APP_DeviceCustomHIDTasks@i_859& (0+255),w,b
  2686  000254  0D01               	mullw	1
  2687  000256  0E40               	movlw	64
  2688  000258  24F3               	addwf	prodl,w,c
  2689  00025A  6ED9               	movwf	fsr2l,c
  2690  00025C  0E05               	movlw	5
  2691  00025E  20F4               	addwfc	prodh,w,c
  2692  000260  6EDA               	movwf	fsr2h,c
  2693  000262  C0DA  FFDF         	movff	APP_DeviceCustomHIDTasks@pot_861,indf2
  2694                           
  2695                           ; BSR set to: 0
  2696                           ;app_device_custom_hid.c: 164: ToSendDataBuffer[i+1] = pot >> 8;
  2697  000266  0100               	movlb	0	; () banked
  2698  000268  51E1               	movf	APP_DeviceCustomHIDTasks@i_859& (0+255),w,b
  2699  00026A  0100               	movlb	0	; () banked
  2700  00026C  6FD5               	movwf	??_APP_DeviceCustomHIDTasks& (0+255),b
  2701  00026E  6BD6               	clrf	(??_APP_DeviceCustomHIDTasks+1)& (0+255),b
  2702  000270  0E01               	movlw	1
  2703  000272  0100               	movlb	0	; () banked
  2704  000274  27D5               	addwf	??_APP_DeviceCustomHIDTasks& (0+255),f,b
  2705  000276  0E00               	movlw	0
  2706  000278  23D6               	addwfc	(??_APP_DeviceCustomHIDTasks+1)& (0+255),f,b
  2707  00027A  0E40               	movlw	64
  2708  00027C  0100               	movlb	0	; () banked
  2709  00027E  25D5               	addwf	??_APP_DeviceCustomHIDTasks& (0+255),w,b
  2710  000280  6ED9               	movwf	fsr2l,c
  2711  000282  0E05               	movlw	5
  2712  000284  0100               	movlb	0	; () banked
  2713  000286  21D6               	addwfc	(??_APP_DeviceCustomHIDTasks+1)& (0+255),w,b
  2714  000288  6EDA               	movwf	fsr2h,c
  2715  00028A  0100               	movlb	0	; () banked
  2716  00028C  51DB               	movf	(APP_DeviceCustomHIDTasks@pot_861+1)& (0+255),w,b
  2717  00028E  6EDF               	movwf	indf2,c
  2718                           
  2719                           ; BSR set to: 0
  2720  000290  0100               	movlb	0	; () banked
  2721  000292  51E1               	movf	APP_DeviceCustomHIDTasks@i_859& (0+255),w,b
  2722  000294  0F02               	addlw	2
  2723  000296  D7D1               	goto	L3
  2724  000298                     l6019:
  2725                           
  2726                           ; BSR set to: 0
  2727  000298  0E3E               	movlw	62
  2728  00029A  0100               	movlb	0	; () banked
  2729  00029C  65E1               	cpfsgt	APP_DeviceCustomHIDTasks@i_859& (0+255),b
  2730  00029E  D7D1               	goto	l6011
  2731  0002A0  D000               	goto	l6021
  2732  0002A2                     l6021:
  2733                           
  2734                           ; BSR set to: 0
  2735                           ;app_device_custom_hid.c: 165: }
  2736                           ;app_device_custom_hid.c: 166: USBInHandle = USBTransferOnePacket(1,1,(uint8_t*)&ToSendD
      +                          ataBuffer[0],64);
  2737  0002A2  0E01               	movlw	1
  2738  0002A4  0100               	movlb	0	; () banked
  2739  0002A6  6F60               	movwf	USBTransferOnePacket@dir& (0+255),b
  2740  0002A8  0E40               	movlw	64
  2741  0002AA  0100               	movlb	0	; () banked
  2742  0002AC  6F61               	movwf	USBTransferOnePacket@data& (0+255),b
  2743  0002AE  0E05               	movlw	5
  2744  0002B0  0100               	movlb	0	; () banked
  2745  0002B2  6F62               	movwf	(USBTransferOnePacket@data+1)& (0+255),b
  2746  0002B4  0E40               	movlw	64
  2747  0002B6  0100               	movlb	0	; () banked
  2748  0002B8  6F63               	movwf	USBTransferOnePacket@len& (0+255),b
  2749  0002BA  0E01               	movlw	1
  2750  0002BC  EC80  F00F         	call	_USBTransferOnePacket
  2751  0002C0  D02C               	goto	L4
  2752  0002C2                     l6023:
  2753                           
  2754                           ;app_device_custom_hid.c: 171: {
  2755                           ;app_device_custom_hid.c: 172: uint16_t pot;
  2756                           ;app_device_custom_hid.c: 175: if(!((USBInHandle != 0x0000) && ((*(volatile uint8_t*)USB
      +                          InHandle & 0x80) != 0x00)))
  2757  0002C2  0100               	movlb	0	; () banked
  2758  0002C4  51EA               	movf	_USBInHandle& (0+255),w,b
  2759  0002C6  0100               	movlb	0	; () banked
  2760  0002C8  11EB               	iorwf	(_USBInHandle+1)& (0+255),w,b
  2761  0002CA  B4D8               	btfsc	status,2,c
  2762  0002CC  D007               	goto	l6027
  2763                           
  2764                           ; BSR set to: 0
  2765  0002CE  C0EA  FFD9         	movff	_USBInHandle,fsr2l
  2766  0002D2  C0EB  FFDA         	movff	_USBInHandle+1,fsr2h
  2767  0002D6  0100               	movlb	0	; () banked
  2768  0002D8  BEDF               	btfsc	indf2,7,c
  2769  0002DA  D036               	goto	l6041
  2770  0002DC                     l6027:
  2771                           
  2772                           ; BSR set to: 0
  2773                           ;app_device_custom_hid.c: 176: {
  2774                           ;app_device_custom_hid.c: 182: pot = ADC_Read10bit(ADC_CHANNEL_0);
  2775  0002DC  0E00               	movlw	0
  2776  0002DE  EC84  F015         	call	_ADC_Read10bit
  2777  0002E2  C061  F0DC         	movff	?_ADC_Read10bit,APP_DeviceCustomHIDTasks@pot_862
  2778  0002E6  C062  F0DD         	movff	?_ADC_Read10bit+1,APP_DeviceCustomHIDTasks@pot_862+1
  2779                           
  2780                           ;app_device_custom_hid.c: 184: ToSendDataBuffer[0] = 0x37;
  2781  0002EA  0E37               	movlw	55
  2782  0002EC  0105               	movlb	5	; () banked
  2783  0002EE  6F40               	movwf	64,b
  2784                           
  2785                           ; BSR set to: 5
  2786                           ;app_device_custom_hid.c: 185: ToSendDataBuffer[1] = (uint8_t)pot;
  2787  0002F0  C0DC  F541         	movff	APP_DeviceCustomHIDTasks@pot_862,1345
  2788                           
  2789                           ; BSR set to: 5
  2790                           ;app_device_custom_hid.c: 186: ToSendDataBuffer[2] = pot >> 8;
  2791  0002F4  0100               	movlb	0	; () banked
  2792  0002F6  51DD               	movf	(APP_DeviceCustomHIDTasks@pot_862+1)& (0+255),w,b
  2793  0002F8  0105               	movlb	5	; () banked
  2794  0002FA  6F42               	movwf	66,b
  2795                           
  2796                           ; BSR set to: 5
  2797                           ;app_device_custom_hid.c: 190: USBInHandle = USBTransferOnePacket(1,1,(uint8_t*)&ToSendD
      +                          ataBuffer[0],64);
  2798  0002FC  0E01               	movlw	1
  2799  0002FE  0100               	movlb	0	; () banked
  2800  000300  6F60               	movwf	USBTransferOnePacket@dir& (0+255),b
  2801  000302  0E40               	movlw	64
  2802  000304  0100               	movlb	0	; () banked
  2803  000306  6F61               	movwf	USBTransferOnePacket@data& (0+255),b
  2804  000308  0E05               	movlw	5
  2805  00030A  0100               	movlb	0	; () banked
  2806  00030C  6F62               	movwf	(USBTransferOnePacket@data+1)& (0+255),b
  2807  00030E  0E40               	movlw	64
  2808  000310  0100               	movlb	0	; () banked
  2809  000312  6F63               	movwf	USBTransferOnePacket@len& (0+255),b
  2810  000314  0E01               	movlw	1
  2811  000316  EC80  F00F         	call	_USBTransferOnePacket
  2812  00031A                     L4:
  2813  00031A  C060  F0EA         	movff	?_USBTransferOnePacket,_USBInHandle
  2814  00031E  C061  F0EB         	movff	?_USBTransferOnePacket+1,_USBInHandle+1
  2815                           
  2816                           ;app_device_custom_hid.c: 194: }
  2817                           
  2818                           ;app_device_custom_hid.c: 191: }
  2819                           ;app_device_custom_hid.c: 192: }
  2820                           ;app_device_custom_hid.c: 193: break;
  2821  000322  D012               	goto	l6041
  2822  000324                     l6039:
  2823  000324  0105               	movlb	5	; () banked
  2824  000326  5100               	movf	0,w,b
  2825                           
  2826                           ; Switch size 1, requested type "space"
  2827                           ; Number of cases is 5, Range of values is 16 to 129
  2828                           ; switch strategies available:
  2829                           ; Name         Instructions Cycles
  2830                           ; simple_byte           16     9 (average)
  2831                           ;	Chosen strategy is simple_byte
  2832  000328  0A10               	xorlw	16	; case 16
  2833  00032A  B4D8               	btfsc	status,2,c
  2834  00032C  D6E0               	goto	l5971
  2835  00032E  0A01               	xorlw	1	; case 17
  2836  000330  B4D8               	btfsc	status,2,c
  2837  000332  D77F               	goto	l6005
  2838  000334  0A26               	xorlw	38	; case 55
  2839  000336  B4D8               	btfsc	status,2,c
  2840  000338  D7C4               	goto	l6023
  2841  00033A  0AB7               	xorlw	183	; case 128
  2842  00033C  B4D8               	btfsc	status,2,c
  2843  00033E  D6AF               	goto	l5961
  2844  000340  0A01               	xorlw	1	; case 129
  2845  000342  B4D8               	btfsc	status,2,c
  2846  000344  D6B3               	goto	l5963
  2847  000346  D000               	goto	l6041
  2848  000348                     l6041:
  2849                           
  2850                           ;app_device_custom_hid.c: 197: USBOutHandle = USBTransferOnePacket(1,0,(uint8_t*)&Receiv
      +                          edDataBuffer,64);
  2851  000348  0E00               	movlw	0
  2852  00034A  0100               	movlb	0	; () banked
  2853  00034C  6F60               	movwf	USBTransferOnePacket@dir& (0+255),b
  2854  00034E  0E00               	movlw	0
  2855  000350  0100               	movlb	0	; () banked
  2856  000352  6F61               	movwf	USBTransferOnePacket@data& (0+255),b
  2857  000354  0E05               	movlw	5
  2858  000356  0100               	movlb	0	; () banked
  2859  000358  6F62               	movwf	(USBTransferOnePacket@data+1)& (0+255),b
  2860  00035A  0E40               	movlw	64
  2861  00035C  0100               	movlb	0	; () banked
  2862  00035E  6F63               	movwf	USBTransferOnePacket@len& (0+255),b
  2863  000360  0E01               	movlw	1
  2864  000362  EC80  F00F         	call	_USBTransferOnePacket
  2865  000366  C060  F0EC         	movff	?_USBTransferOnePacket,_USBOutHandle
  2866  00036A  C061  F0ED         	movff	?_USBTransferOnePacket+1,_USBOutHandle+1
  2867  00036E  0012               	return	
  2868  000370  0012               	return		;funcret
  2869  000372                     __end_of_APP_DeviceCustomHIDTasks:
  2870                           	opt stack 0
  2871                           tblptru	equ	0xFF8
  2872                           prodh	equ	0xFF4
  2873                           prodl	equ	0xFF3
  2874                           intcon	equ	0xFF2
  2875                           postinc0	equ	0xFEE
  2876                           wreg	equ	0xFE8
  2877                           indf2	equ	0xFDF
  2878                           postinc2	equ	0xFDE
  2879                           postdec2	equ	0xFDD
  2880                           fsr2h	equ	0xFDA
  2881                           fsr2l	equ	0xFD9
  2882                           status	equ	0xFD8
  2883                           
  2884 ;; *************** function _pow *****************
  2885 ;; Defined at:
  2886 ;;		line 5 in file "C:\Program Files (x86)\Microchip\xc8\v1.34\sources\common\pow.c"
  2887 ;; Parameters:    Size  Location     Type
  2888 ;;  x               3  100[BANK0 ] unsigned char 
  2889 ;;  y               3  103[BANK0 ] unsigned char 
  2890 ;; Auto vars:     Size  Location     Type
  2891 ;;  yi              4  113[BANK0 ] unsigned long 
  2892 ;;  sign            1  112[BANK0 ] unsigned char 
  2893 ;; Return value:  Size  Location     Type
  2894 ;;                  3  100[BANK0 ] unsigned char 
  2895 ;; Registers used:
  2896 ;;		wreg, fsr2l, fsr2h, status,2, status,0, tblptrl, tblptrh, tblptru, prodl, prodh, cstack
  2897 ;; Tracked objects:
  2898 ;;		On entry : 0/0
  2899 ;;		On exit  : 0/0
  2900 ;;		Unchanged: 0/0
  2901 ;; Data sizes:     COMRAM   BANK0   BANK1   BANK2   BANK3   BANK4   BANK5   BANK6   BANK7
  2902 ;;      Params:         0       6       0       0       0       0       0       0       0
  2903 ;;      Locals:         0      11       0       0       0       0       0       0       0
  2904 ;;      Temps:          0       0       0       0       0       0       0       0       0
  2905 ;;      Totals:         0      17       0       0       0       0       0       0       0
  2906 ;;Total ram usage:       17 bytes
  2907 ;; Hardware stack levels used:    1
  2908 ;; Hardware stack levels required when called:   14
  2909 ;; This function calls:
  2910 ;;		___ftge
  2911 ;;		___ftmul
  2912 ;;		___ftneg
  2913 ;;		___fttol
  2914 ;;		___lltoft
  2915 ;;		_exp
  2916 ;;		_log
  2917 ;; This function is called by:
  2918 ;;		_APP_DeviceCustomHIDTasks
  2919 ;; This function uses a non-reentrant model
  2920 ;;
  2921                           
  2922                           	psect	text10
  2923  000AB8                     __ptext10:
  2924                           	opt stack 0
  2925  000AB8                     _pow:
  2926                           	opt stack 15
  2927                           
  2928                           ;incstack = 0
  2929  000AB8  0E00               	movlw	0
  2930  000ABA  0100               	movlb	0	; () banked
  2931  000ABC  6FD0               	movwf	pow@sign& (0+255),b
  2932                           
  2933                           ; BSR set to: 0
  2934  000ABE  0100               	movlb	0	; () banked
  2935  000AC0  51C4               	movf	pow@x& (0+255),w,b
  2936  000AC2  0100               	movlb	0	; () banked
  2937  000AC4  11C5               	iorwf	(pow@x+1)& (0+255),w,b
  2938  000AC6  0100               	movlb	0	; () banked
  2939  000AC8  11C6               	iorwf	(pow@x+2)& (0+255),w,b
  2940  000ACA  A4D8               	btfss	status,2,c
  2941  000ACC  D023               	goto	l5805
  2942                           
  2943                           ; BSR set to: 0
  2944  000ACE  0E00               	movlw	0
  2945  000AD0  0100               	movlb	0	; () banked
  2946  000AD2  6F60               	movwf	___ftge@ff1& (0+255),b
  2947  000AD4  0E00               	movlw	0
  2948  000AD6  0100               	movlb	0	; () banked
  2949  000AD8  6F61               	movwf	(___ftge@ff1+1)& (0+255),b
  2950  000ADA  0E00               	movlw	0
  2951  000ADC  0100               	movlb	0	; () banked
  2952  000ADE  6F62               	movwf	(___ftge@ff1+2)& (0+255),b
  2953  000AE0  C0C7  F063         	movff	pow@y,___ftge@ff2
  2954  000AE4  C0C8  F064         	movff	pow@y+1,___ftge@ff2+1
  2955  000AE8  C0C9  F065         	movff	pow@y+2,___ftge@ff2+2
  2956  000AEC  ECCD  F010         	call	___ftge	;wreg free
  2957  000AF0  0100               	movlb	0	; () banked
  2958  000AF2  A0D8               	btfss	status,0,c
  2959  000AF4  D005               	goto	l1298
  2960                           
  2961                           ; BSR set to: 0
  2962  000AF6  0E00               	movlw	0
  2963  000AF8  0100               	movlb	0	; () banked
  2964  000AFA  6FEF               	movwf	(_errno+1)& (0+255),b
  2965  000AFC  0E21               	movlw	33
  2966  000AFE  6FEE               	movwf	_errno& (0+255),b
  2967  000B00                     l1298:
  2968                           
  2969                           ; BSR set to: 0
  2970  000B00  0E00               	movlw	0
  2971  000B02  0100               	movlb	0	; () banked
  2972  000B04  6FC4               	movwf	?_pow& (0+255),b
  2973  000B06  0E00               	movlw	0
  2974  000B08  0100               	movlb	0	; () banked
  2975  000B0A  6FC5               	movwf	(?_pow+1)& (0+255),b
  2976  000B0C  0E00               	movlw	0
  2977  000B0E  0100               	movlb	0	; () banked
  2978  000B10  6FC6               	movwf	(?_pow+2)& (0+255),b
  2979                           
  2980                           ; BSR set to: 0
  2981  000B12  0012               	return	
  2982  000B14                     l5805:
  2983                           
  2984                           ; BSR set to: 0
  2985  000B14  0100               	movlb	0	; () banked
  2986  000B16  51C7               	movf	pow@y& (0+255),w,b
  2987  000B18  0100               	movlb	0	; () banked
  2988  000B1A  11C8               	iorwf	(pow@y+1)& (0+255),w,b
  2989  000B1C  0100               	movlb	0	; () banked
  2990  000B1E  11C9               	iorwf	(pow@y+2)& (0+255),w,b
  2991  000B20  A4D8               	btfss	status,2,c
  2992  000B22  D00A               	goto	l5811
  2993                           
  2994                           ; BSR set to: 0
  2995  000B24  0E00               	movlw	0
  2996  000B26  0100               	movlb	0	; () banked
  2997  000B28  6FC4               	movwf	?_pow& (0+255),b
  2998  000B2A  0E80               	movlw	128
  2999  000B2C  0100               	movlb	0	; () banked
  3000  000B2E  6FC5               	movwf	(?_pow+1)& (0+255),b
  3001  000B30  0E3F               	movlw	63
  3002  000B32  0100               	movlb	0	; () banked
  3003  000B34  6FC6               	movwf	(?_pow+2)& (0+255),b
  3004                           
  3005                           ; BSR set to: 0
  3006  000B36  0012               	return	
  3007  000B38                     l5811:
  3008                           
  3009                           ; BSR set to: 0
  3010  000B38  0100               	movlb	0	; () banked
  3011  000B3A  AFC6               	btfss	(pow@x+2)& (0+255),7,b
  3012  000B3C  D04D               	goto	l5823
  3013                           
  3014                           ; BSR set to: 0
  3015  000B3E  C0C7  F09A         	movff	pow@y,___fttol@f1
  3016  000B42  C0C8  F09B         	movff	pow@y+1,___fttol@f1+1
  3017  000B46  C0C9  F09C         	movff	pow@y+2,___fttol@f1+2
  3018  000B4A  EC49  F008         	call	___fttol	;wreg free
  3019  000B4E  C09A  F0D1         	movff	?___fttol,pow@yi
  3020  000B52  C09B  F0D2         	movff	?___fttol+1,pow@yi+1
  3021  000B56  C09C  F0D3         	movff	?___fttol+2,pow@yi+2
  3022  000B5A  C09D  F0D4         	movff	?___fttol+3,pow@yi+3
  3023  000B5E  C0D1  F068         	movff	pow@yi,___lltoft@c
  3024  000B62  C0D2  F069         	movff	pow@yi+1,___lltoft@c+1
  3025  000B66  C0D3  F06A         	movff	pow@yi+2,___lltoft@c+2
  3026  000B6A  C0D4  F06B         	movff	pow@yi+3,___lltoft@c+3
  3027  000B6E  EC44  F015         	call	___lltoft	;wreg free
  3028  000B72  0100               	movlb	0	; () banked
  3029  000B74  51C7               	movf	pow@y& (0+255),w,b
  3030  000B76  0100               	movlb	0	; () banked
  3031  000B78  1968               	xorwf	?___lltoft& (0+255),w,b
  3032  000B7A  E10B               	bnz	u5690
  3033  000B7C  0100               	movlb	0	; () banked
  3034  000B7E  51C8               	movf	(pow@y+1)& (0+255),w,b
  3035  000B80  0100               	movlb	0	; () banked
  3036  000B82  1969               	xorwf	(?___lltoft+1)& (0+255),w,b
  3037  000B84  E106               	bnz	u5690
  3038  000B86  0100               	movlb	0	; () banked
  3039  000B88  51C9               	movf	(pow@y+2)& (0+255),w,b
  3040  000B8A  0100               	movlb	0	; () banked
  3041  000B8C  196A               	xorwf	(?___lltoft+2)& (0+255),w,b
  3042  000B8E  B4D8               	btfsc	status,2,c
  3043  000B90  D00F               	goto	l5819
  3044  000B92                     u5690:
  3045                           
  3046                           ; BSR set to: 0
  3047  000B92  0E00               	movlw	0
  3048  000B94  0100               	movlb	0	; () banked
  3049  000B96  6FEF               	movwf	(_errno+1)& (0+255),b
  3050  000B98  0E21               	movlw	33
  3051  000B9A  6FEE               	movwf	_errno& (0+255),b
  3052  000B9C  0E00               	movlw	0
  3053  000B9E  0100               	movlb	0	; () banked
  3054  000BA0  6FC4               	movwf	?_pow& (0+255),b
  3055  000BA2  0E00               	movlw	0
  3056  000BA4  0100               	movlb	0	; () banked
  3057  000BA6  6FC5               	movwf	(?_pow+1)& (0+255),b
  3058  000BA8  0E00               	movlw	0
  3059  000BAA  0100               	movlb	0	; () banked
  3060  000BAC  6FC6               	movwf	(?_pow+2)& (0+255),b
  3061                           
  3062                           ; BSR set to: 0
  3063  000BAE  0012               	return	
  3064  000BB0                     l5819:
  3065                           
  3066                           ; BSR set to: 0
  3067  000BB0  0100               	movlb	0	; () banked
  3068  000BB2  51D1               	movf	pow@yi& (0+255),w,b
  3069  000BB4  0B01               	andlw	1
  3070  000BB6  0100               	movlb	0	; () banked
  3071  000BB8  6FD0               	movwf	pow@sign& (0+255),b
  3072                           
  3073                           ; BSR set to: 0
  3074  000BBA  C0C4  F060         	movff	pow@x,___ftneg@f1
  3075  000BBE  C0C5  F061         	movff	pow@x+1,___ftneg@f1+1
  3076  000BC2  C0C6  F062         	movff	pow@x+2,___ftneg@f1+2
  3077  000BC6  ECC0  F017         	call	___ftneg	;wreg free
  3078  000BCA  C060  F0C4         	movff	?___ftneg,pow@x
  3079  000BCE  C061  F0C5         	movff	?___ftneg+1,pow@x+1
  3080  000BD2  C062  F0C6         	movff	?___ftneg+2,pow@x+2
  3081  000BD6  D000               	goto	l5823
  3082  000BD8                     l5823:
  3083  000BD8  C0C4  F0A6         	movff	pow@x,log@x
  3084  000BDC  C0C5  F0A7         	movff	pow@x+1,log@x+1
  3085  000BE0  C0C6  F0A8         	movff	pow@x+2,log@x+2
  3086  000BE4  ECA0  F007         	call	_log	;wreg free
  3087  000BE8  C0A6  F0CA         	movff	?_log,_pow$3085
  3088  000BEC  C0A7  F0CB         	movff	?_log+1,_pow$3085+1
  3089  000BF0  C0A8  F0CC         	movff	?_log+2,_pow$3085+2
  3090  000BF4  C0CA  F070         	movff	_pow$3085,___ftmul@f1
  3091  000BF8  C0CB  F071         	movff	_pow$3085+1,___ftmul@f1+1
  3092  000BFC  C0CC  F072         	movff	_pow$3085+2,___ftmul@f1+2
  3093  000C00  C0C7  F073         	movff	pow@y,___ftmul@f2
  3094  000C04  C0C8  F074         	movff	pow@y+1,___ftmul@f2+1
  3095  000C08  C0C9  F075         	movff	pow@y+2,___ftmul@f2+2
  3096  000C0C  EC37  F006         	call	___ftmul	;wreg free
  3097  000C10  C070  F0CD         	movff	?___ftmul,_pow$3086
  3098  000C14  C071  F0CE         	movff	?___ftmul+1,_pow$3086+1
  3099  000C18  C072  F0CF         	movff	?___ftmul+2,_pow$3086+2
  3100  000C1C  C0CD  F0BB         	movff	_pow$3086,exp@x
  3101  000C20  C0CE  F0BC         	movff	_pow$3086+1,exp@x+1
  3102  000C24  C0CF  F0BD         	movff	_pow$3086+2,exp@x+2
  3103  000C28  EC3F  F004         	call	_exp	;wreg free
  3104  000C2C  C0BB  F0C4         	movff	?_exp,pow@x
  3105  000C30  C0BC  F0C5         	movff	?_exp+1,pow@x+1
  3106  000C34  C0BD  F0C6         	movff	?_exp+2,pow@x+2
  3107  000C38  0100               	movlb	0	; () banked
  3108  000C3A  51D0               	movf	pow@sign& (0+255),w,b
  3109  000C3C  0100               	movlb	0	; () banked
  3110  000C3E  B4D8               	btfsc	status,2,c
  3111  000C40  D00F               	goto	l1303
  3112                           
  3113                           ; BSR set to: 0
  3114  000C42  C0C4  F060         	movff	pow@x,___ftneg@f1
  3115  000C46  C0C5  F061         	movff	pow@x+1,___ftneg@f1+1
  3116  000C4A  C0C6  F062         	movff	pow@x+2,___ftneg@f1+2
  3117  000C4E  ECC0  F017         	call	___ftneg	;wreg free
  3118  000C52  C060  F0C4         	movff	?___ftneg,?_pow
  3119  000C56  C061  F0C5         	movff	?___ftneg+1,?_pow+1
  3120  000C5A  C062  F0C6         	movff	?___ftneg+2,?_pow+2
  3121  000C5E  0012               	return	
  3122  000C60                     l1303:
  3123                           
  3124                           ; BSR set to: 0
  3125  000C60  C0C4  F0C4         	movff	pow@x,?_pow
  3126  000C64  C0C5  F0C5         	movff	pow@x+1,?_pow+1
  3127  000C68  C0C6  F0C6         	movff	pow@x+2,?_pow+2
  3128  000C6C  0012               	return		;funcret
  3129  000C6E                     __end_of_pow:
  3130                           	opt stack 0
  3131                           tblptru	equ	0xFF8
  3132                           prodh	equ	0xFF4
  3133                           prodl	equ	0xFF3
  3134                           intcon	equ	0xFF2
  3135                           postinc0	equ	0xFEE
  3136                           wreg	equ	0xFE8
  3137                           indf2	equ	0xFDF
  3138                           postinc2	equ	0xFDE
  3139                           postdec2	equ	0xFDD
  3140                           fsr2h	equ	0xFDA
  3141                           fsr2l	equ	0xFD9
  3142                           status	equ	0xFD8
  3143                           
  3144 ;; *************** function _log *****************
  3145 ;; Defined at:
  3146 ;;		line 5 in file "C:\Program Files (x86)\Microchip\xc8\v1.34\sources\common\log.c"
  3147 ;; Parameters:    Size  Location     Type
  3148 ;;  x               3   70[BANK0 ] unsigned char 
  3149 ;; Auto vars:     Size  Location     Type
  3150 ;;  exponent        2   73[BANK0 ] int 
  3151 ;; Return value:  Size  Location     Type
  3152 ;;                  3   70[BANK0 ] int 
  3153 ;; Registers used:
  3154 ;;		wreg, fsr2l, fsr2h, status,2, status,0, tblptrl, tblptrh, tblptru, prodl, prodh, cstack
  3155 ;; Tracked objects:
  3156 ;;		On entry : 0/0
  3157 ;;		On exit  : 0/0
  3158 ;;		Unchanged: 0/0
  3159 ;; Data sizes:     COMRAM   BANK0   BANK1   BANK2   BANK3   BANK4   BANK5   BANK6   BANK7
  3160 ;;      Params:         0       3       0       0       0       0       0       0       0
  3161 ;;      Locals:         0       2       0       0       0       0       0       0       0
  3162 ;;      Temps:          0       0       0       0       0       0       0       0       0
  3163 ;;      Totals:         0       5       0       0       0       0       0       0       0
  3164 ;;Total ram usage:        5 bytes
  3165 ;; Hardware stack levels used:    1
  3166 ;; Hardware stack levels required when called:   13
  3167 ;; This function calls:
  3168 ;;		___awtoft
  3169 ;;		___ftadd
  3170 ;;		___ftmul
  3171 ;;		_eval_poly
  3172 ;;		_frexp
  3173 ;; This function is called by:
  3174 ;;		_pow
  3175 ;; This function uses a non-reentrant model
  3176 ;;
  3177                           
  3178                           	psect	text11
  3179  000F40                     __ptext11:
  3180                           	opt stack 0
  3181  000F40                     _log:
  3182                           	opt stack 15
  3183                           
  3184                           ;incstack = 0
  3185  000F40  0100               	movlb	0	; () banked
  3186  000F42  AFA8               	btfss	(log@x+2)& (0+255),7,b
  3187  000F44  D00F               	goto	l5657
  3188                           
  3189                           ; BSR set to: 0
  3190  000F46  0E00               	movlw	0
  3191  000F48  0100               	movlb	0	; () banked
  3192  000F4A  6FEF               	movwf	(_errno+1)& (0+255),b
  3193  000F4C  0E21               	movlw	33
  3194  000F4E  6FEE               	movwf	_errno& (0+255),b
  3195  000F50  0E00               	movlw	0
  3196  000F52  0100               	movlb	0	; () banked
  3197  000F54  6FA6               	movwf	?_log& (0+255),b
  3198  000F56  0E00               	movlw	0
  3199  000F58  0100               	movlb	0	; () banked
  3200  000F5A  6FA7               	movwf	(?_log+1)& (0+255),b
  3201  000F5C  0E00               	movlw	0
  3202  000F5E  0100               	movlb	0	; () banked
  3203  000F60  6FA8               	movwf	(?_log+2)& (0+255),b
  3204                           
  3205                           ; BSR set to: 0
  3206  000F62  0012               	return	
  3207  000F64                     l5657:
  3208                           
  3209                           ; BSR set to: 0
  3210  000F64  0100               	movlb	0	; () banked
  3211  000F66  51A6               	movf	log@x& (0+255),w,b
  3212  000F68  0100               	movlb	0	; () banked
  3213  000F6A  11A7               	iorwf	(log@x+1)& (0+255),w,b
  3214  000F6C  0100               	movlb	0	; () banked
  3215  000F6E  11A8               	iorwf	(log@x+2)& (0+255),w,b
  3216  000F70  A4D8               	btfss	status,2,c
  3217  000F72  D00F               	goto	l5663
  3218                           
  3219                           ; BSR set to: 0
  3220  000F74  0E00               	movlw	0
  3221  000F76  0100               	movlb	0	; () banked
  3222  000F78  6FEF               	movwf	(_errno+1)& (0+255),b
  3223  000F7A  0E22               	movlw	34
  3224  000F7C  6FEE               	movwf	_errno& (0+255),b
  3225  000F7E  0E00               	movlw	0
  3226  000F80  0100               	movlb	0	; () banked
  3227  000F82  6FA6               	movwf	?_log& (0+255),b
  3228  000F84  0E00               	movlw	0
  3229  000F86  0100               	movlb	0	; () banked
  3230  000F88  6FA7               	movwf	(?_log+1)& (0+255),b
  3231  000F8A  0E00               	movlw	0
  3232  000F8C  0100               	movlb	0	; () banked
  3233  000F8E  6FA8               	movwf	(?_log+2)& (0+255),b
  3234                           
  3235                           ; BSR set to: 0
  3236  000F90  0012               	return	
  3237  000F92                     l5663:
  3238                           
  3239                           ; BSR set to: 0
  3240  000F92  0E00               	movlw	0
  3241  000F94  0100               	movlb	0	; () banked
  3242  000F96  6F73               	movwf	___ftmul@f2& (0+255),b
  3243  000F98  0E00               	movlw	0
  3244  000F9A  0100               	movlb	0	; () banked
  3245  000F9C  6F74               	movwf	(___ftmul@f2+1)& (0+255),b
  3246  000F9E  0E40               	movlw	64
  3247  000FA0  0100               	movlb	0	; () banked
  3248  000FA2  6F75               	movwf	(___ftmul@f2+2)& (0+255),b
  3249  000FA4  0EA9               	movlw	low log@exponent
  3250  000FA6  0100               	movlb	0	; () banked
  3251  000FA8  6F63               	movwf	frexp@eptr& (0+255),b
  3252  000FAA  0E00               	movlw	high log@exponent
  3253  000FAC  0100               	movlb	0	; () banked
  3254  000FAE  6F64               	movwf	(frexp@eptr+1)& (0+255),b
  3255  000FB0  C0A6  F060         	movff	log@x,frexp@value
  3256  000FB4  C0A7  F061         	movff	log@x+1,frexp@value+1
  3257  000FB8  C0A8  F062         	movff	log@x+2,frexp@value+2
  3258  000FBC  ECB0  F012         	call	_frexp	;wreg free
  3259  000FC0  C060  F070         	movff	?_frexp,___ftmul@f1
  3260  000FC4  C061  F071         	movff	?_frexp+1,___ftmul@f1+1
  3261  000FC8  C062  F072         	movff	?_frexp+2,___ftmul@f1+2
  3262  000FCC  EC37  F006         	call	___ftmul	;wreg free
  3263  000FD0  C070  F08E         	movff	?___ftmul,___ftadd@f1
  3264  000FD4  C071  F08F         	movff	?___ftmul+1,___ftadd@f1+1
  3265  000FD8  C072  F090         	movff	?___ftmul+2,___ftadd@f1+2
  3266  000FDC  0E00               	movlw	0
  3267  000FDE  0100               	movlb	0	; () banked
  3268  000FE0  6F91               	movwf	___ftadd@f2& (0+255),b
  3269  000FE2  0E80               	movlw	128
  3270  000FE4  0100               	movlb	0	; () banked
  3271  000FE6  6F92               	movwf	(___ftadd@f2+1)& (0+255),b
  3272  000FE8  0EBF               	movlw	191
  3273  000FEA  0100               	movlb	0	; () banked
  3274  000FEC  6F93               	movwf	(___ftadd@f2+2)& (0+255),b
  3275  000FEE  EC00  F003         	call	___ftadd	;wreg free
  3276  000FF2  C08E  F0A6         	movff	?___ftadd,log@x
  3277  000FF6  C08F  F0A7         	movff	?___ftadd+1,log@x+1
  3278  000FFA  C090  F0A8         	movff	?___ftadd+2,log@x+2
  3279  000FFE  0100               	movlb	0	; () banked
  3280  001000  07A9               	decf	log@exponent& (0+255),f,b
  3281  001002  A0D8               	btfss	status,0,c
  3282  001004  07AA               	decf	(log@exponent+1)& (0+255),f,b
  3283                           
  3284                           ; BSR set to: 0
  3285  001006  C0A6  F09A         	movff	log@x,eval_poly@x
  3286  00100A  C0A7  F09B         	movff	log@x+1,eval_poly@x+1
  3287  00100E  C0A8  F09C         	movff	log@x+2,eval_poly@x+2
  3288  001012  0ECD               	movlw	low log@coeff
  3289  001014  0100               	movlb	0	; () banked
  3290  001016  6F9D               	movwf	eval_poly@d& (0+255),b
  3291  001018  0E7F               	movlw	high log@coeff
  3292  00101A  0100               	movlb	0	; () banked
  3293  00101C  6F9E               	movwf	(eval_poly@d+1)& (0+255),b
  3294  00101E  0E00               	movlw	0
  3295  001020  0100               	movlb	0	; () banked
  3296  001022  6FA0               	movwf	(eval_poly@n+1)& (0+255),b
  3297  001024  0E08               	movlw	8
  3298  001026  6F9F               	movwf	eval_poly@n& (0+255),b
  3299  001028  EC98  F00E         	call	_eval_poly	;wreg free
  3300  00102C  C09A  F0A6         	movff	?_eval_poly,log@x
  3301  001030  C09B  F0A7         	movff	?_eval_poly+1,log@x+1
  3302  001034  C09C  F0A8         	movff	?_eval_poly+2,log@x+2
  3303  001038  0E72               	movlw	114
  3304  00103A  0100               	movlb	0	; () banked
  3305  00103C  6F73               	movwf	___ftmul@f2& (0+255),b
  3306  00103E  0E31               	movlw	49
  3307  001040  0100               	movlb	0	; () banked
  3308  001042  6F74               	movwf	(___ftmul@f2+1)& (0+255),b
  3309  001044  0E3F               	movlw	63
  3310  001046  0100               	movlb	0	; () banked
  3311  001048  6F75               	movwf	(___ftmul@f2+2)& (0+255),b
  3312  00104A  C0A9  F068         	movff	log@exponent,___awtoft@c
  3313  00104E  C0AA  F069         	movff	log@exponent+1,___awtoft@c+1
  3314  001052  EC9B  F016         	call	___awtoft	;wreg free
  3315  001056  C068  F070         	movff	?___awtoft,___ftmul@f1
  3316  00105A  C069  F071         	movff	?___awtoft+1,___ftmul@f1+1
  3317  00105E  C06A  F072         	movff	?___awtoft+2,___ftmul@f1+2
  3318  001062  EC37  F006         	call	___ftmul	;wreg free
  3319  001066  C070  F08E         	movff	?___ftmul,___ftadd@f1
  3320  00106A  C071  F08F         	movff	?___ftmul+1,___ftadd@f1+1
  3321  00106E  C072  F090         	movff	?___ftmul+2,___ftadd@f1+2
  3322  001072  C0A6  F091         	movff	log@x,___ftadd@f2
  3323  001076  C0A7  F092         	movff	log@x+1,___ftadd@f2+1
  3324  00107A  C0A8  F093         	movff	log@x+2,___ftadd@f2+2
  3325  00107E  EC00  F003         	call	___ftadd	;wreg free
  3326  001082  C08E  F0A6         	movff	?___ftadd,?_log
  3327  001086  C08F  F0A7         	movff	?___ftadd+1,?_log+1
  3328  00108A  C090  F0A8         	movff	?___ftadd+2,?_log+2
  3329  00108E  0012               	return	
  3330  001090  0012               	return		;funcret
  3331  001092                     __end_of_log:
  3332                           	opt stack 0
  3333                           tblptru	equ	0xFF8
  3334                           prodh	equ	0xFF4
  3335                           prodl	equ	0xFF3
  3336                           intcon	equ	0xFF2
  3337                           postinc0	equ	0xFEE
  3338                           wreg	equ	0xFE8
  3339                           indf2	equ	0xFDF
  3340                           postinc2	equ	0xFDE
  3341                           postdec2	equ	0xFDD
  3342                           fsr2h	equ	0xFDA
  3343                           fsr2l	equ	0xFD9
  3344                           status	equ	0xFD8
  3345                           
  3346 ;; *************** function _exp *****************
  3347 ;; Defined at:
  3348 ;;		line 12 in file "C:\Program Files (x86)\Microchip\xc8\v1.34\sources\common\exp.c"
  3349 ;; Parameters:    Size  Location     Type
  3350 ;;  x               3   91[BANK0 ] int 
  3351 ;; Auto vars:     Size  Location     Type
  3352 ;;  exponent        2   97[BANK0 ] int 
  3353 ;;  sign            1   99[BANK0 ] unsigned char 
  3354 ;; Return value:  Size  Location     Type
  3355 ;;                  3   91[BANK0 ] unsigned char 
  3356 ;; Registers used:
  3357 ;;		wreg, fsr2l, fsr2h, status,2, status,0, tblptrl, tblptrh, tblptru, prodl, prodh, cstack
  3358 ;; Tracked objects:
  3359 ;;		On entry : 0/0
  3360 ;;		On exit  : 0/0
  3361 ;;		Unchanged: 0/0
  3362 ;; Data sizes:     COMRAM   BANK0   BANK1   BANK2   BANK3   BANK4   BANK5   BANK6   BANK7
  3363 ;;      Params:         0       3       0       0       0       0       0       0       0
  3364 ;;      Locals:         0       6       0       0       0       0       0       0       0
  3365 ;;      Temps:          0       0       0       0       0       0       0       0       0
  3366 ;;      Totals:         0       9       0       0       0       0       0       0       0
  3367 ;;Total ram usage:        9 bytes
  3368 ;; Hardware stack levels used:    1
  3369 ;; Hardware stack levels required when called:   13
  3370 ;; This function calls:
  3371 ;;		___awtoft
  3372 ;;		___ftdiv
  3373 ;;		___ftge
  3374 ;;		___ftmul
  3375 ;;		___ftneg
  3376 ;;		___ftsub
  3377 ;;		___fttol
  3378 ;;		_eval_poly
  3379 ;;		_floor
  3380 ;;		_ldexp
  3381 ;; This function is called by:
  3382 ;;		_pow
  3383 ;; This function uses a non-reentrant model
  3384 ;;
  3385                           
  3386                           	psect	text12
  3387  00087E                     __ptext12:
  3388                           	opt stack 0
  3389  00087E                     _exp:
  3390                           	opt stack 15
  3391                           
  3392                           ;incstack = 0
  3393  00087E  0100               	movlb	0	; () banked
  3394  000880  51BB               	movf	exp@x& (0+255),w,b
  3395  000882  0100               	movlb	0	; () banked
  3396  000884  11BC               	iorwf	(exp@x+1)& (0+255),w,b
  3397  000886  0100               	movlb	0	; () banked
  3398  000888  11BD               	iorwf	(exp@x+2)& (0+255),w,b
  3399  00088A  A4D8               	btfss	status,2,c
  3400  00088C  D00A               	goto	l5679
  3401                           
  3402                           ; BSR set to: 0
  3403  00088E  0E00               	movlw	0
  3404  000890  0100               	movlb	0	; () banked
  3405  000892  6FBB               	movwf	?_exp& (0+255),b
  3406  000894  0E80               	movlw	128
  3407  000896  0100               	movlb	0	; () banked
  3408  000898  6FBC               	movwf	(?_exp+1)& (0+255),b
  3409  00089A  0E3F               	movlw	63
  3410  00089C  0100               	movlb	0	; () banked
  3411  00089E  6FBD               	movwf	(?_exp+2)& (0+255),b
  3412                           
  3413                           ; BSR set to: 0
  3414  0008A0  0012               	return	
  3415  0008A2                     l5679:
  3416                           
  3417                           ; BSR set to: 0
  3418  0008A2  0E72               	movlw	114
  3419  0008A4  0100               	movlb	0	; () banked
  3420  0008A6  6F60               	movwf	___ftge@ff1& (0+255),b
  3421  0008A8  0E31               	movlw	49
  3422  0008AA  0100               	movlb	0	; () banked
  3423  0008AC  6F61               	movwf	(___ftge@ff1+1)& (0+255),b
  3424  0008AE  0E44               	movlw	68
  3425  0008B0  0100               	movlb	0	; () banked
  3426  0008B2  6F62               	movwf	(___ftge@ff1+2)& (0+255),b
  3427  0008B4  C0BB  F063         	movff	exp@x,___ftge@ff2
  3428  0008B8  C0BC  F064         	movff	exp@x+1,___ftge@ff2+1
  3429  0008BC  C0BD  F065         	movff	exp@x+2,___ftge@ff2+2
  3430  0008C0  ECCD  F010         	call	___ftge	;wreg free
  3431  0008C4  0100               	movlb	0	; () banked
  3432  0008C6  B0D8               	btfsc	status,0,c
  3433  0008C8  D00F               	goto	l5685
  3434                           
  3435                           ; BSR set to: 0
  3436  0008CA  0E00               	movlw	0
  3437  0008CC  0100               	movlb	0	; () banked
  3438  0008CE  6FEF               	movwf	(_errno+1)& (0+255),b
  3439  0008D0  0E22               	movlw	34
  3440  0008D2  6FEE               	movwf	_errno& (0+255),b
  3441  0008D4  0EFF               	movlw	255
  3442  0008D6  0100               	movlb	0	; () banked
  3443  0008D8  6FBB               	movwf	?_exp& (0+255),b
  3444  0008DA  0E7F               	movlw	127
  3445  0008DC  0100               	movlb	0	; () banked
  3446  0008DE  6FBC               	movwf	(?_exp+1)& (0+255),b
  3447  0008E0  0E7F               	movlw	127
  3448  0008E2  0100               	movlb	0	; () banked
  3449  0008E4  6FBD               	movwf	(?_exp+2)& (0+255),b
  3450                           
  3451                           ; BSR set to: 0
  3452  0008E6  0012               	return	
  3453  0008E8                     l5685:
  3454                           
  3455                           ; BSR set to: 0
  3456  0008E8  C0BB  F060         	movff	exp@x,___ftge@ff1
  3457  0008EC  C0BC  F061         	movff	exp@x+1,___ftge@ff1+1
  3458  0008F0  C0BD  F062         	movff	exp@x+2,___ftge@ff1+2
  3459  0008F4  0E49               	movlw	73
  3460  0008F6  0100               	movlb	0	; () banked
  3461  0008F8  6F63               	movwf	___ftge@ff2& (0+255),b
  3462  0008FA  0E3A               	movlw	58
  3463  0008FC  0100               	movlb	0	; () banked
  3464  0008FE  6F64               	movwf	(___ftge@ff2+1)& (0+255),b
  3465  000900  0EC4               	movlw	196
  3466  000902  0100               	movlb	0	; () banked
  3467  000904  6F65               	movwf	(___ftge@ff2+2)& (0+255),b
  3468  000906  ECCD  F010         	call	___ftge	;wreg free
  3469  00090A  0100               	movlb	0	; () banked
  3470  00090C  B0D8               	btfsc	status,0,c
  3471  00090E  D00F               	goto	l5691
  3472                           
  3473                           ; BSR set to: 0
  3474  000910  0E00               	movlw	0
  3475  000912  0100               	movlb	0	; () banked
  3476  000914  6FEF               	movwf	(_errno+1)& (0+255),b
  3477  000916  0E22               	movlw	34
  3478  000918  6FEE               	movwf	_errno& (0+255),b
  3479  00091A  0E00               	movlw	0
  3480  00091C  0100               	movlb	0	; () banked
  3481  00091E  6FBB               	movwf	?_exp& (0+255),b
  3482  000920  0E00               	movlw	0
  3483  000922  0100               	movlb	0	; () banked
  3484  000924  6FBC               	movwf	(?_exp+1)& (0+255),b
  3485  000926  0E00               	movlw	0
  3486  000928  0100               	movlb	0	; () banked
  3487  00092A  6FBD               	movwf	(?_exp+2)& (0+255),b
  3488                           
  3489                           ; BSR set to: 0
  3490  00092C  0012               	return	
  3491  00092E                     l5691:
  3492                           
  3493                           ; BSR set to: 0
  3494  00092E  0100               	movlb	0	; () banked
  3495  000930  AFBD               	btfss	(exp@x+2)& (0+255),7,b
  3496  000932  D002               	goto	u5550
  3497  000934  0E01               	movlw	1
  3498  000936  D001               	goto	u5560
  3499  000938                     u5550:
  3500  000938  0E00               	movlw	0
  3501  00093A                     u5560:
  3502  00093A  0100               	movlb	0	; () banked
  3503  00093C  6FC3               	movwf	exp@sign& (0+255),b
  3504                           
  3505                           ; BSR set to: 0
  3506  00093E  0100               	movlb	0	; () banked
  3507  000940  51C3               	movf	exp@sign& (0+255),w,b
  3508  000942  0100               	movlb	0	; () banked
  3509  000944  B4D8               	btfsc	status,2,c
  3510  000946  D00E               	goto	l1322
  3511                           
  3512                           ; BSR set to: 0
  3513  000948  C0BB  F060         	movff	exp@x,___ftneg@f1
  3514  00094C  C0BC  F061         	movff	exp@x+1,___ftneg@f1+1
  3515  000950  C0BD  F062         	movff	exp@x+2,___ftneg@f1+2
  3516  000954  ECC0  F017         	call	___ftneg	;wreg free
  3517  000958  C060  F0BB         	movff	?___ftneg,exp@x
  3518  00095C  C061  F0BC         	movff	?___ftneg+1,exp@x+1
  3519  000960  C062  F0BD         	movff	?___ftneg+2,exp@x+2
  3520  000964                     l1322:
  3521  000964  C0BB  F070         	movff	exp@x,___ftmul@f1
  3522  000968  C0BC  F071         	movff	exp@x+1,___ftmul@f1+1
  3523  00096C  C0BD  F072         	movff	exp@x+2,___ftmul@f1+2
  3524  000970  0EAA               	movlw	170
  3525  000972  0100               	movlb	0	; () banked
  3526  000974  6F73               	movwf	___ftmul@f2& (0+255),b
  3527  000976  0EB8               	movlw	184
  3528  000978  0100               	movlb	0	; () banked
  3529  00097A  6F74               	movwf	(___ftmul@f2+1)& (0+255),b
  3530  00097C  0E3F               	movlw	63
  3531  00097E  0100               	movlb	0	; () banked
  3532  000980  6F75               	movwf	(___ftmul@f2+2)& (0+255),b
  3533  000982  EC37  F006         	call	___ftmul	;wreg free
  3534  000986  C070  F0BB         	movff	?___ftmul,exp@x
  3535  00098A  C071  F0BC         	movff	?___ftmul+1,exp@x+1
  3536  00098E  C072  F0BD         	movff	?___ftmul+2,exp@x+2
  3537  000992  C0BB  F0B3         	movff	exp@x,floor@x
  3538  000996  C0BC  F0B4         	movff	exp@x+1,floor@x+1
  3539  00099A  C0BD  F0B5         	movff	exp@x+2,floor@x+2
  3540  00099E  EC22  F00D         	call	_floor	;wreg free
  3541  0009A2  C0B3  F0BE         	movff	?_floor,_exp$3087
  3542  0009A6  C0B4  F0BF         	movff	?_floor+1,_exp$3087+1
  3543  0009AA  C0B5  F0C0         	movff	?_floor+2,_exp$3087+2
  3544  0009AE  C0BE  F09A         	movff	_exp$3087,___fttol@f1
  3545  0009B2  C0BF  F09B         	movff	_exp$3087+1,___fttol@f1+1
  3546  0009B6  C0C0  F09C         	movff	_exp$3087+2,___fttol@f1+2
  3547  0009BA  EC49  F008         	call	___fttol	;wreg free
  3548  0009BE  C09A  F0C1         	movff	?___fttol,exp@exponent
  3549  0009C2  C09B  F0C2         	movff	?___fttol+1,exp@exponent+1
  3550  0009C6  C0BB  F09A         	movff	exp@x,___ftsub@f1
  3551  0009CA  C0BC  F09B         	movff	exp@x+1,___ftsub@f1+1
  3552  0009CE  C0BD  F09C         	movff	exp@x+2,___ftsub@f1+2
  3553  0009D2  C0C1  F068         	movff	exp@exponent,___awtoft@c
  3554  0009D6  C0C2  F069         	movff	exp@exponent+1,___awtoft@c+1
  3555  0009DA  EC9B  F016         	call	___awtoft	;wreg free
  3556  0009DE  C068  F09D         	movff	?___awtoft,___ftsub@f2
  3557  0009E2  C069  F09E         	movff	?___awtoft+1,___ftsub@f2+1
  3558  0009E6  C06A  F09F         	movff	?___awtoft+2,___ftsub@f2+2
  3559  0009EA  EC73  F016         	call	___ftsub	;wreg free
  3560  0009EE  C09A  F0BB         	movff	?___ftsub,exp@x
  3561  0009F2  C09B  F0BC         	movff	?___ftsub+1,exp@x+1
  3562  0009F6  C09C  F0BD         	movff	?___ftsub+2,exp@x+2
  3563  0009FA  C0BB  F09A         	movff	exp@x,eval_poly@x
  3564  0009FE  C0BC  F09B         	movff	exp@x+1,eval_poly@x+1
  3565  000A02  C0BD  F09C         	movff	exp@x+2,eval_poly@x+2
  3566  000A06  0E92               	movlw	low exp@coeff
  3567  000A08  0100               	movlb	0	; () banked
  3568  000A0A  6F9D               	movwf	eval_poly@d& (0+255),b
  3569  000A0C  0E7F               	movlw	high exp@coeff
  3570  000A0E  0100               	movlb	0	; () banked
  3571  000A10  6F9E               	movwf	(eval_poly@d+1)& (0+255),b
  3572  000A12  0E00               	movlw	0
  3573  000A14  0100               	movlb	0	; () banked
  3574  000A16  6FA0               	movwf	(eval_poly@n+1)& (0+255),b
  3575  000A18  0E09               	movlw	9
  3576  000A1A  6F9F               	movwf	eval_poly@n& (0+255),b
  3577  000A1C  EC98  F00E         	call	_eval_poly	;wreg free
  3578  000A20  C09A  F0A6         	movff	?_eval_poly,ldexp@value
  3579  000A24  C09B  F0A7         	movff	?_eval_poly+1,ldexp@value+1
  3580  000A28  C09C  F0A8         	movff	?_eval_poly+2,ldexp@value+2
  3581  000A2C  C0C1  F0A9         	movff	exp@exponent,ldexp@newexp
  3582  000A30  C0C2  F0AA         	movff	exp@exponent+1,ldexp@newexp+1
  3583  000A34  ECE3  F00A         	call	_ldexp	;wreg free
  3584  000A38  C0A6  F0BB         	movff	?_ldexp,exp@x
  3585  000A3C  C0A7  F0BC         	movff	?_ldexp+1,exp@x+1
  3586  000A40  C0A8  F0BD         	movff	?_ldexp+2,exp@x+2
  3587  000A44  0100               	movlb	0	; () banked
  3588  000A46  51C3               	movf	exp@sign& (0+255),w,b
  3589  000A48  0100               	movlb	0	; () banked
  3590  000A4A  B4D8               	btfsc	status,2,c
  3591  000A4C  D02E               	goto	l1323
  3592                           
  3593                           ; BSR set to: 0
  3594  000A4E  0100               	movlb	0	; () banked
  3595  000A50  29BB               	incf	exp@x& (0+255),w,b
  3596  000A52  E113               	bnz	l5713
  3597  000A54  0E7F               	movlw	127
  3598  000A56  0100               	movlb	0	; () banked
  3599  000A58  19BC               	xorwf	(exp@x+1)& (0+255),w,b
  3600  000A5A  E10F               	bnz	l5713
  3601  000A5C  0E7F               	movlw	127
  3602  000A5E  0100               	movlb	0	; () banked
  3603  000A60  19BD               	xorwf	(exp@x+2)& (0+255),w,b
  3604  000A62  A4D8               	btfss	status,2,c
  3605  000A64  D00A               	goto	l5713
  3606                           
  3607                           ; BSR set to: 0
  3608  000A66  0E00               	movlw	0
  3609  000A68  0100               	movlb	0	; () banked
  3610  000A6A  6FBB               	movwf	?_exp& (0+255),b
  3611  000A6C  0E00               	movlw	0
  3612  000A6E  0100               	movlb	0	; () banked
  3613  000A70  6FBC               	movwf	(?_exp+1)& (0+255),b
  3614  000A72  0E00               	movlw	0
  3615  000A74  0100               	movlb	0	; () banked
  3616  000A76  6FBD               	movwf	(?_exp+2)& (0+255),b
  3617                           
  3618                           ; BSR set to: 0
  3619  000A78  0012               	return	
  3620  000A7A                     l5713:
  3621                           
  3622                           ; BSR set to: 0
  3623  000A7A  0E00               	movlw	0
  3624  000A7C  0100               	movlb	0	; () banked
  3625  000A7E  6F7F               	movwf	___ftdiv@f1& (0+255),b
  3626  000A80  0E80               	movlw	128
  3627  000A82  0100               	movlb	0	; () banked
  3628  000A84  6F80               	movwf	(___ftdiv@f1+1)& (0+255),b
  3629  000A86  0E3F               	movlw	63
  3630  000A88  0100               	movlb	0	; () banked
  3631  000A8A  6F81               	movwf	(___ftdiv@f1+2)& (0+255),b
  3632  000A8C  C0BB  F082         	movff	exp@x,___ftdiv@f2
  3633  000A90  C0BC  F083         	movff	exp@x+1,___ftdiv@f2+1
  3634  000A94  C0BD  F084         	movff	exp@x+2,___ftdiv@f2+2
  3635  000A98  ECF2  F008         	call	___ftdiv	;wreg free
  3636  000A9C  C07F  F0BB         	movff	?___ftdiv,?_exp
  3637  000AA0  C080  F0BC         	movff	?___ftdiv+1,?_exp+1
  3638  000AA4  C081  F0BD         	movff	?___ftdiv+2,?_exp+2
  3639  000AA8  0012               	return	
  3640  000AAA                     l1323:
  3641                           
  3642                           ; BSR set to: 0
  3643  000AAA  C0BB  F0BB         	movff	exp@x,?_exp
  3644  000AAE  C0BC  F0BC         	movff	exp@x+1,?_exp+1
  3645  000AB2  C0BD  F0BD         	movff	exp@x+2,?_exp+2
  3646  000AB6  0012               	return		;funcret
  3647  000AB8                     __end_of_exp:
  3648                           	opt stack 0
  3649                           tblptru	equ	0xFF8
  3650                           prodh	equ	0xFF4
  3651                           prodl	equ	0xFF3
  3652                           intcon	equ	0xFF2
  3653                           postinc0	equ	0xFEE
  3654                           wreg	equ	0xFE8
  3655                           indf2	equ	0xFDF
  3656                           postinc2	equ	0xFDE
  3657                           postdec2	equ	0xFDD
  3658                           fsr2h	equ	0xFDA
  3659                           fsr2l	equ	0xFD9
  3660                           status	equ	0xFD8
  3661                           
  3662 ;; *************** function _ldexp *****************
  3663 ;; Defined at:
  3664 ;;		line 277 in file "C:\Program Files (x86)\Microchip\xc8\v1.34\sources\common\frexp.c"
  3665 ;; Parameters:    Size  Location     Type
  3666 ;;  value           3   70[BANK0 ] unsigned char 
  3667 ;;  newexp          2   73[BANK0 ] int 
  3668 ;; Auto vars:     Size  Location     Type
  3669 ;;		None
  3670 ;; Return value:  Size  Location     Type
  3671 ;;                  3   70[BANK0 ] int 
  3672 ;; Registers used:
  3673 ;;		wreg, status,2, status,0
  3674 ;; Tracked objects:
  3675 ;;		On entry : 0/0
  3676 ;;		On exit  : 0/0
  3677 ;;		Unchanged: 0/0
  3678 ;; Data sizes:     COMRAM   BANK0   BANK1   BANK2   BANK3   BANK4   BANK5   BANK6   BANK7
  3679 ;;      Params:         0       5       0       0       0       0       0       0       0
  3680 ;;      Locals:         0       0       0       0       0       0       0       0       0
  3681 ;;      Temps:          0       2       0       0       0       0       0       0       0
  3682 ;;      Totals:         0       7       0       0       0       0       0       0       0
  3683 ;;Total ram usage:        7 bytes
  3684 ;; Hardware stack levels used:    1
  3685 ;; Hardware stack levels required when called:   10
  3686 ;; This function calls:
  3687 ;;		Nothing
  3688 ;; This function is called by:
  3689 ;;		_exp
  3690 ;; This function uses a non-reentrant model
  3691 ;;
  3692                           
  3693                           	psect	text13
  3694  0015C6                     __ptext13:
  3695                           	opt stack 0
  3696  0015C6                     _ldexp:
  3697                           	opt stack 17
  3698                           
  3699                           ;incstack = 0
  3700  0015C6  0100               	movlb	0	; () banked
  3701  0015C8  51A6               	movf	ldexp@value& (0+255),w,b
  3702  0015CA  0100               	movlb	0	; () banked
  3703  0015CC  11A7               	iorwf	(ldexp@value+1)& (0+255),w,b
  3704  0015CE  0100               	movlb	0	; () banked
  3705  0015D0  11A8               	iorwf	(ldexp@value+2)& (0+255),w,b
  3706  0015D2  A4D8               	btfss	status,2,c
  3707  0015D4  D00A               	goto	l4461
  3708                           
  3709                           ; BSR set to: 0
  3710  0015D6  0E00               	movlw	0
  3711  0015D8  0100               	movlb	0	; () banked
  3712  0015DA  6FA6               	movwf	?_ldexp& (0+255),b
  3713  0015DC  0E00               	movlw	0
  3714  0015DE  0100               	movlb	0	; () banked
  3715  0015E0  6FA7               	movwf	(?_ldexp+1)& (0+255),b
  3716  0015E2  0E00               	movlw	0
  3717  0015E4  0100               	movlb	0	; () banked
  3718  0015E6  6FA8               	movwf	(?_ldexp+2)& (0+255),b
  3719                           
  3720                           ; BSR set to: 0
  3721  0015E8  0012               	return	
  3722  0015EA                     l4461:
  3723                           
  3724                           ; BSR set to: 0
  3725  0015EA  0100               	movlb	0	; () banked
  3726  0015EC  51A8               	movf	(ldexp@value+2)& (0+255),w,b
  3727  0015EE  0B7F               	andlw	127
  3728  0015F0  0100               	movlb	0	; () banked
  3729  0015F2  6FAB               	movwf	??_ldexp& (0+255),b
  3730  0015F4  6BAC               	clrf	(??_ldexp+1)& (0+255),b
  3731  0015F6  90D8               	bcf	status,0,c
  3732  0015F8  0100               	movlb	0	; () banked
  3733  0015FA  37AB               	rlcf	??_ldexp& (0+255),f,b
  3734  0015FC  37AC               	rlcf	(??_ldexp+1)& (0+255),f,b
  3735  0015FE  0100               	movlb	0	; () banked
  3736  001600  51AB               	movf	??_ldexp& (0+255),w,b
  3737  001602  0100               	movlb	0	; () banked
  3738  001604  27A9               	addwf	ldexp@newexp& (0+255),f,b
  3739  001606  0100               	movlb	0	; () banked
  3740  001608  51AC               	movf	(??_ldexp+1)& (0+255),w,b
  3741  00160A  0100               	movlb	0	; () banked
  3742  00160C  23AA               	addwfc	(ldexp@newexp+1)& (0+255),f,b
  3743  00160E  0100               	movlb	0	; () banked
  3744  001610  AFA7               	btfss	(ldexp@value+1)& (0+255),7,b
  3745  001612  D004               	goto	u3940
  3746  001614  0100               	movlb	0	; () banked
  3747  001616  6BAB               	clrf	??_ldexp& (0+255),b
  3748  001618  2BAB               	incf	??_ldexp& (0+255),f,b
  3749  00161A  D002               	goto	u3948
  3750  00161C                     u3940:
  3751  00161C  0100               	movlb	0	; () banked
  3752  00161E  6BAB               	clrf	??_ldexp& (0+255),b
  3753  001620                     u3948:
  3754  001620  0100               	movlb	0	; () banked
  3755  001622  51AB               	movf	??_ldexp& (0+255),w,b
  3756  001624  0100               	movlb	0	; () banked
  3757  001626  27A9               	addwf	ldexp@newexp& (0+255),f,b
  3758  001628  0E00               	movlw	0
  3759  00162A  23AA               	addwfc	(ldexp@newexp+1)& (0+255),f,b
  3760  00162C  0100               	movlb	0	; () banked
  3761  00162E  AFAA               	btfss	(ldexp@newexp+1)& (0+255),7,b
  3762  001630  D010               	goto	l4469
  3763                           
  3764                           ; BSR set to: 0
  3765  001632  0E00               	movlw	0
  3766  001634  0100               	movlb	0	; () banked
  3767  001636  6FEF               	movwf	(_errno+1)& (0+255),b
  3768  001638  0E22               	movlw	34
  3769  00163A  6FEE               	movwf	_errno& (0+255),b
  3770  00163C  0E00               	movlw	0
  3771  00163E  0100               	movlb	0	; () banked
  3772  001640  6FA6               	movwf	?_ldexp& (0+255),b
  3773  001642  0E00               	movlw	0
  3774  001644  0100               	movlb	0	; () banked
  3775  001646  6FA7               	movwf	(?_ldexp+1)& (0+255),b
  3776  001648  0E00               	movlw	0
  3777  00164A                     L5:
  3778  00164A  0100               	movlb	0	; () banked
  3779  00164C  6FA8               	movwf	(?_ldexp+2)& (0+255),b
  3780                           
  3781                           ; BSR set to: 0
  3782  00164E  0012               	return	
  3783                           
  3784                           ; BSR set to: 0
  3785  001650  D045               	goto	l4487
  3786  001652                     l4469:
  3787                           
  3788                           ; BSR set to: 0
  3789  001652  0100               	movlb	0	; () banked
  3790  001654  BFAA               	btfsc	(ldexp@newexp+1)& (0+255),7,b
  3791  001656  D020               	goto	l4485
  3792  001658  0100               	movlb	0	; () banked
  3793  00165A  05AA               	decf	(ldexp@newexp+1)& (0+255),w,b
  3794  00165C  A0D8               	btfss	status,0,c
  3795  00165E  D01C               	goto	l4485
  3796                           
  3797                           ; BSR set to: 0
  3798  001660  0E00               	movlw	0
  3799  001662  0100               	movlb	0	; () banked
  3800  001664  6FEF               	movwf	(_errno+1)& (0+255),b
  3801  001666  0E22               	movlw	34
  3802  001668  6FEE               	movwf	_errno& (0+255),b
  3803                           
  3804                           ; BSR set to: 0
  3805  00166A  0100               	movlb	0	; () banked
  3806  00166C  AFA8               	btfss	(ldexp@value+2)& (0+255),7,b
  3807  00166E  D00A               	goto	l4481
  3808                           
  3809                           ; BSR set to: 0
  3810  001670  0EFF               	movlw	255
  3811  001672  0100               	movlb	0	; () banked
  3812  001674  6FA6               	movwf	?_ldexp& (0+255),b
  3813  001676  0E7F               	movlw	127
  3814  001678  0100               	movlb	0	; () banked
  3815  00167A  6FA7               	movwf	(?_ldexp+1)& (0+255),b
  3816  00167C  0EFF               	movlw	255
  3817  00167E  D7E5               	goto	L5
  3818                           
  3819                           ; BSR set to: 0
  3820  001680  0012               	return	
  3821                           
  3822                           ; BSR set to: 0
  3823  001682  D02C               	goto	l4487
  3824  001684                     l4481:
  3825                           
  3826                           ; BSR set to: 0
  3827  001684  0EFF               	movlw	255
  3828  001686  0100               	movlb	0	; () banked
  3829  001688  6FA6               	movwf	?_ldexp& (0+255),b
  3830  00168A  0E7F               	movlw	127
  3831  00168C  0100               	movlb	0	; () banked
  3832  00168E  6FA7               	movwf	(?_ldexp+1)& (0+255),b
  3833  001690  0E7F               	movlw	127
  3834  001692  D7DB               	goto	L5
  3835                           
  3836                           ; BSR set to: 0
  3837  001694  0012               	return	
  3838                           
  3839                           ; BSR set to: 0
  3840  001696  D022               	goto	l4487
  3841  001698                     l4485:
  3842                           
  3843                           ; BSR set to: 0
  3844  001698  0100               	movlb	0	; () banked
  3845  00169A  35AA               	rlcf	(ldexp@newexp+1)& (0+255),w,b
  3846  00169C  31AA               	rrcf	(ldexp@newexp+1)& (0+255),w,b
  3847  00169E  0100               	movlb	0	; () banked
  3848  0016A0  6FAC               	movwf	(??_ldexp+1)& (0+255),b
  3849  0016A2  0100               	movlb	0	; () banked
  3850  0016A4  31A9               	rrcf	ldexp@newexp& (0+255),w,b
  3851  0016A6  0100               	movlb	0	; () banked
  3852  0016A8  6FAB               	movwf	??_ldexp& (0+255),b
  3853  0016AA  0100               	movlb	0	; () banked
  3854  0016AC  51A8               	movf	(ldexp@value+2)& (0+255),w,b
  3855  0016AE  0100               	movlb	0	; () banked
  3856  0016B0  19AB               	xorwf	??_ldexp& (0+255),w,b
  3857  0016B2  0B80               	andlw	-128
  3858  0016B4  19AB               	xorwf	??_ldexp& (0+255),w,b
  3859  0016B6  0100               	movlb	0	; () banked
  3860  0016B8  6FA8               	movwf	(ldexp@value+2)& (0+255),b
  3861  0016BA  C0A9  F0AB         	movff	ldexp@newexp,??_ldexp
  3862  0016BE  0E01               	movlw	1
  3863  0016C0  0100               	movlb	0	; () banked
  3864  0016C2  17AB               	andwf	??_ldexp& (0+255),f,b
  3865  0016C4  0100               	movlb	0	; () banked
  3866  0016C6  33AB               	rrcf	??_ldexp& (0+255),f,b
  3867  0016C8  33AB               	rrcf	??_ldexp& (0+255),f,b
  3868  0016CA  0100               	movlb	0	; () banked
  3869  0016CC  51A7               	movf	(ldexp@value+1)& (0+255),w,b
  3870  0016CE  0100               	movlb	0	; () banked
  3871  0016D0  19AB               	xorwf	??_ldexp& (0+255),w,b
  3872  0016D2  0B7F               	andlw	-129
  3873  0016D4  19AB               	xorwf	??_ldexp& (0+255),w,b
  3874  0016D6  0100               	movlb	0	; () banked
  3875  0016D8  6FA7               	movwf	(ldexp@value+1)& (0+255),b
  3876                           
  3877                           ; BSR set to: 0
  3878  0016DA  D000               	goto	l4487
  3879  0016DC                     l4487:
  3880                           
  3881                           ; BSR set to: 0
  3882  0016DC  C0A6  F0A6         	movff	ldexp@value,?_ldexp
  3883  0016E0  C0A7  F0A7         	movff	ldexp@value+1,?_ldexp+1
  3884  0016E4  C0A8  F0A8         	movff	ldexp@value+2,?_ldexp+2
  3885  0016E8  0012               	return	
  3886                           
  3887                           ; BSR set to: 0
  3888                           
  3889                           ; BSR set to: 0
  3890  0016EA  0012               	return		;funcret
  3891  0016EC                     __end_of_ldexp:
  3892                           	opt stack 0
  3893                           tblptru	equ	0xFF8
  3894                           prodh	equ	0xFF4
  3895                           prodl	equ	0xFF3
  3896                           intcon	equ	0xFF2
  3897                           postinc0	equ	0xFEE
  3898                           wreg	equ	0xFE8
  3899                           indf2	equ	0xFDF
  3900                           postinc2	equ	0xFDE
  3901                           postdec2	equ	0xFDD
  3902                           fsr2h	equ	0xFDA
  3903                           fsr2l	equ	0xFD9
  3904                           status	equ	0xFD8
  3905                           
  3906 ;; *************** function _floor *****************
  3907 ;; Defined at:
  3908 ;;		line 13 in file "C:\Program Files (x86)\Microchip\xc8\v1.34\sources\common\floor.c"
  3909 ;; Parameters:    Size  Location     Type
  3910 ;;  x               3   83[BANK0 ] int 
  3911 ;; Auto vars:     Size  Location     Type
  3912 ;;  i               3   86[BANK0 ] int 
  3913 ;;  expon           2   89[BANK0 ] int 
  3914 ;; Return value:  Size  Location     Type
  3915 ;;                  3   83[BANK0 ] int 
  3916 ;; Registers used:
  3917 ;;		wreg, fsr2l, fsr2h, status,2, status,0, cstack
  3918 ;; Tracked objects:
  3919 ;;		On entry : 0/0
  3920 ;;		On exit  : 0/0
  3921 ;;		Unchanged: 0/0
  3922 ;; Data sizes:     COMRAM   BANK0   BANK1   BANK2   BANK3   BANK4   BANK5   BANK6   BANK7
  3923 ;;      Params:         0       3       0       0       0       0       0       0       0
  3924 ;;      Locals:         0       5       0       0       0       0       0       0       0
  3925 ;;      Temps:          0       0       0       0       0       0       0       0       0
  3926 ;;      Totals:         0       8       0       0       0       0       0       0       0
  3927 ;;Total ram usage:        8 bytes
  3928 ;; Hardware stack levels used:    1
  3929 ;; Hardware stack levels required when called:   12
  3930 ;; This function calls:
  3931 ;;		___altoft
  3932 ;;		___ftadd
  3933 ;;		___ftge
  3934 ;;		___fttol
  3935 ;;		_frexp
  3936 ;; This function is called by:
  3937 ;;		_exp
  3938 ;; This function uses a non-reentrant model
  3939 ;;
  3940                           
  3941                           	psect	text14
  3942  001A44                     __ptext14:
  3943                           	opt stack 0
  3944  001A44                     _floor:
  3945                           	opt stack 15
  3946                           
  3947                           ; BSR set to: 0
  3948                           ;incstack = 0
  3949  001A44  C0B3  F060         	movff	floor@x,frexp@value
  3950  001A48  C0B4  F061         	movff	floor@x+1,frexp@value+1
  3951  001A4C  C0B5  F062         	movff	floor@x+2,frexp@value+2
  3952  001A50  0EB9               	movlw	low floor@expon
  3953  001A52  0100               	movlb	0	; () banked
  3954  001A54  6F63               	movwf	frexp@eptr& (0+255),b
  3955  001A56  0E00               	movlw	high floor@expon
  3956  001A58  0100               	movlb	0	; () banked
  3957  001A5A  6F64               	movwf	(frexp@eptr+1)& (0+255),b
  3958  001A5C  ECB0  F012         	call	_frexp	;wreg free
  3959  001A60  0100               	movlb	0	; () banked
  3960  001A62  AFBA               	btfss	(floor@expon+1)& (0+255),7,b
  3961  001A64  D017               	goto	l5575
  3962                           
  3963                           ; BSR set to: 0
  3964  001A66  0100               	movlb	0	; () banked
  3965  001A68  AFB5               	btfss	(floor@x+2)& (0+255),7,b
  3966  001A6A  D00A               	goto	l5571
  3967                           
  3968                           ; BSR set to: 0
  3969  001A6C  0E00               	movlw	0
  3970  001A6E  0100               	movlb	0	; () banked
  3971  001A70  6FB3               	movwf	?_floor& (0+255),b
  3972  001A72  0E80               	movlw	128
  3973  001A74  0100               	movlb	0	; () banked
  3974  001A76  6FB4               	movwf	(?_floor+1)& (0+255),b
  3975  001A78  0EBF               	movlw	191
  3976  001A7A  0100               	movlb	0	; () banked
  3977  001A7C  6FB5               	movwf	(?_floor+2)& (0+255),b
  3978                           
  3979                           ; BSR set to: 0
  3980  001A7E  0012               	return	
  3981  001A80                     l5571:
  3982                           
  3983                           ; BSR set to: 0
  3984  001A80  0E00               	movlw	0
  3985  001A82  0100               	movlb	0	; () banked
  3986  001A84  6FB3               	movwf	?_floor& (0+255),b
  3987  001A86  0E00               	movlw	0
  3988  001A88  0100               	movlb	0	; () banked
  3989  001A8A  6FB4               	movwf	(?_floor+1)& (0+255),b
  3990  001A8C  0E00               	movlw	0
  3991  001A8E  0100               	movlb	0	; () banked
  3992  001A90  6FB5               	movwf	(?_floor+2)& (0+255),b
  3993                           
  3994                           ; BSR set to: 0
  3995  001A92  0012               	return	
  3996  001A94                     l5575:
  3997                           
  3998                           ; BSR set to: 0
  3999  001A94  0100               	movlb	0	; () banked
  4000  001A96  51BA               	movf	(floor@expon+1)& (0+255),w,b
  4001  001A98  E105               	bnz	u5420
  4002  001A9A  0E15               	movlw	21
  4003  001A9C  0100               	movlb	0	; () banked
  4004  001A9E  5DB9               	subwf	floor@expon& (0+255),w,b
  4005  001AA0  A0D8               	btfss	status,0,c
  4006  001AA2  D007               	goto	l5579
  4007  001AA4                     u5420:
  4008                           
  4009                           ; BSR set to: 0
  4010  001AA4  C0B3  F0B3         	movff	floor@x,?_floor
  4011  001AA8  C0B4  F0B4         	movff	floor@x+1,?_floor+1
  4012  001AAC  C0B5  F0B5         	movff	floor@x+2,?_floor+2
  4013  001AB0  0012               	return	
  4014  001AB2                     l5579:
  4015                           
  4016                           ; BSR set to: 0
  4017  001AB2  C0B3  F09A         	movff	floor@x,___fttol@f1
  4018  001AB6  C0B4  F09B         	movff	floor@x+1,___fttol@f1+1
  4019  001ABA  C0B5  F09C         	movff	floor@x+2,___fttol@f1+2
  4020  001ABE  EC49  F008         	call	___fttol	;wreg free
  4021  001AC2  C09A  F0A9         	movff	?___fttol,___altoft@c
  4022  001AC6  C09B  F0AA         	movff	?___fttol+1,___altoft@c+1
  4023  001ACA  C09C  F0AB         	movff	?___fttol+2,___altoft@c+2
  4024  001ACE  C09D  F0AC         	movff	?___fttol+3,___altoft@c+3
  4025  001AD2  EC07  F013         	call	___altoft	;wreg free
  4026  001AD6  C0A9  F0B6         	movff	?___altoft,floor@i
  4027  001ADA  C0AA  F0B7         	movff	?___altoft+1,floor@i+1
  4028  001ADE  C0AB  F0B8         	movff	?___altoft+2,floor@i+2
  4029  001AE2  C0B3  F060         	movff	floor@x,___ftge@ff1
  4030  001AE6  C0B4  F061         	movff	floor@x+1,___ftge@ff1+1
  4031  001AEA  C0B5  F062         	movff	floor@x+2,___ftge@ff1+2
  4032  001AEE  C0B6  F063         	movff	floor@i,___ftge@ff2
  4033  001AF2  C0B7  F064         	movff	floor@i+1,___ftge@ff2+1
  4034  001AF6  C0B8  F065         	movff	floor@i+2,___ftge@ff2+2
  4035  001AFA  ECCD  F010         	call	___ftge	;wreg free
  4036  001AFE  0100               	movlb	0	; () banked
  4037  001B00  B0D8               	btfsc	status,0,c
  4038  001B02  D018               	goto	l1333
  4039                           
  4040                           ; BSR set to: 0
  4041  001B04  C0B6  F08E         	movff	floor@i,___ftadd@f1
  4042  001B08  C0B7  F08F         	movff	floor@i+1,___ftadd@f1+1
  4043  001B0C  C0B8  F090         	movff	floor@i+2,___ftadd@f1+2
  4044  001B10  0E00               	movlw	0
  4045  001B12  0100               	movlb	0	; () banked
  4046  001B14  6F91               	movwf	___ftadd@f2& (0+255),b
  4047  001B16  0E80               	movlw	128
  4048  001B18  0100               	movlb	0	; () banked
  4049  001B1A  6F92               	movwf	(___ftadd@f2+1)& (0+255),b
  4050  001B1C  0EBF               	movlw	191
  4051  001B1E  0100               	movlb	0	; () banked
  4052  001B20  6F93               	movwf	(___ftadd@f2+2)& (0+255),b
  4053  001B22  EC00  F003         	call	___ftadd	;wreg free
  4054  001B26  C08E  F0B3         	movff	?___ftadd,?_floor
  4055  001B2A  C08F  F0B4         	movff	?___ftadd+1,?_floor+1
  4056  001B2E  C090  F0B5         	movff	?___ftadd+2,?_floor+2
  4057  001B32  0012               	return	
  4058  001B34                     l1333:
  4059                           
  4060                           ; BSR set to: 0
  4061  001B34  C0B6  F0B3         	movff	floor@i,?_floor
  4062  001B38  C0B7  F0B4         	movff	floor@i+1,?_floor+1
  4063  001B3C  C0B8  F0B5         	movff	floor@i+2,?_floor+2
  4064  001B40  0012               	return		;funcret
  4065  001B42                     __end_of_floor:
  4066                           	opt stack 0
  4067                           tblptru	equ	0xFF8
  4068                           prodh	equ	0xFF4
  4069                           prodl	equ	0xFF3
  4070                           intcon	equ	0xFF2
  4071                           postinc0	equ	0xFEE
  4072                           wreg	equ	0xFE8
  4073                           indf2	equ	0xFDF
  4074                           postinc2	equ	0xFDE
  4075                           postdec2	equ	0xFDD
  4076                           fsr2h	equ	0xFDA
  4077                           fsr2l	equ	0xFD9
  4078                           status	equ	0xFD8
  4079                           
  4080 ;; *************** function _frexp *****************
  4081 ;; Defined at:
  4082 ;;		line 254 in file "C:\Program Files (x86)\Microchip\xc8\v1.34\sources\common\frexp.c"
  4083 ;; Parameters:    Size  Location     Type
  4084 ;;  value           3    0[BANK0 ] int 
  4085 ;;  eptr            2    3[BANK0 ] PTR int 
  4086 ;;		 -> log@exponent(2), floor@expon(2), 
  4087 ;; Auto vars:     Size  Location     Type
  4088 ;;		None
  4089 ;; Return value:  Size  Location     Type
  4090 ;;                  3    0[BANK0 ] PTR int 
  4091 ;; Registers used:
  4092 ;;		wreg, fsr2l, fsr2h, status,2, status,0
  4093 ;; Tracked objects:
  4094 ;;		On entry : 0/0
  4095 ;;		On exit  : 0/0
  4096 ;;		Unchanged: 0/0
  4097 ;; Data sizes:     COMRAM   BANK0   BANK1   BANK2   BANK3   BANK4   BANK5   BANK6   BANK7
  4098 ;;      Params:         0       5       0       0       0       0       0       0       0
  4099 ;;      Locals:         0       0       0       0       0       0       0       0       0
  4100 ;;      Temps:          0       2       0       0       0       0       0       0       0
  4101 ;;      Totals:         0       7       0       0       0       0       0       0       0
  4102 ;;Total ram usage:        7 bytes
  4103 ;; Hardware stack levels used:    1
  4104 ;; Hardware stack levels required when called:   10
  4105 ;; This function calls:
  4106 ;;		Nothing
  4107 ;; This function is called by:
  4108 ;;		_floor
  4109 ;;		_log
  4110 ;; This function uses a non-reentrant model
  4111 ;;
  4112                           
  4113                           	psect	text15
  4114  002560                     __ptext15:
  4115                           	opt stack 0
  4116  002560                     _frexp:
  4117                           	opt stack 17
  4118                           
  4119                           ;incstack = 0
  4120  002560  0100               	movlb	0	; () banked
  4121  002562  5160               	movf	frexp@value& (0+255),w,b
  4122  002564  0100               	movlb	0	; () banked
  4123  002566  1161               	iorwf	(frexp@value+1)& (0+255),w,b
  4124  002568  0100               	movlb	0	; () banked
  4125  00256A  1162               	iorwf	(frexp@value+2)& (0+255),w,b
  4126  00256C  A4D8               	btfss	status,2,c
  4127  00256E  D012               	goto	l5467
  4128                           
  4129                           ; BSR set to: 0
  4130  002570  C063  FFD9         	movff	frexp@eptr,fsr2l
  4131  002574  C064  FFDA         	movff	frexp@eptr+1,fsr2h
  4132  002578  0E00               	movlw	0
  4133  00257A  6EDE               	movwf	postinc2,c
  4134  00257C  0E00               	movlw	0
  4135  00257E  6EDD               	movwf	postdec2,c
  4136                           
  4137                           ; BSR set to: 0
  4138  002580  0E00               	movlw	0
  4139  002582  0100               	movlb	0	; () banked
  4140  002584  6F60               	movwf	?_frexp& (0+255),b
  4141  002586  0E00               	movlw	0
  4142  002588  0100               	movlb	0	; () banked
  4143  00258A  6F61               	movwf	(?_frexp+1)& (0+255),b
  4144  00258C  0E00               	movlw	0
  4145  00258E  0100               	movlb	0	; () banked
  4146  002590  6F62               	movwf	(?_frexp+2)& (0+255),b
  4147                           
  4148                           ; BSR set to: 0
  4149  002592  0012               	return	
  4150  002594                     l5467:
  4151                           
  4152                           ; BSR set to: 0
  4153  002594  0100               	movlb	0	; () banked
  4154  002596  5162               	movf	(frexp@value+2)& (0+255),w,b
  4155  002598  0B7F               	andlw	127
  4156  00259A  0100               	movlb	0	; () banked
  4157  00259C  6F65               	movwf	??_frexp& (0+255),b
  4158  00259E  6B66               	clrf	(??_frexp+1)& (0+255),b
  4159  0025A0  90D8               	bcf	status,0,c
  4160  0025A2  0100               	movlb	0	; () banked
  4161  0025A4  3765               	rlcf	??_frexp& (0+255),f,b
  4162  0025A6  3766               	rlcf	(??_frexp+1)& (0+255),f,b
  4163  0025A8  C063  FFD9         	movff	frexp@eptr,fsr2l
  4164  0025AC  C064  FFDA         	movff	frexp@eptr+1,fsr2h
  4165  0025B0  C065  FFDE         	movff	??_frexp,postinc2
  4166  0025B4  C066  FFDD         	movff	??_frexp+1,postdec2
  4167  0025B8  0100               	movlb	0	; () banked
  4168  0025BA  AF61               	btfss	(frexp@value+1)& (0+255),7,b
  4169  0025BC  D004               	goto	u5310
  4170  0025BE  0100               	movlb	0	; () banked
  4171  0025C0  6B65               	clrf	??_frexp& (0+255),b
  4172  0025C2  2B65               	incf	??_frexp& (0+255),f,b
  4173  0025C4  D002               	goto	u5318
  4174  0025C6                     u5310:
  4175  0025C6  0100               	movlb	0	; () banked
  4176  0025C8  6B65               	clrf	??_frexp& (0+255),b
  4177  0025CA                     u5318:
  4178  0025CA  0100               	movlb	0	; () banked
  4179  0025CC  5165               	movf	??_frexp& (0+255),w,b
  4180  0025CE  C063  FFD9         	movff	frexp@eptr,fsr2l
  4181  0025D2  C064  FFDA         	movff	frexp@eptr+1,fsr2h
  4182  0025D6  12DE               	iorwf	postinc2,f,c
  4183  0025D8  0E00               	movlw	0
  4184  0025DA  12DD               	iorwf	postdec2,f,c
  4185                           
  4186                           ; BSR set to: 0
  4187  0025DC  C063  FFD9         	movff	frexp@eptr,fsr2l
  4188  0025E0  C064  FFDA         	movff	frexp@eptr+1,fsr2h
  4189  0025E4  0E82               	movlw	130
  4190  0025E6  26DE               	addwf	postinc2,f,c
  4191  0025E8  0EFF               	movlw	255
  4192  0025EA  22DD               	addwfc	postdec2,f,c
  4193                           
  4194                           ; BSR set to: 0
  4195  0025EC  8162               	bsf	(frexp@value+2)& (0+255),0,b
  4196  0025EE  8362               	bsf	(frexp@value+2)& (0+255),1,b
  4197  0025F0  8562               	bsf	(frexp@value+2)& (0+255),2,b
  4198  0025F2  8762               	bsf	(frexp@value+2)& (0+255),3,b
  4199  0025F4  8962               	bsf	(frexp@value+2)& (0+255),4,b
  4200  0025F6  8B62               	bsf	(frexp@value+2)& (0+255),5,b
  4201  0025F8  9D62               	bcf	(frexp@value+2)& (0+255),6,b
  4202                           
  4203                           ; BSR set to: 0
  4204  0025FA  0100               	movlb	0	; () banked
  4205  0025FC  9F61               	bcf	(frexp@value+1)& (0+255),7,b
  4206                           
  4207                           ; BSR set to: 0
  4208  0025FE  C060  F060         	movff	frexp@value,?_frexp
  4209  002602  C061  F061         	movff	frexp@value+1,?_frexp+1
  4210  002606  C062  F062         	movff	frexp@value+2,?_frexp+2
  4211  00260A  0012               	return	
  4212                           
  4213                           ; BSR set to: 0
  4214                           
  4215                           ; BSR set to: 0
  4216  00260C  0012               	return		;funcret
  4217  00260E                     __end_of_frexp:
  4218                           	opt stack 0
  4219                           tblptru	equ	0xFF8
  4220                           prodh	equ	0xFF4
  4221                           prodl	equ	0xFF3
  4222                           intcon	equ	0xFF2
  4223                           postinc0	equ	0xFEE
  4224                           wreg	equ	0xFE8
  4225                           indf2	equ	0xFDF
  4226                           postinc2	equ	0xFDE
  4227                           postdec2	equ	0xFDD
  4228                           fsr2h	equ	0xFDA
  4229                           fsr2l	equ	0xFD9
  4230                           status	equ	0xFD8
  4231                           
  4232 ;; *************** function ___fttol *****************
  4233 ;; Defined at:
  4234 ;;		line 44 in file "C:\Program Files (x86)\Microchip\xc8\v1.34\sources\common\fttol.c"
  4235 ;; Parameters:    Size  Location     Type
  4236 ;;  f1              3   58[BANK0 ] float 
  4237 ;; Auto vars:     Size  Location     Type
  4238 ;;  lval            4   68[BANK0 ] unsigned long 
  4239 ;;  exp1            1   72[BANK0 ] unsigned char 
  4240 ;;  sign1           1   67[BANK0 ] unsigned char 
  4241 ;; Return value:  Size  Location     Type
  4242 ;;                  4   58[BANK0 ] long 
  4243 ;; Registers used:
  4244 ;;		wreg, status,2, status,0
  4245 ;; Tracked objects:
  4246 ;;		On entry : 0/0
  4247 ;;		On exit  : 0/0
  4248 ;;		Unchanged: 0/0
  4249 ;; Data sizes:     COMRAM   BANK0   BANK1   BANK2   BANK3   BANK4   BANK5   BANK6   BANK7
  4250 ;;      Params:         0       4       0       0       0       0       0       0       0
  4251 ;;      Locals:         0       6       0       0       0       0       0       0       0
  4252 ;;      Temps:          0       5       0       0       0       0       0       0       0
  4253 ;;      Totals:         0      15       0       0       0       0       0       0       0
  4254 ;;Total ram usage:       15 bytes
  4255 ;; Hardware stack levels used:    1
  4256 ;; Hardware stack levels required when called:   10
  4257 ;; This function calls:
  4258 ;;		Nothing
  4259 ;; This function is called by:
  4260 ;;		_APP_DeviceCustomHIDTasks
  4261 ;;		_pow
  4262 ;;		_exp
  4263 ;;		_floor
  4264 ;; This function uses a non-reentrant model
  4265 ;;
  4266                           
  4267                           	psect	text16
  4268  001092                     __ptext16:
  4269                           	opt stack 0
  4270  001092                     ___fttol:
  4271                           	opt stack 16
  4272                           
  4273                           ; BSR set to: 0
  4274                           ;incstack = 0
  4275  001092  C09C  F09E         	movff	___fttol@f1+2,??___fttol
  4276  001096  0100               	movlb	0	; () banked
  4277  001098  6B9F               	clrf	(??___fttol+1)& (0+255),b
  4278  00109A  6BA0               	clrf	(??___fttol+2)& (0+255),b
  4279  00109C  0100               	movlb	0	; () banked
  4280  00109E  359B               	rlcf	(___fttol@f1+1)& (0+255),w,b
  4281  0010A0  0100               	movlb	0	; () banked
  4282  0010A2  379E               	rlcf	??___fttol& (0+255),f,b
  4283  0010A4  E301               	bnc	u3571
  4284  0010A6  819F               	bsf	(??___fttol+1)& (0+255),0,b
  4285  0010A8                     u3571:
  4286  0010A8  0100               	movlb	0	; () banked
  4287  0010AA  519E               	movf	??___fttol& (0+255),w,b
  4288  0010AC  0100               	movlb	0	; () banked
  4289  0010AE  6FA8               	movwf	___fttol@exp1& (0+255),b
  4290  0010B0  0100               	movlb	0	; () banked
  4291  0010B2  51A8               	movf	___fttol@exp1& (0+255),w,b
  4292  0010B4  A4D8               	btfss	status,2,c
  4293  0010B6  D00A               	goto	l4151
  4294                           
  4295                           ; BSR set to: 0
  4296  0010B8  0E00               	movlw	0
  4297  0010BA  0100               	movlb	0	; () banked
  4298  0010BC  6F9A               	movwf	?___fttol& (0+255),b
  4299  0010BE  0E00               	movlw	0
  4300  0010C0  6F9B               	movwf	(?___fttol+1)& (0+255),b
  4301  0010C2  0E00               	movlw	0
  4302  0010C4  6F9C               	movwf	(?___fttol+2)& (0+255),b
  4303  0010C6  0E00               	movlw	0
  4304  0010C8  6F9D               	movwf	(?___fttol+3)& (0+255),b
  4305                           
  4306                           ; BSR set to: 0
  4307  0010CA  0012               	return	
  4308  0010CC                     l4151:
  4309                           
  4310                           ; BSR set to: 0
  4311  0010CC  0E17               	movlw	23
  4312  0010CE  0100               	movlb	0	; () banked
  4313  0010D0  6F9E               	movwf	??___fttol& (0+255),b
  4314  0010D2  C09A  F09F         	movff	___fttol@f1,??___fttol+1
  4315  0010D6  C09B  F0A0         	movff	___fttol@f1+1,??___fttol+2
  4316  0010DA  C09C  F0A1         	movff	___fttol@f1+2,??___fttol+3
  4317  0010DE  0100               	movlb	0	; () banked
  4318  0010E0  299E               	incf	??___fttol& (0+255),w,b
  4319  0010E2  0100               	movlb	0	; () banked
  4320  0010E4  6FA2               	movwf	(??___fttol+4)& (0+255),b
  4321  0010E6  D005               	goto	u3590
  4322  0010E8                     u3595:
  4323  0010E8  0100               	movlb	0	; () banked
  4324  0010EA  90D8               	bcf	status,0,c
  4325  0010EC  33A1               	rrcf	(??___fttol+3)& (0+255),f,b
  4326  0010EE  33A0               	rrcf	(??___fttol+2)& (0+255),f,b
  4327  0010F0  339F               	rrcf	(??___fttol+1)& (0+255),f,b
  4328  0010F2                     u3590:
  4329  0010F2  0100               	movlb	0	; () banked
  4330  0010F4  2FA2               	decfsz	(??___fttol+4)& (0+255),f,b
  4331  0010F6  D7F8               	goto	u3595
  4332  0010F8  0100               	movlb	0	; () banked
  4333  0010FA  519F               	movf	(??___fttol+1)& (0+255),w,b
  4334  0010FC  0100               	movlb	0	; () banked
  4335  0010FE  6FA3               	movwf	___fttol@sign1& (0+255),b
  4336                           
  4337                           ; BSR set to: 0
  4338  001100  0100               	movlb	0	; () banked
  4339  001102  8F9B               	bsf	(___fttol@f1+1)& (0+255),7,b
  4340                           
  4341                           ; BSR set to: 0
  4342  001104  0EFF               	movlw	255
  4343  001106  0100               	movlb	0	; () banked
  4344  001108  179A               	andwf	___fttol@f1& (0+255),f,b
  4345  00110A  0EFF               	movlw	255
  4346  00110C  0100               	movlb	0	; () banked
  4347  00110E  179B               	andwf	(___fttol@f1+1)& (0+255),f,b
  4348  001110  0E00               	movlw	0
  4349  001112  0100               	movlb	0	; () banked
  4350  001114  179C               	andwf	(___fttol@f1+2)& (0+255),f,b
  4351                           
  4352                           ; BSR set to: 0
  4353  001116  0100               	movlb	0	; () banked
  4354  001118  519A               	movf	___fttol@f1& (0+255),w,b
  4355  00111A  0100               	movlb	0	; () banked
  4356  00111C  6FA4               	movwf	___fttol@lval& (0+255),b
  4357  00111E  0100               	movlb	0	; () banked
  4358  001120  519B               	movf	(___fttol@f1+1)& (0+255),w,b
  4359  001122  0100               	movlb	0	; () banked
  4360  001124  6FA5               	movwf	(___fttol@lval+1)& (0+255),b
  4361  001126  0100               	movlb	0	; () banked
  4362  001128  519C               	movf	(___fttol@f1+2)& (0+255),w,b
  4363  00112A  0100               	movlb	0	; () banked
  4364  00112C  6FA6               	movwf	(___fttol@lval+2)& (0+255),b
  4365  00112E  0100               	movlb	0	; () banked
  4366  001130  6BA7               	clrf	(___fttol@lval+3)& (0+255),b
  4367                           
  4368                           ; BSR set to: 0
  4369  001132  0E8E               	movlw	142
  4370  001134  0100               	movlb	0	; () banked
  4371  001136  5FA8               	subwf	___fttol@exp1& (0+255),f,b
  4372                           
  4373                           ; BSR set to: 0
  4374  001138  0100               	movlb	0	; () banked
  4375  00113A  AFA8               	btfss	___fttol@exp1& (0+255),7,b
  4376  00113C  D01B               	goto	l4173
  4377                           
  4378                           ; BSR set to: 0
  4379  00113E  0100               	movlb	0	; () banked
  4380  001140  51A8               	movf	___fttol@exp1& (0+255),w,b
  4381  001142  0A80               	xorlw	128
  4382  001144  0F8F               	addlw	143
  4383  001146  B0D8               	btfsc	status,0,c
  4384  001148  D00B               	goto	l4169
  4385                           
  4386                           ; BSR set to: 0
  4387  00114A  0E00               	movlw	0
  4388  00114C  0100               	movlb	0	; () banked
  4389  00114E  6F9A               	movwf	?___fttol& (0+255),b
  4390  001150  0E00               	movlw	0
  4391  001152  6F9B               	movwf	(?___fttol+1)& (0+255),b
  4392  001154  0E00               	movlw	0
  4393  001156  6F9C               	movwf	(?___fttol+2)& (0+255),b
  4394  001158  0E00               	movlw	0
  4395  00115A  6F9D               	movwf	(?___fttol+3)& (0+255),b
  4396                           
  4397                           ; BSR set to: 0
  4398  00115C  0012               	return	
  4399                           
  4400                           ; BSR set to: 0
  4401  00115E  D000               	goto	l4169
  4402  001160                     l4169:
  4403                           
  4404                           ; BSR set to: 0
  4405  001160  0100               	movlb	0	; () banked
  4406  001162  90D8               	bcf	status,0,c
  4407  001164  33A7               	rrcf	(___fttol@lval+3)& (0+255),f,b
  4408  001166  33A6               	rrcf	(___fttol@lval+2)& (0+255),f,b
  4409  001168  33A5               	rrcf	(___fttol@lval+1)& (0+255),f,b
  4410  00116A  33A4               	rrcf	___fttol@lval& (0+255),f,b
  4411                           
  4412                           ; BSR set to: 0
  4413  00116C  0100               	movlb	0	; () banked
  4414  00116E  3FA8               	incfsz	___fttol@exp1& (0+255),f,b
  4415  001170  D7F7               	goto	l4169
  4416                           
  4417                           ; BSR set to: 0
  4418  001172  D01F               	goto	l4183
  4419  001174                     l4173:
  4420                           
  4421                           ; BSR set to: 0
  4422  001174  0E17               	movlw	23
  4423  001176  0100               	movlb	0	; () banked
  4424  001178  65A8               	cpfsgt	___fttol@exp1& (0+255),b
  4425  00117A  D014               	goto	l4181
  4426                           
  4427                           ; BSR set to: 0
  4428  00117C  0E00               	movlw	0
  4429  00117E  0100               	movlb	0	; () banked
  4430  001180  6F9A               	movwf	?___fttol& (0+255),b
  4431  001182  0E00               	movlw	0
  4432  001184  6F9B               	movwf	(?___fttol+1)& (0+255),b
  4433  001186  0E00               	movlw	0
  4434  001188  6F9C               	movwf	(?___fttol+2)& (0+255),b
  4435  00118A  0E00               	movlw	0
  4436  00118C  6F9D               	movwf	(?___fttol+3)& (0+255),b
  4437                           
  4438                           ; BSR set to: 0
  4439  00118E  0012               	return	
  4440                           
  4441                           ; BSR set to: 0
  4442  001190  D009               	goto	l4181
  4443  001192                     l4179:
  4444                           
  4445                           ; BSR set to: 0
  4446  001192  0100               	movlb	0	; () banked
  4447  001194  90D8               	bcf	status,0,c
  4448  001196  37A4               	rlcf	___fttol@lval& (0+255),f,b
  4449  001198  37A5               	rlcf	(___fttol@lval+1)& (0+255),f,b
  4450  00119A  37A6               	rlcf	(___fttol@lval+2)& (0+255),f,b
  4451  00119C  37A7               	rlcf	(___fttol@lval+3)& (0+255),f,b
  4452  00119E  0100               	movlb	0	; () banked
  4453  0011A0  07A8               	decf	___fttol@exp1& (0+255),f,b
  4454  0011A2  D000               	goto	l4181
  4455  0011A4                     l4181:
  4456                           
  4457                           ; BSR set to: 0
  4458  0011A4  0100               	movlb	0	; () banked
  4459  0011A6  51A8               	movf	___fttol@exp1& (0+255),w,b
  4460  0011A8  0100               	movlb	0	; () banked
  4461  0011AA  B4D8               	btfsc	status,2,c
  4462  0011AC  D002               	goto	l4183
  4463  0011AE  D7F1               	goto	l4179
  4464                           
  4465                           ; BSR set to: 0
  4466  0011B0  D000               	goto	l4183
  4467  0011B2                     l4183:
  4468                           
  4469                           ; BSR set to: 0
  4470  0011B2  0100               	movlb	0	; () banked
  4471  0011B4  51A3               	movf	___fttol@sign1& (0+255),w,b
  4472  0011B6  0100               	movlb	0	; () banked
  4473  0011B8  B4D8               	btfsc	status,2,c
  4474  0011BA  D00A               	goto	l4187
  4475                           
  4476                           ; BSR set to: 0
  4477  0011BC  0100               	movlb	0	; () banked
  4478  0011BE  1FA7               	comf	(___fttol@lval+3)& (0+255),f,b
  4479  0011C0  1FA6               	comf	(___fttol@lval+2)& (0+255),f,b
  4480  0011C2  1FA5               	comf	(___fttol@lval+1)& (0+255),f,b
  4481  0011C4  6DA4               	negf	___fttol@lval& (0+255),b
  4482  0011C6  0E00               	movlw	0
  4483  0011C8  23A5               	addwfc	(___fttol@lval+1)& (0+255),f,b
  4484  0011CA  23A6               	addwfc	(___fttol@lval+2)& (0+255),f,b
  4485  0011CC  23A7               	addwfc	(___fttol@lval+3)& (0+255),f,b
  4486  0011CE  D000               	goto	l4187
  4487  0011D0                     l4187:
  4488                           
  4489                           ; BSR set to: 0
  4490  0011D0  C0A4  F09A         	movff	___fttol@lval,?___fttol
  4491  0011D4  C0A5  F09B         	movff	___fttol@lval+1,?___fttol+1
  4492  0011D8  C0A6  F09C         	movff	___fttol@lval+2,?___fttol+2
  4493  0011DC  C0A7  F09D         	movff	___fttol@lval+3,?___fttol+3
  4494  0011E0  0012               	return	
  4495                           
  4496                           ; BSR set to: 0
  4497                           
  4498                           ; BSR set to: 0
  4499  0011E2  0012               	return		;funcret
  4500  0011E4                     __end_of___fttol:
  4501                           	opt stack 0
  4502                           tblptru	equ	0xFF8
  4503                           prodh	equ	0xFF4
  4504                           prodl	equ	0xFF3
  4505                           intcon	equ	0xFF2
  4506                           postinc0	equ	0xFEE
  4507                           wreg	equ	0xFE8
  4508                           indf2	equ	0xFDF
  4509                           postinc2	equ	0xFDE
  4510                           postdec2	equ	0xFDD
  4511                           fsr2h	equ	0xFDA
  4512                           fsr2l	equ	0xFD9
  4513                           status	equ	0xFD8
  4514                           
  4515 ;; *************** function ___ftge *****************
  4516 ;; Defined at:
  4517 ;;		line 4 in file "C:\Program Files (x86)\Microchip\xc8\v1.34\sources\common\ftge.c"
  4518 ;; Parameters:    Size  Location     Type
  4519 ;;  ff1             3    0[BANK0 ] float 
  4520 ;;  ff2             3    3[BANK0 ] float 
  4521 ;; Auto vars:     Size  Location     Type
  4522 ;;		None
  4523 ;; Return value:  Size  Location     Type
  4524 ;;		None               void
  4525 ;; Registers used:
  4526 ;;		wreg, status,2, status,0
  4527 ;; Tracked objects:
  4528 ;;		On entry : 0/0
  4529 ;;		On exit  : 0/0
  4530 ;;		Unchanged: 0/0
  4531 ;; Data sizes:     COMRAM   BANK0   BANK1   BANK2   BANK3   BANK4   BANK5   BANK6   BANK7
  4532 ;;      Params:         0       6       0       0       0       0       0       0       0
  4533 ;;      Locals:         0       0       0       0       0       0       0       0       0
  4534 ;;      Temps:          0       3       0       0       0       0       0       0       0
  4535 ;;      Totals:         0       9       0       0       0       0       0       0       0
  4536 ;;Total ram usage:        9 bytes
  4537 ;; Hardware stack levels used:    1
  4538 ;; Hardware stack levels required when called:   10
  4539 ;; This function calls:
  4540 ;;		Nothing
  4541 ;; This function is called by:
  4542 ;;		_pow
  4543 ;;		_exp
  4544 ;;		_floor
  4545 ;; This function uses a non-reentrant model
  4546 ;;
  4547                           
  4548                           	psect	text17
  4549  00219A                     __ptext17:
  4550                           	opt stack 0
  4551  00219A                     ___ftge:
  4552                           	opt stack 16
  4553                           
  4554                           ; BSR set to: 0
  4555                           ;incstack = 0
  4556  00219A  0100               	movlb	0	; () banked
  4557  00219C  AF62               	btfss	(___ftge@ff1+2)& (0+255),7,b
  4558  00219E  D01E               	goto	l5445
  4559                           
  4560                           ; BSR set to: 0
  4561  0021A0  C060  F066         	movff	___ftge@ff1,??___ftge
  4562  0021A4  C061  F067         	movff	___ftge@ff1+1,??___ftge+1
  4563  0021A8  C062  F068         	movff	___ftge@ff1+2,??___ftge+2
  4564  0021AC  0100               	movlb	0	; () banked
  4565  0021AE  1F66               	comf	??___ftge& (0+255),f,b
  4566  0021B0  1F67               	comf	(??___ftge+1)& (0+255),f,b
  4567  0021B2  1F68               	comf	(??___ftge+2)& (0+255),f,b
  4568  0021B4  2B66               	incf	??___ftge& (0+255),f,b
  4569  0021B6  0E00               	movlw	0
  4570  0021B8  2367               	addwfc	(??___ftge+1)& (0+255),f,b
  4571  0021BA  2368               	addwfc	(??___ftge+2)& (0+255),f,b
  4572  0021BC  0E00               	movlw	0
  4573  0021BE  0100               	movlb	0	; () banked
  4574  0021C0  2566               	addwf	??___ftge& (0+255),w,b
  4575  0021C2  0100               	movlb	0	; () banked
  4576  0021C4  6F60               	movwf	___ftge@ff1& (0+255),b
  4577  0021C6  0E00               	movlw	0
  4578  0021C8  0100               	movlb	0	; () banked
  4579  0021CA  2167               	addwfc	(??___ftge+1)& (0+255),w,b
  4580  0021CC  0100               	movlb	0	; () banked
  4581  0021CE  6F61               	movwf	(___ftge@ff1+1)& (0+255),b
  4582  0021D0  0E80               	movlw	128
  4583  0021D2  0100               	movlb	0	; () banked
  4584  0021D4  2168               	addwfc	(??___ftge+2)& (0+255),w,b
  4585  0021D6  0100               	movlb	0	; () banked
  4586  0021D8  6F62               	movwf	(___ftge@ff1+2)& (0+255),b
  4587  0021DA  D000               	goto	l5445
  4588  0021DC                     l5445:
  4589                           
  4590                           ; BSR set to: 0
  4591  0021DC  0100               	movlb	0	; () banked
  4592  0021DE  AF65               	btfss	(___ftge@ff2+2)& (0+255),7,b
  4593  0021E0  D01E               	goto	l5449
  4594                           
  4595                           ; BSR set to: 0
  4596  0021E2  C063  F066         	movff	___ftge@ff2,??___ftge
  4597  0021E6  C064  F067         	movff	___ftge@ff2+1,??___ftge+1
  4598  0021EA  C065  F068         	movff	___ftge@ff2+2,??___ftge+2
  4599  0021EE  0100               	movlb	0	; () banked
  4600  0021F0  1F66               	comf	??___ftge& (0+255),f,b
  4601  0021F2  1F67               	comf	(??___ftge+1)& (0+255),f,b
  4602  0021F4  1F68               	comf	(??___ftge+2)& (0+255),f,b
  4603  0021F6  2B66               	incf	??___ftge& (0+255),f,b
  4604  0021F8  0E00               	movlw	0
  4605  0021FA  2367               	addwfc	(??___ftge+1)& (0+255),f,b
  4606  0021FC  2368               	addwfc	(??___ftge+2)& (0+255),f,b
  4607  0021FE  0E00               	movlw	0
  4608  002200  0100               	movlb	0	; () banked
  4609  002202  2566               	addwf	??___ftge& (0+255),w,b
  4610  002204  0100               	movlb	0	; () banked
  4611  002206  6F63               	movwf	___ftge@ff2& (0+255),b
  4612  002208  0E00               	movlw	0
  4613  00220A  0100               	movlb	0	; () banked
  4614  00220C  2167               	addwfc	(??___ftge+1)& (0+255),w,b
  4615  00220E  0100               	movlb	0	; () banked
  4616  002210  6F64               	movwf	(___ftge@ff2+1)& (0+255),b
  4617  002212  0E80               	movlw	128
  4618  002214  0100               	movlb	0	; () banked
  4619  002216  2168               	addwfc	(??___ftge+2)& (0+255),w,b
  4620  002218  0100               	movlb	0	; () banked
  4621  00221A  6F65               	movwf	(___ftge@ff2+2)& (0+255),b
  4622  00221C  D000               	goto	l5449
  4623  00221E                     l5449:
  4624                           
  4625                           ; BSR set to: 0
  4626  00221E  0E00               	movlw	0
  4627  002220  0100               	movlb	0	; () banked
  4628  002222  1B60               	xorwf	___ftge@ff1& (0+255),f,b
  4629  002224  0E00               	movlw	0
  4630  002226  0100               	movlb	0	; () banked
  4631  002228  1B61               	xorwf	(___ftge@ff1+1)& (0+255),f,b
  4632  00222A  0E80               	movlw	128
  4633  00222C  0100               	movlb	0	; () banked
  4634  00222E  1B62               	xorwf	(___ftge@ff1+2)& (0+255),f,b
  4635                           
  4636                           ; BSR set to: 0
  4637  002230  0E00               	movlw	0
  4638  002232  0100               	movlb	0	; () banked
  4639  002234  1B63               	xorwf	___ftge@ff2& (0+255),f,b
  4640  002236  0E00               	movlw	0
  4641  002238  0100               	movlb	0	; () banked
  4642  00223A  1B64               	xorwf	(___ftge@ff2+1)& (0+255),f,b
  4643  00223C  0E80               	movlw	128
  4644  00223E  0100               	movlb	0	; () banked
  4645  002240  1B65               	xorwf	(___ftge@ff2+2)& (0+255),f,b
  4646  002242  0100               	movlb	0	; () banked
  4647  002244  5163               	movf	___ftge@ff2& (0+255),w,b
  4648  002246  0100               	movlb	0	; () banked
  4649  002248  5D60               	subwf	___ftge@ff1& (0+255),w,b
  4650  00224A  0100               	movlb	0	; () banked
  4651  00224C  5164               	movf	(___ftge@ff2+1)& (0+255),w,b
  4652  00224E  0100               	movlb	0	; () banked
  4653  002250  5961               	subwfb	(___ftge@ff1+1)& (0+255),w,b
  4654  002252  0100               	movlb	0	; () banked
  4655  002254  5165               	movf	(___ftge@ff2+2)& (0+255),w,b
  4656  002256  0100               	movlb	0	; () banked
  4657  002258  5962               	subwfb	(___ftge@ff1+2)& (0+255),w,b
  4658  00225A  B0D8               	btfsc	status,0,c
  4659  00225C  D002               	goto	l5455
  4660                           
  4661                           ; BSR set to: 0
  4662  00225E  90D8               	bcf	status,0,c
  4663  002260  0012               	return	
  4664  002262                     l5455:
  4665                           
  4666                           ; BSR set to: 0
  4667  002262  80D8               	bsf	status,0,c
  4668                           
  4669                           ; BSR set to: 0
  4670  002264  0012               	return	
  4671                           
  4672                           ; BSR set to: 0
  4673                           
  4674                           ; BSR set to: 0
  4675  002266  0012               	return		;funcret
  4676  002268                     __end_of___ftge:
  4677                           	opt stack 0
  4678                           tblptru	equ	0xFF8
  4679                           prodh	equ	0xFF4
  4680                           prodl	equ	0xFF3
  4681                           intcon	equ	0xFF2
  4682                           postinc0	equ	0xFEE
  4683                           wreg	equ	0xFE8
  4684                           indf2	equ	0xFDF
  4685                           postinc2	equ	0xFDE
  4686                           postdec2	equ	0xFDD
  4687                           fsr2h	equ	0xFDA
  4688                           fsr2l	equ	0xFD9
  4689                           status	equ	0xFD8
  4690                           
  4691 ;; *************** function ___altoft *****************
  4692 ;; Defined at:
  4693 ;;		line 42 in file "C:\Program Files (x86)\Microchip\xc8\v1.34\sources\common\altoft.c"
  4694 ;; Parameters:    Size  Location     Type
  4695 ;;  c               4   73[BANK0 ] long 
  4696 ;; Auto vars:     Size  Location     Type
  4697 ;;  sign            1   82[BANK0 ] unsigned char 
  4698 ;;  exp             1   81[BANK0 ] unsigned char 
  4699 ;; Return value:  Size  Location     Type
  4700 ;;                  3   73[BANK0 ] float 
  4701 ;; Registers used:
  4702 ;;		wreg, status,2, status,0, cstack
  4703 ;; Tracked objects:
  4704 ;;		On entry : 0/0
  4705 ;;		On exit  : 0/0
  4706 ;;		Unchanged: 0/0
  4707 ;; Data sizes:     COMRAM   BANK0   BANK1   BANK2   BANK3   BANK4   BANK5   BANK6   BANK7
  4708 ;;      Params:         0       4       0       0       0       0       0       0       0
  4709 ;;      Locals:         0       2       0       0       0       0       0       0       0
  4710 ;;      Temps:          0       4       0       0       0       0       0       0       0
  4711 ;;      Totals:         0      10       0       0       0       0       0       0       0
  4712 ;;Total ram usage:       10 bytes
  4713 ;; Hardware stack levels used:    1
  4714 ;; Hardware stack levels required when called:   11
  4715 ;; This function calls:
  4716 ;;		___ftpack
  4717 ;; This function is called by:
  4718 ;;		_floor
  4719 ;; This function uses a non-reentrant model
  4720 ;;
  4721                           
  4722                           	psect	text18
  4723  00260E                     __ptext18:
  4724                           	opt stack 0
  4725  00260E                     ___altoft:
  4726                           	opt stack 15
  4727                           
  4728                           ; BSR set to: 0
  4729                           ;incstack = 0
  4730  00260E  0E00               	movlw	0
  4731  002610  0100               	movlb	0	; () banked
  4732  002612  6FB2               	movwf	___altoft@sign& (0+255),b
  4733  002614  0E8E               	movlw	142
  4734  002616  0100               	movlb	0	; () banked
  4735  002618  6FB1               	movwf	___altoft@exp& (0+255),b
  4736                           
  4737                           ; BSR set to: 0
  4738  00261A  0100               	movlb	0	; () banked
  4739  00261C  AFAC               	btfss	(___altoft@c+3)& (0+255),7,b
  4740  00261E  D016               	goto	l5317
  4741                           
  4742                           ; BSR set to: 0
  4743  002620  0100               	movlb	0	; () banked
  4744  002622  1FAC               	comf	(___altoft@c+3)& (0+255),f,b
  4745  002624  1FAB               	comf	(___altoft@c+2)& (0+255),f,b
  4746  002626  1FAA               	comf	(___altoft@c+1)& (0+255),f,b
  4747  002628  6DA9               	negf	___altoft@c& (0+255),b
  4748  00262A  0E00               	movlw	0
  4749  00262C  23AA               	addwfc	(___altoft@c+1)& (0+255),f,b
  4750  00262E  23AB               	addwfc	(___altoft@c+2)& (0+255),f,b
  4751  002630  23AC               	addwfc	(___altoft@c+3)& (0+255),f,b
  4752                           
  4753                           ; BSR set to: 0
  4754  002632  0E01               	movlw	1
  4755  002634  0100               	movlb	0	; () banked
  4756  002636  6FB2               	movwf	___altoft@sign& (0+255),b
  4757                           
  4758                           ; BSR set to: 0
  4759  002638  D009               	goto	l5317
  4760  00263A                     l5315:
  4761                           
  4762                           ; BSR set to: 0
  4763  00263A  0100               	movlb	0	; () banked
  4764  00263C  90D8               	bcf	status,0,c
  4765  00263E  33AC               	rrcf	(___altoft@c+3)& (0+255),f,b
  4766  002640  33AB               	rrcf	(___altoft@c+2)& (0+255),f,b
  4767  002642  33AA               	rrcf	(___altoft@c+1)& (0+255),f,b
  4768  002644  33A9               	rrcf	___altoft@c& (0+255),f,b
  4769  002646  0100               	movlb	0	; () banked
  4770  002648  2BB1               	incf	___altoft@exp& (0+255),f,b
  4771  00264A  D000               	goto	l5317
  4772  00264C                     l5317:
  4773                           
  4774                           ; BSR set to: 0
  4775  00264C  0E00               	movlw	0
  4776  00264E  0100               	movlb	0	; () banked
  4777  002650  15A9               	andwf	___altoft@c& (0+255),w,b
  4778  002652  0100               	movlb	0	; () banked
  4779  002654  6FAD               	movwf	??___altoft& (0+255),b
  4780  002656  0E00               	movlw	0
  4781  002658  0100               	movlb	0	; () banked
  4782  00265A  15AA               	andwf	(___altoft@c+1)& (0+255),w,b
  4783  00265C  0100               	movlb	0	; () banked
  4784  00265E  6FAE               	movwf	(??___altoft+1)& (0+255),b
  4785  002660  0E00               	movlw	0
  4786  002662  0100               	movlb	0	; () banked
  4787  002664  15AB               	andwf	(___altoft@c+2)& (0+255),w,b
  4788  002666  0100               	movlb	0	; () banked
  4789  002668  6FAF               	movwf	(??___altoft+2)& (0+255),b
  4790  00266A  0EFF               	movlw	255
  4791  00266C  0100               	movlb	0	; () banked
  4792  00266E  15AC               	andwf	(___altoft@c+3)& (0+255),w,b
  4793  002670  0100               	movlb	0	; () banked
  4794  002672  6FB0               	movwf	(??___altoft+3)& (0+255),b
  4795  002674  0100               	movlb	0	; () banked
  4796  002676  51AD               	movf	??___altoft& (0+255),w,b
  4797  002678  0100               	movlb	0	; () banked
  4798  00267A  11AE               	iorwf	(??___altoft+1)& (0+255),w,b
  4799  00267C  0100               	movlb	0	; () banked
  4800  00267E  11AF               	iorwf	(??___altoft+2)& (0+255),w,b
  4801  002680  0100               	movlb	0	; () banked
  4802  002682  11B0               	iorwf	(??___altoft+3)& (0+255),w,b
  4803  002684  A4D8               	btfss	status,2,c
  4804  002686  D7D9               	goto	l5315
  4805                           
  4806                           ; BSR set to: 0
  4807                           
  4808                           ; BSR set to: 0
  4809  002688  C0A9  F060         	movff	___altoft@c,___ftpack@arg
  4810  00268C  C0AA  F061         	movff	___altoft@c+1,___ftpack@arg+1
  4811  002690  C0AB  F062         	movff	___altoft@c+2,___ftpack@arg+2
  4812  002694  C0B1  F063         	movff	___altoft@exp,___ftpack@exp
  4813  002698  C0B2  F064         	movff	___altoft@sign,___ftpack@sign
  4814  00269C  EC08  F00C         	call	___ftpack	;wreg free
  4815  0026A0  C060  F0A9         	movff	?___ftpack,?___altoft
  4816  0026A4  C061  F0AA         	movff	?___ftpack+1,?___altoft+1
  4817  0026A8  C062  F0AB         	movff	?___ftpack+2,?___altoft+2
  4818  0026AC  0012               	return	
  4819  0026AE  0012               	return		;funcret
  4820  0026B0                     __end_of___altoft:
  4821                           	opt stack 0
  4822                           tblptru	equ	0xFF8
  4823                           prodh	equ	0xFF4
  4824                           prodl	equ	0xFF3
  4825                           intcon	equ	0xFF2
  4826                           postinc0	equ	0xFEE
  4827                           wreg	equ	0xFE8
  4828                           indf2	equ	0xFDF
  4829                           postinc2	equ	0xFDE
  4830                           postdec2	equ	0xFDD
  4831                           fsr2h	equ	0xFDA
  4832                           fsr2l	equ	0xFD9
  4833                           status	equ	0xFD8
  4834                           
  4835 ;; *************** function _eval_poly *****************
  4836 ;; Defined at:
  4837 ;;		line 4 in file "C:\Program Files (x86)\Microchip\xc8\v1.34\sources\common\evalpoly.c"
  4838 ;; Parameters:    Size  Location     Type
  4839 ;;  x               3   58[BANK0 ] float 
  4840 ;;  d               2   61[BANK0 ] PTR const 
  4841 ;;		 -> log@coeff(27), exp@coeff(30), 
  4842 ;;  n               2   63[BANK0 ] int 
  4843 ;; Auto vars:     Size  Location     Type
  4844 ;;  res             3   67[BANK0 ] int 
  4845 ;; Return value:  Size  Location     Type
  4846 ;;                  3   58[BANK0 ] int 
  4847 ;; Registers used:
  4848 ;;		wreg, status,2, status,0, tblptrl, tblptrh, tblptru, prodl, prodh, cstack
  4849 ;; Tracked objects:
  4850 ;;		On entry : 0/0
  4851 ;;		On exit  : 0/0
  4852 ;;		Unchanged: 0/0
  4853 ;; Data sizes:     COMRAM   BANK0   BANK1   BANK2   BANK3   BANK4   BANK5   BANK6   BANK7
  4854 ;;      Params:         0       7       0       0       0       0       0       0       0
  4855 ;;      Locals:         0       3       0       0       0       0       0       0       0
  4856 ;;      Temps:          0       2       0       0       0       0       0       0       0
  4857 ;;      Totals:         0      12       0       0       0       0       0       0       0
  4858 ;;Total ram usage:       12 bytes
  4859 ;; Hardware stack levels used:    1
  4860 ;; Hardware stack levels required when called:   12
  4861 ;; This function calls:
  4862 ;;		___ftadd
  4863 ;;		___ftmul
  4864 ;;		___wmul
  4865 ;; This function is called by:
  4866 ;;		_exp
  4867 ;;		_log
  4868 ;; This function uses a non-reentrant model
  4869 ;;
  4870                           
  4871                           	psect	text19
  4872  001D30                     __ptext19:
  4873                           	opt stack 0
  4874  001D30                     _eval_poly:
  4875                           	opt stack 15
  4876                           
  4877                           ;incstack = 0
  4878  001D30  C09F  F060         	movff	eval_poly@n,___wmul@multiplier
  4879  001D34  C0A0  F061         	movff	eval_poly@n+1,___wmul@multiplier+1
  4880  001D38  0E00               	movlw	0
  4881  001D3A  0100               	movlb	0	; () banked
  4882  001D3C  6F63               	movwf	(___wmul@multiplicand+1)& (0+255),b
  4883  001D3E  0E03               	movlw	3
  4884  001D40  6F62               	movwf	___wmul@multiplicand& (0+255),b
  4885  001D42  EC22  F017         	call	___wmul	;wreg free
  4886  001D46  C09D  F0A1         	movff	eval_poly@d,??_eval_poly
  4887  001D4A  C09E  F0A2         	movff	eval_poly@d+1,??_eval_poly+1
  4888  001D4E  0100               	movlb	0	; () banked
  4889  001D50  5160               	movf	?___wmul& (0+255),w,b
  4890  001D52  0100               	movlb	0	; () banked
  4891  001D54  27A1               	addwf	??_eval_poly& (0+255),f,b
  4892  001D56  0100               	movlb	0	; () banked
  4893  001D58  5161               	movf	(?___wmul+1)& (0+255),w,b
  4894  001D5A  0100               	movlb	0	; () banked
  4895  001D5C  23A2               	addwfc	(??_eval_poly+1)& (0+255),f,b
  4896  001D5E  C0A1  FFF6         	movff	??_eval_poly,tblptrl
  4897  001D62  C0A2  FFF7         	movff	??_eval_poly+1,tblptrh
  4898  001D66                     	if	0	;tblptru may be non-zero
  4899  001D66                     	endif
  4900  001D66                     	if	0	;tblptru may be non-zero
  4901  001D66                     	endif
  4902  001D66  0009               	tblrd		*+
  4903  001D68  CFF5 F0A3          	movff	tablat,eval_poly@res
  4904  001D6C  0009               	tblrd		*+
  4905  001D6E  CFF5 F0A4          	movff	tablat,eval_poly@res+1
  4906  001D72  000A               	tblrd		*-
  4907  001D74  CFF5 F0A5          	movff	tablat,eval_poly@res+2
  4908  001D78  D045               	goto	l5589
  4909  001D7A                     l5587:
  4910                           
  4911                           ; BSR set to: 0
  4912  001D7A  C0A3  F073         	movff	eval_poly@res,___ftmul@f2
  4913  001D7E  C0A4  F074         	movff	eval_poly@res+1,___ftmul@f2+1
  4914  001D82  C0A5  F075         	movff	eval_poly@res+2,___ftmul@f2+2
  4915  001D86  C09A  F070         	movff	eval_poly@x,___ftmul@f1
  4916  001D8A  C09B  F071         	movff	eval_poly@x+1,___ftmul@f1+1
  4917  001D8E  C09C  F072         	movff	eval_poly@x+2,___ftmul@f1+2
  4918  001D92  EC37  F006         	call	___ftmul	;wreg free
  4919  001D96  C070  F08E         	movff	?___ftmul,___ftadd@f1
  4920  001D9A  C071  F08F         	movff	?___ftmul+1,___ftadd@f1+1
  4921  001D9E  C072  F090         	movff	?___ftmul+2,___ftadd@f1+2
  4922  001DA2  0E00               	movlw	0
  4923  001DA4  0100               	movlb	0	; () banked
  4924  001DA6  6F63               	movwf	(___wmul@multiplicand+1)& (0+255),b
  4925  001DA8  0E03               	movlw	3
  4926  001DAA  6F62               	movwf	___wmul@multiplicand& (0+255),b
  4927  001DAC  0100               	movlb	0	; () banked
  4928  001DAE  079F               	decf	eval_poly@n& (0+255),f,b
  4929  001DB0  A0D8               	btfss	status,0,c
  4930  001DB2  07A0               	decf	(eval_poly@n+1)& (0+255),f,b
  4931  001DB4  C09F  F060         	movff	eval_poly@n,___wmul@multiplier
  4932  001DB8  C0A0  F061         	movff	eval_poly@n+1,___wmul@multiplier+1
  4933  001DBC  EC22  F017         	call	___wmul	;wreg free
  4934  001DC0  C09D  F0A1         	movff	eval_poly@d,??_eval_poly
  4935  001DC4  C09E  F0A2         	movff	eval_poly@d+1,??_eval_poly+1
  4936  001DC8  0100               	movlb	0	; () banked
  4937  001DCA  5160               	movf	?___wmul& (0+255),w,b
  4938  001DCC  0100               	movlb	0	; () banked
  4939  001DCE  27A1               	addwf	??_eval_poly& (0+255),f,b
  4940  001DD0  0100               	movlb	0	; () banked
  4941  001DD2  5161               	movf	(?___wmul+1)& (0+255),w,b
  4942  001DD4  0100               	movlb	0	; () banked
  4943  001DD6  23A2               	addwfc	(??_eval_poly+1)& (0+255),f,b
  4944  001DD8  C0A1  FFF6         	movff	??_eval_poly,tblptrl
  4945  001DDC  C0A2  FFF7         	movff	??_eval_poly+1,tblptrh
  4946  001DE0                     	if	0	;tblptru may be non-zero
  4947  001DE0                     	endif
  4948  001DE0                     	if	0	;tblptru may be non-zero
  4949  001DE0                     	endif
  4950  001DE0  0009               	tblrd		*+
  4951  001DE2  CFF5 F091          	movff	tablat,___ftadd@f2
  4952  001DE6  0009               	tblrd		*+
  4953  001DE8  CFF5 F092          	movff	tablat,___ftadd@f2+1
  4954  001DEC  000A               	tblrd		*-
  4955  001DEE  CFF5 F093          	movff	tablat,___ftadd@f2+2
  4956  001DF2  EC00  F003         	call	___ftadd	;wreg free
  4957  001DF6  C08E  F0A3         	movff	?___ftadd,eval_poly@res
  4958  001DFA  C08F  F0A4         	movff	?___ftadd+1,eval_poly@res+1
  4959  001DFE  C090  F0A5         	movff	?___ftadd+2,eval_poly@res+2
  4960  001E02  D000               	goto	l5589
  4961  001E04                     l5589:
  4962  001E04  0100               	movlb	0	; () banked
  4963  001E06  519F               	movf	eval_poly@n& (0+255),w,b
  4964  001E08  0100               	movlb	0	; () banked
  4965  001E0A  11A0               	iorwf	(eval_poly@n+1)& (0+255),w,b
  4966  001E0C  A4D8               	btfss	status,2,c
  4967  001E0E  D7B5               	goto	l5587
  4968                           
  4969                           ; BSR set to: 0
  4970  001E10  C0A3  F09A         	movff	eval_poly@res,?_eval_poly
  4971  001E14  C0A4  F09B         	movff	eval_poly@res+1,?_eval_poly+1
  4972  001E18  C0A5  F09C         	movff	eval_poly@res+2,?_eval_poly+2
  4973                           
  4974                           ; BSR set to: 0
  4975  001E1C  0012               	return		;funcret
  4976  001E1E                     __end_of_eval_poly:
  4977                           	opt stack 0
  4978                           tblptru	equ	0xFF8
  4979                           tblptrh	equ	0xFF7
  4980                           tblptrl	equ	0xFF6
  4981                           tablat	equ	0xFF5
  4982                           prodh	equ	0xFF4
  4983                           prodl	equ	0xFF3
  4984                           intcon	equ	0xFF2
  4985                           postinc0	equ	0xFEE
  4986                           wreg	equ	0xFE8
  4987                           indf2	equ	0xFDF
  4988                           postinc2	equ	0xFDE
  4989                           postdec2	equ	0xFDD
  4990                           fsr2h	equ	0xFDA
  4991                           fsr2l	equ	0xFD9
  4992                           status	equ	0xFD8
  4993                           
  4994 ;; *************** function ___wmul *****************
  4995 ;; Defined at:
  4996 ;;		line 15 in file "C:\Program Files (x86)\Microchip\xc8\v1.34\sources\common\Umul16.c"
  4997 ;; Parameters:    Size  Location     Type
  4998 ;;  multiplier      2    0[BANK0 ] unsigned int 
  4999 ;;  multiplicand    2    2[BANK0 ] unsigned int 
  5000 ;; Auto vars:     Size  Location     Type
  5001 ;;  product         2    4[BANK0 ] unsigned int 
  5002 ;; Return value:  Size  Location     Type
  5003 ;;                  2    0[BANK0 ] unsigned int 
  5004 ;; Registers used:
  5005 ;;		wreg, status,2, status,0, prodl, prodh
  5006 ;; Tracked objects:
  5007 ;;		On entry : 0/0
  5008 ;;		On exit  : 0/0
  5009 ;;		Unchanged: 0/0
  5010 ;; Data sizes:     COMRAM   BANK0   BANK1   BANK2   BANK3   BANK4   BANK5   BANK6   BANK7
  5011 ;;      Params:         0       4       0       0       0       0       0       0       0
  5012 ;;      Locals:         0       2       0       0       0       0       0       0       0
  5013 ;;      Temps:          0       0       0       0       0       0       0       0       0
  5014 ;;      Totals:         0       6       0       0       0       0       0       0       0
  5015 ;;Total ram usage:        6 bytes
  5016 ;; Hardware stack levels used:    1
  5017 ;; Hardware stack levels required when called:   10
  5018 ;; This function calls:
  5019 ;;		Nothing
  5020 ;; This function is called by:
  5021 ;;		_eval_poly
  5022 ;; This function uses a non-reentrant model
  5023 ;;
  5024                           
  5025                           	psect	text20
  5026  002E44                     __ptext20:
  5027                           	opt stack 0
  5028  002E44                     ___wmul:
  5029                           	opt stack 16
  5030                           
  5031                           ; BSR set to: 0
  5032                           ;incstack = 0
  5033  002E44  0100               	movlb	0	; () banked
  5034  002E46  5160               	movf	___wmul@multiplier& (0+255),w,b
  5035  002E48  0100               	movlb	0	; () banked
  5036  002E4A  0362               	mulwf	___wmul@multiplicand& (0+255),b
  5037  002E4C  CFF3 F064          	movff	prodl,___wmul@product
  5038  002E50  CFF4 F065          	movff	prodh,___wmul@product+1
  5039  002E54  0100               	movlb	0	; () banked
  5040  002E56  5160               	movf	___wmul@multiplier& (0+255),w,b
  5041  002E58  0100               	movlb	0	; () banked
  5042  002E5A  0363               	mulwf	(___wmul@multiplicand+1)& (0+255),b
  5043  002E5C  50F3               	movf	prodl,w,c
  5044  002E5E  0100               	movlb	0	; () banked
  5045  002E60  2765               	addwf	(___wmul@product+1)& (0+255),f,b
  5046  002E62  0100               	movlb	0	; () banked
  5047  002E64  5161               	movf	(___wmul@multiplier+1)& (0+255),w,b
  5048  002E66  0100               	movlb	0	; () banked
  5049  002E68  0362               	mulwf	___wmul@multiplicand& (0+255),b
  5050  002E6A  50F3               	movf	prodl,w,c
  5051  002E6C  0100               	movlb	0	; () banked
  5052  002E6E  2765               	addwf	(___wmul@product+1)& (0+255),f,b
  5053                           
  5054                           ; BSR set to: 0
  5055  002E70  C064  F060         	movff	___wmul@product,?___wmul
  5056  002E74  C065  F061         	movff	___wmul@product+1,?___wmul+1
  5057  002E78  0012               	return	
  5058                           
  5059                           ; BSR set to: 0
  5060                           
  5061                           ; BSR set to: 0
  5062  002E7A  0012               	return		;funcret
  5063  002E7C                     __end_of___wmul:
  5064                           	opt stack 0
  5065                           tblptru	equ	0xFF8
  5066                           tblptrh	equ	0xFF7
  5067                           tblptrl	equ	0xFF6
  5068                           tablat	equ	0xFF5
  5069                           prodh	equ	0xFF4
  5070                           prodl	equ	0xFF3
  5071                           intcon	equ	0xFF2
  5072                           postinc0	equ	0xFEE
  5073                           wreg	equ	0xFE8
  5074                           indf2	equ	0xFDF
  5075                           postinc2	equ	0xFDE
  5076                           postdec2	equ	0xFDD
  5077                           fsr2h	equ	0xFDA
  5078                           fsr2l	equ	0xFD9
  5079                           status	equ	0xFD8
  5080                           
  5081 ;; *************** function ___ftmul *****************
  5082 ;; Defined at:
  5083 ;;		line 62 in file "C:\Program Files (x86)\Microchip\xc8\v1.34\sources\common\ftmul.c"
  5084 ;; Parameters:    Size  Location     Type
  5085 ;;  f1              3   16[BANK0 ] float 
  5086 ;;  f2              3   19[BANK0 ] float 
  5087 ;; Auto vars:     Size  Location     Type
  5088 ;;  f3_as_produc    3   26[BANK0 ] unsigned um
  5089 ;;  sign            1   30[BANK0 ] unsigned char 
  5090 ;;  cntr            1   29[BANK0 ] unsigned char 
  5091 ;;  exp             1   25[BANK0 ] unsigned char 
  5092 ;; Return value:  Size  Location     Type
  5093 ;;                  3   16[BANK0 ] float 
  5094 ;; Registers used:
  5095 ;;		wreg, status,2, status,0, cstack
  5096 ;; Tracked objects:
  5097 ;;		On entry : 0/0
  5098 ;;		On exit  : 0/0
  5099 ;;		Unchanged: 0/0
  5100 ;; Data sizes:     COMRAM   BANK0   BANK1   BANK2   BANK3   BANK4   BANK5   BANK6   BANK7
  5101 ;;      Params:         0       6       0       0       0       0       0       0       0
  5102 ;;      Locals:         0       6       0       0       0       0       0       0       0
  5103 ;;      Temps:          0       3       0       0       0       0       0       0       0
  5104 ;;      Totals:         0      15       0       0       0       0       0       0       0
  5105 ;;Total ram usage:       15 bytes
  5106 ;; Hardware stack levels used:    1
  5107 ;; Hardware stack levels required when called:   11
  5108 ;; This function calls:
  5109 ;;		___ftpack
  5110 ;; This function is called by:
  5111 ;;		_APP_DeviceCustomHIDTasks
  5112 ;;		_pow
  5113 ;;		_exp
  5114 ;;		_log
  5115 ;;		_eval_poly
  5116 ;; This function uses a non-reentrant model
  5117 ;;
  5118                           
  5119                           	psect	text21
  5120  000C6E                     __ptext21:
  5121                           	opt stack 0
  5122  000C6E                     ___ftmul:
  5123                           	opt stack 15
  5124                           
  5125                           ; BSR set to: 0
  5126                           ;incstack = 0
  5127  000C6E  C072  F076         	movff	___ftmul@f1+2,??___ftmul
  5128  000C72  0100               	movlb	0	; () banked
  5129  000C74  6B77               	clrf	(??___ftmul+1)& (0+255),b
  5130  000C76  6B78               	clrf	(??___ftmul+2)& (0+255),b
  5131  000C78  0100               	movlb	0	; () banked
  5132  000C7A  3571               	rlcf	(___ftmul@f1+1)& (0+255),w,b
  5133  000C7C  0100               	movlb	0	; () banked
  5134  000C7E  3776               	rlcf	??___ftmul& (0+255),f,b
  5135  000C80  E301               	bnc	u5211
  5136  000C82  8177               	bsf	(??___ftmul+1)& (0+255),0,b
  5137  000C84                     u5211:
  5138  000C84  0100               	movlb	0	; () banked
  5139  000C86  5176               	movf	??___ftmul& (0+255),w,b
  5140  000C88  0100               	movlb	0	; () banked
  5141  000C8A  6F79               	movwf	___ftmul@exp& (0+255),b
  5142  000C8C  0100               	movlb	0	; () banked
  5143  000C8E  5179               	movf	___ftmul@exp& (0+255),w,b
  5144  000C90  A4D8               	btfss	status,2,c
  5145  000C92  D00A               	goto	l5399
  5146                           
  5147                           ; BSR set to: 0
  5148  000C94  0E00               	movlw	0
  5149  000C96  0100               	movlb	0	; () banked
  5150  000C98  6F70               	movwf	?___ftmul& (0+255),b
  5151  000C9A  0E00               	movlw	0
  5152  000C9C  0100               	movlb	0	; () banked
  5153  000C9E  6F71               	movwf	(?___ftmul+1)& (0+255),b
  5154  000CA0  0E00               	movlw	0
  5155  000CA2  0100               	movlb	0	; () banked
  5156  000CA4  6F72               	movwf	(?___ftmul+2)& (0+255),b
  5157                           
  5158                           ; BSR set to: 0
  5159  000CA6  0012               	return	
  5160  000CA8                     l5399:
  5161                           
  5162                           ; BSR set to: 0
  5163  000CA8  C075  F076         	movff	___ftmul@f2+2,??___ftmul
  5164  000CAC  0100               	movlb	0	; () banked
  5165  000CAE  6B77               	clrf	(??___ftmul+1)& (0+255),b
  5166  000CB0  6B78               	clrf	(??___ftmul+2)& (0+255),b
  5167  000CB2  0100               	movlb	0	; () banked
  5168  000CB4  3574               	rlcf	(___ftmul@f2+1)& (0+255),w,b
  5169  000CB6  0100               	movlb	0	; () banked
  5170  000CB8  3776               	rlcf	??___ftmul& (0+255),f,b
  5171  000CBA  E301               	bnc	u5231
  5172  000CBC  8177               	bsf	(??___ftmul+1)& (0+255),0,b
  5173  000CBE                     u5231:
  5174  000CBE  0100               	movlb	0	; () banked
  5175  000CC0  5176               	movf	??___ftmul& (0+255),w,b
  5176  000CC2  0100               	movlb	0	; () banked
  5177  000CC4  6F7E               	movwf	___ftmul@sign& (0+255),b
  5178  000CC6  0100               	movlb	0	; () banked
  5179  000CC8  517E               	movf	___ftmul@sign& (0+255),w,b
  5180  000CCA  A4D8               	btfss	status,2,c
  5181  000CCC  D00A               	goto	l5405
  5182                           
  5183                           ; BSR set to: 0
  5184  000CCE  0E00               	movlw	0
  5185  000CD0  0100               	movlb	0	; () banked
  5186  000CD2  6F70               	movwf	?___ftmul& (0+255),b
  5187  000CD4  0E00               	movlw	0
  5188  000CD6  0100               	movlb	0	; () banked
  5189  000CD8  6F71               	movwf	(?___ftmul+1)& (0+255),b
  5190  000CDA  0E00               	movlw	0
  5191  000CDC  0100               	movlb	0	; () banked
  5192  000CDE  6F72               	movwf	(?___ftmul+2)& (0+255),b
  5193                           
  5194                           ; BSR set to: 0
  5195  000CE0  0012               	return	
  5196  000CE2                     l5405:
  5197                           
  5198                           ; BSR set to: 0
  5199  000CE2  0100               	movlb	0	; () banked
  5200  000CE4  517E               	movf	___ftmul@sign& (0+255),w,b
  5201  000CE6  0F7B               	addlw	123
  5202  000CE8  0100               	movlb	0	; () banked
  5203  000CEA  2779               	addwf	___ftmul@exp& (0+255),f,b
  5204                           
  5205                           ; BSR set to: 0
  5206  000CEC  C072  F07E         	movff	___ftmul@f1+2,___ftmul@sign
  5207  000CF0  0100               	movlb	0	; () banked
  5208  000CF2  5175               	movf	(___ftmul@f2+2)& (0+255),w,b
  5209  000CF4  0100               	movlb	0	; () banked
  5210  000CF6  1B7E               	xorwf	___ftmul@sign& (0+255),f,b
  5211  000CF8  0E80               	movlw	128
  5212  000CFA  0100               	movlb	0	; () banked
  5213  000CFC  177E               	andwf	___ftmul@sign& (0+255),f,b
  5214                           
  5215                           ; BSR set to: 0
  5216  000CFE  0100               	movlb	0	; () banked
  5217  000D00  8F71               	bsf	(___ftmul@f1+1)& (0+255),7,b
  5218                           
  5219                           ; BSR set to: 0
  5220  000D02  0100               	movlb	0	; () banked
  5221  000D04  8F74               	bsf	(___ftmul@f2+1)& (0+255),7,b
  5222                           
  5223                           ; BSR set to: 0
  5224  000D06  0EFF               	movlw	255
  5225  000D08  0100               	movlb	0	; () banked
  5226  000D0A  1773               	andwf	___ftmul@f2& (0+255),f,b
  5227  000D0C  0EFF               	movlw	255
  5228  000D0E  0100               	movlb	0	; () banked
  5229  000D10  1774               	andwf	(___ftmul@f2+1)& (0+255),f,b
  5230  000D12  0E00               	movlw	0
  5231  000D14  0100               	movlb	0	; () banked
  5232  000D16  1775               	andwf	(___ftmul@f2+2)& (0+255),f,b
  5233                           
  5234                           ; BSR set to: 0
  5235  000D18  0E00               	movlw	0
  5236  000D1A  0100               	movlb	0	; () banked
  5237  000D1C  6F7A               	movwf	___ftmul@f3_as_product& (0+255),b
  5238  000D1E  0E00               	movlw	0
  5239  000D20  0100               	movlb	0	; () banked
  5240  000D22  6F7B               	movwf	(___ftmul@f3_as_product+1)& (0+255),b
  5241  000D24  0E00               	movlw	0
  5242  000D26  0100               	movlb	0	; () banked
  5243  000D28  6F7C               	movwf	(___ftmul@f3_as_product+2)& (0+255),b
  5244                           
  5245                           ; BSR set to: 0
  5246  000D2A  0E07               	movlw	7
  5247  000D2C  0100               	movlb	0	; () banked
  5248  000D2E  6F7D               	movwf	___ftmul@cntr& (0+255),b
  5249  000D30  D000               	goto	l5419
  5250  000D32                     l5419:
  5251                           
  5252                           ; BSR set to: 0
  5253  000D32  0100               	movlb	0	; () banked
  5254  000D34  A170               	btfss	___ftmul@f1& (0+255),0,b
  5255  000D36  D00D               	goto	l5423
  5256                           
  5257                           ; BSR set to: 0
  5258  000D38  0100               	movlb	0	; () banked
  5259  000D3A  5173               	movf	___ftmul@f2& (0+255),w,b
  5260  000D3C  0100               	movlb	0	; () banked
  5261  000D3E  277A               	addwf	___ftmul@f3_as_product& (0+255),f,b
  5262  000D40  0100               	movlb	0	; () banked
  5263  000D42  5174               	movf	(___ftmul@f2+1)& (0+255),w,b
  5264  000D44  0100               	movlb	0	; () banked
  5265  000D46  237B               	addwfc	(___ftmul@f3_as_product+1)& (0+255),f,b
  5266  000D48  0100               	movlb	0	; () banked
  5267  000D4A  5175               	movf	(___ftmul@f2+2)& (0+255),w,b
  5268  000D4C  0100               	movlb	0	; () banked
  5269  000D4E  237C               	addwfc	(___ftmul@f3_as_product+2)& (0+255),f,b
  5270  000D50  D000               	goto	l5423
  5271  000D52                     l5423:
  5272                           
  5273                           ; BSR set to: 0
  5274  000D52  0100               	movlb	0	; () banked
  5275  000D54  90D8               	bcf	status,0,c
  5276  000D56  3372               	rrcf	(___ftmul@f1+2)& (0+255),f,b
  5277  000D58  3371               	rrcf	(___ftmul@f1+1)& (0+255),f,b
  5278  000D5A  3370               	rrcf	___ftmul@f1& (0+255),f,b
  5279  000D5C  0100               	movlb	0	; () banked
  5280  000D5E  90D8               	bcf	status,0,c
  5281  000D60  3773               	rlcf	___ftmul@f2& (0+255),f,b
  5282  000D62  3774               	rlcf	(___ftmul@f2+1)& (0+255),f,b
  5283  000D64  3775               	rlcf	(___ftmul@f2+2)& (0+255),f,b
  5284                           
  5285                           ; BSR set to: 0
  5286  000D66  0100               	movlb	0	; () banked
  5287  000D68  2F7D               	decfsz	___ftmul@cntr& (0+255),f,b
  5288  000D6A  D7E3               	goto	l5419
  5289  000D6C  D000               	goto	l5427
  5290  000D6E                     l5427:
  5291                           
  5292                           ; BSR set to: 0
  5293  000D6E  0E09               	movlw	9
  5294  000D70  0100               	movlb	0	; () banked
  5295  000D72  6F7D               	movwf	___ftmul@cntr& (0+255),b
  5296  000D74  D000               	goto	l5429
  5297  000D76                     l5429:
  5298                           
  5299                           ; BSR set to: 0
  5300  000D76  0100               	movlb	0	; () banked
  5301  000D78  A170               	btfss	___ftmul@f1& (0+255),0,b
  5302  000D7A  D00D               	goto	l5433
  5303                           
  5304                           ; BSR set to: 0
  5305  000D7C  0100               	movlb	0	; () banked
  5306  000D7E  5173               	movf	___ftmul@f2& (0+255),w,b
  5307  000D80  0100               	movlb	0	; () banked
  5308  000D82  277A               	addwf	___ftmul@f3_as_product& (0+255),f,b
  5309  000D84  0100               	movlb	0	; () banked
  5310  000D86  5174               	movf	(___ftmul@f2+1)& (0+255),w,b
  5311  000D88  0100               	movlb	0	; () banked
  5312  000D8A  237B               	addwfc	(___ftmul@f3_as_product+1)& (0+255),f,b
  5313  000D8C  0100               	movlb	0	; () banked
  5314  000D8E  5175               	movf	(___ftmul@f2+2)& (0+255),w,b
  5315  000D90  0100               	movlb	0	; () banked
  5316  000D92  237C               	addwfc	(___ftmul@f3_as_product+2)& (0+255),f,b
  5317  000D94  D000               	goto	l5433
  5318  000D96                     l5433:
  5319                           
  5320                           ; BSR set to: 0
  5321  000D96  0100               	movlb	0	; () banked
  5322  000D98  90D8               	bcf	status,0,c
  5323  000D9A  3372               	rrcf	(___ftmul@f1+2)& (0+255),f,b
  5324  000D9C  3371               	rrcf	(___ftmul@f1+1)& (0+255),f,b
  5325  000D9E  3370               	rrcf	___ftmul@f1& (0+255),f,b
  5326  000DA0  0100               	movlb	0	; () banked
  5327  000DA2  90D8               	bcf	status,0,c
  5328  000DA4  337C               	rrcf	(___ftmul@f3_as_product+2)& (0+255),f,b
  5329  000DA6  337B               	rrcf	(___ftmul@f3_as_product+1)& (0+255),f,b
  5330  000DA8  337A               	rrcf	___ftmul@f3_as_product& (0+255),f,b
  5331                           
  5332                           ; BSR set to: 0
  5333  000DAA  0100               	movlb	0	; () banked
  5334  000DAC  2F7D               	decfsz	___ftmul@cntr& (0+255),f,b
  5335  000DAE  D7E3               	goto	l5429
  5336  000DB0  D000               	goto	l5437
  5337  000DB2                     l5437:
  5338                           
  5339                           ; BSR set to: 0
  5340  000DB2  C07A  F060         	movff	___ftmul@f3_as_product,___ftpack@arg
  5341  000DB6  C07B  F061         	movff	___ftmul@f3_as_product+1,___ftpack@arg+1
  5342  000DBA  C07C  F062         	movff	___ftmul@f3_as_product+2,___ftpack@arg+2
  5343  000DBE  C079  F063         	movff	___ftmul@exp,___ftpack@exp
  5344  000DC2  C07E  F064         	movff	___ftmul@sign,___ftpack@sign
  5345  000DC6  EC08  F00C         	call	___ftpack	;wreg free
  5346  000DCA  C060  F070         	movff	?___ftpack,?___ftmul
  5347  000DCE  C061  F071         	movff	?___ftpack+1,?___ftmul+1
  5348  000DD2  C062  F072         	movff	?___ftpack+2,?___ftmul+2
  5349  000DD6  0012               	return	
  5350  000DD8  0012               	return		;funcret
  5351  000DDA                     __end_of___ftmul:
  5352                           	opt stack 0
  5353                           tblptru	equ	0xFF8
  5354                           tblptrh	equ	0xFF7
  5355                           tblptrl	equ	0xFF6
  5356                           tablat	equ	0xFF5
  5357                           prodh	equ	0xFF4
  5358                           prodl	equ	0xFF3
  5359                           intcon	equ	0xFF2
  5360                           postinc0	equ	0xFEE
  5361                           wreg	equ	0xFE8
  5362                           indf2	equ	0xFDF
  5363                           postinc2	equ	0xFDE
  5364                           postdec2	equ	0xFDD
  5365                           fsr2h	equ	0xFDA
  5366                           fsr2l	equ	0xFD9
  5367                           status	equ	0xFD8
  5368                           
  5369 ;; *************** function ___ftsub *****************
  5370 ;; Defined at:
  5371 ;;		line 20 in file "C:\Program Files (x86)\Microchip\xc8\v1.34\sources\common\ftsub.c"
  5372 ;; Parameters:    Size  Location     Type
  5373 ;;  f1              3   58[BANK0 ] float 
  5374 ;;  f2              3   61[BANK0 ] float 
  5375 ;; Auto vars:     Size  Location     Type
  5376 ;;		None
  5377 ;; Return value:  Size  Location     Type
  5378 ;;                  3   58[BANK0 ] float 
  5379 ;; Registers used:
  5380 ;;		wreg, status,2, status,0, cstack
  5381 ;; Tracked objects:
  5382 ;;		On entry : 0/0
  5383 ;;		On exit  : 0/0
  5384 ;;		Unchanged: 0/0
  5385 ;; Data sizes:     COMRAM   BANK0   BANK1   BANK2   BANK3   BANK4   BANK5   BANK6   BANK7
  5386 ;;      Params:         0       6       0       0       0       0       0       0       0
  5387 ;;      Locals:         0       0       0       0       0       0       0       0       0
  5388 ;;      Temps:          0       0       0       0       0       0       0       0       0
  5389 ;;      Totals:         0       6       0       0       0       0       0       0       0
  5390 ;;Total ram usage:        6 bytes
  5391 ;; Hardware stack levels used:    1
  5392 ;; Hardware stack levels required when called:   12
  5393 ;; This function calls:
  5394 ;;		___ftadd
  5395 ;; This function is called by:
  5396 ;;		_exp
  5397 ;; This function uses a non-reentrant model
  5398 ;;
  5399                           
  5400                           	psect	text22
  5401  002CE6                     __ptext22:
  5402                           	opt stack 0
  5403  002CE6                     ___ftsub:
  5404                           	opt stack 15
  5405                           
  5406                           ;incstack = 0
  5407  002CE6  0100               	movlb	0	; () banked
  5408  002CE8  519D               	movf	___ftsub@f2& (0+255),w,b
  5409  002CEA  0100               	movlb	0	; () banked
  5410  002CEC  119E               	iorwf	(___ftsub@f2+1)& (0+255),w,b
  5411  002CEE  0100               	movlb	0	; () banked
  5412  002CF0  119F               	iorwf	(___ftsub@f2+2)& (0+255),w,b
  5413  002CF2  B4D8               	btfsc	status,2,c
  5414  002CF4  D00A               	goto	l5541
  5415                           
  5416                           ; BSR set to: 0
  5417  002CF6  0E00               	movlw	0
  5418  002CF8  0100               	movlb	0	; () banked
  5419  002CFA  1B9D               	xorwf	___ftsub@f2& (0+255),f,b
  5420  002CFC  0E00               	movlw	0
  5421  002CFE  0100               	movlb	0	; () banked
  5422  002D00  1B9E               	xorwf	(___ftsub@f2+1)& (0+255),f,b
  5423  002D02  0E80               	movlw	128
  5424  002D04  0100               	movlb	0	; () banked
  5425  002D06  1B9F               	xorwf	(___ftsub@f2+2)& (0+255),f,b
  5426  002D08  D000               	goto	l5541
  5427  002D0A                     l5541:
  5428                           
  5429                           ; BSR set to: 0
  5430  002D0A  C09A  F08E         	movff	___ftsub@f1,___ftadd@f1
  5431  002D0E  C09B  F08F         	movff	___ftsub@f1+1,___ftadd@f1+1
  5432  002D12  C09C  F090         	movff	___ftsub@f1+2,___ftadd@f1+2
  5433  002D16  C09D  F091         	movff	___ftsub@f2,___ftadd@f2
  5434  002D1A  C09E  F092         	movff	___ftsub@f2+1,___ftadd@f2+1
  5435  002D1E  C09F  F093         	movff	___ftsub@f2+2,___ftadd@f2+2
  5436  002D22  EC00  F003         	call	___ftadd	;wreg free
  5437  002D26  C08E  F09A         	movff	?___ftadd,?___ftsub
  5438  002D2A  C08F  F09B         	movff	?___ftadd+1,?___ftsub+1
  5439  002D2E  C090  F09C         	movff	?___ftadd+2,?___ftsub+2
  5440  002D32  0012               	return	
  5441  002D34  0012               	return		;funcret
  5442  002D36                     __end_of___ftsub:
  5443                           	opt stack 0
  5444                           tblptru	equ	0xFF8
  5445                           tblptrh	equ	0xFF7
  5446                           tblptrl	equ	0xFF6
  5447                           tablat	equ	0xFF5
  5448                           prodh	equ	0xFF4
  5449                           prodl	equ	0xFF3
  5450                           intcon	equ	0xFF2
  5451                           postinc0	equ	0xFEE
  5452                           wreg	equ	0xFE8
  5453                           indf2	equ	0xFDF
  5454                           postinc2	equ	0xFDE
  5455                           postdec2	equ	0xFDD
  5456                           fsr2h	equ	0xFDA
  5457                           fsr2l	equ	0xFD9
  5458                           status	equ	0xFD8
  5459                           
  5460 ;; *************** function ___ftadd *****************
  5461 ;; Defined at:
  5462 ;;		line 86 in file "C:\Program Files (x86)\Microchip\xc8\v1.34\sources\common\ftadd.c"
  5463 ;; Parameters:    Size  Location     Type
  5464 ;;  f1              3   46[BANK0 ] float 
  5465 ;;  f2              3   49[BANK0 ] float 
  5466 ;; Auto vars:     Size  Location     Type
  5467 ;;  exp1            1   57[BANK0 ] unsigned char 
  5468 ;;  exp2            1   56[BANK0 ] unsigned char 
  5469 ;;  sign            1   55[BANK0 ] unsigned char 
  5470 ;; Return value:  Size  Location     Type
  5471 ;;                  3   46[BANK0 ] float 
  5472 ;; Registers used:
  5473 ;;		wreg, status,2, status,0, cstack
  5474 ;; Tracked objects:
  5475 ;;		On entry : 0/0
  5476 ;;		On exit  : 0/0
  5477 ;;		Unchanged: 0/0
  5478 ;; Data sizes:     COMRAM   BANK0   BANK1   BANK2   BANK3   BANK4   BANK5   BANK6   BANK7
  5479 ;;      Params:         0       6       0       0       0       0       0       0       0
  5480 ;;      Locals:         0       3       0       0       0       0       0       0       0
  5481 ;;      Temps:          0       3       0       0       0       0       0       0       0
  5482 ;;      Totals:         0      12       0       0       0       0       0       0       0
  5483 ;;Total ram usage:       12 bytes
  5484 ;; Hardware stack levels used:    1
  5485 ;; Hardware stack levels required when called:   11
  5486 ;; This function calls:
  5487 ;;		___ftpack
  5488 ;; This function is called by:
  5489 ;;		_APP_DeviceCustomHIDTasks
  5490 ;;		___ftsub
  5491 ;;		_floor
  5492 ;;		_log
  5493 ;;		_eval_poly
  5494 ;; This function uses a non-reentrant model
  5495 ;;
  5496                           
  5497                           	psect	text23
  5498  000600                     __ptext23:
  5499                           	opt stack 0
  5500  000600                     ___ftadd:
  5501                           	opt stack 15
  5502                           
  5503                           ;incstack = 0
  5504  000600  C090  F094         	movff	___ftadd@f1+2,??___ftadd
  5505  000604  0100               	movlb	0	; () banked
  5506  000606  6B95               	clrf	(??___ftadd+1)& (0+255),b
  5507  000608  6B96               	clrf	(??___ftadd+2)& (0+255),b
  5508  00060A  0100               	movlb	0	; () banked
  5509  00060C  358F               	rlcf	(___ftadd@f1+1)& (0+255),w,b
  5510  00060E  0100               	movlb	0	; () banked
  5511  000610  3794               	rlcf	??___ftadd& (0+255),f,b
  5512  000612  E301               	bnc	u5001
  5513  000614  8195               	bsf	(??___ftadd+1)& (0+255),0,b
  5514  000616                     u5001:
  5515  000616  0100               	movlb	0	; () banked
  5516  000618  5194               	movf	??___ftadd& (0+255),w,b
  5517  00061A  0100               	movlb	0	; () banked
  5518  00061C  6F99               	movwf	___ftadd@exp1& (0+255),b
  5519  00061E  C093  F094         	movff	___ftadd@f2+2,??___ftadd
  5520  000622  0100               	movlb	0	; () banked
  5521  000624  6B95               	clrf	(??___ftadd+1)& (0+255),b
  5522  000626  6B96               	clrf	(??___ftadd+2)& (0+255),b
  5523  000628  0100               	movlb	0	; () banked
  5524  00062A  3592               	rlcf	(___ftadd@f2+1)& (0+255),w,b
  5525  00062C  0100               	movlb	0	; () banked
  5526  00062E  3794               	rlcf	??___ftadd& (0+255),f,b
  5527  000630  E301               	bnc	u5011
  5528  000632  8195               	bsf	(??___ftadd+1)& (0+255),0,b
  5529  000634                     u5011:
  5530  000634  0100               	movlb	0	; () banked
  5531  000636  5194               	movf	??___ftadd& (0+255),w,b
  5532  000638  0100               	movlb	0	; () banked
  5533  00063A  6F98               	movwf	___ftadd@exp2& (0+255),b
  5534                           
  5535                           ; BSR set to: 0
  5536  00063C  0100               	movlb	0	; () banked
  5537  00063E  5199               	movf	___ftadd@exp1& (0+255),w,b
  5538  000640  0100               	movlb	0	; () banked
  5539  000642  B4D8               	btfsc	status,2,c
  5540  000644  D011               	goto	l1079
  5541                           
  5542                           ; BSR set to: 0
  5543  000646  0100               	movlb	0	; () banked
  5544  000648  5198               	movf	___ftadd@exp2& (0+255),w,b
  5545  00064A  0100               	movlb	0	; () banked
  5546  00064C  5D99               	subwf	___ftadd@exp1& (0+255),w,b
  5547  00064E  B0D8               	btfsc	status,0,c
  5548  000650  D012               	goto	l5331
  5549                           
  5550                           ; BSR set to: 0
  5551  000652  0100               	movlb	0	; () banked
  5552  000654  5199               	movf	___ftadd@exp1& (0+255),w,b
  5553  000656  0800               	sublw	0
  5554  000658  0100               	movlb	0	; () banked
  5555  00065A  2598               	addwf	___ftadd@exp2& (0+255),w,b
  5556  00065C  0100               	movlb	0	; () banked
  5557  00065E  6F94               	movwf	??___ftadd& (0+255),b
  5558  000660  0E18               	movlw	24
  5559  000662  0100               	movlb	0	; () banked
  5560  000664  6594               	cpfsgt	??___ftadd& (0+255),b
  5561  000666  D007               	goto	l5331
  5562  000668                     l1079:
  5563                           
  5564                           ; BSR set to: 0
  5565  000668  C091  F08E         	movff	___ftadd@f2,?___ftadd
  5566  00066C  C092  F08F         	movff	___ftadd@f2+1,?___ftadd+1
  5567  000670  C093  F090         	movff	___ftadd@f2+2,?___ftadd+2
  5568  000674  0012               	return	
  5569  000676                     l5331:
  5570                           
  5571                           ; BSR set to: 0
  5572  000676  0100               	movlb	0	; () banked
  5573  000678  5198               	movf	___ftadd@exp2& (0+255),w,b
  5574  00067A  0100               	movlb	0	; () banked
  5575  00067C  B4D8               	btfsc	status,2,c
  5576  00067E  D011               	goto	l1083
  5577                           
  5578                           ; BSR set to: 0
  5579  000680  0100               	movlb	0	; () banked
  5580  000682  5199               	movf	___ftadd@exp1& (0+255),w,b
  5581  000684  0100               	movlb	0	; () banked
  5582  000686  5D98               	subwf	___ftadd@exp2& (0+255),w,b
  5583  000688  B0D8               	btfsc	status,0,c
  5584  00068A  D012               	goto	l5337
  5585                           
  5586                           ; BSR set to: 0
  5587  00068C  0100               	movlb	0	; () banked
  5588  00068E  5198               	movf	___ftadd@exp2& (0+255),w,b
  5589  000690  0800               	sublw	0
  5590  000692  0100               	movlb	0	; () banked
  5591  000694  2599               	addwf	___ftadd@exp1& (0+255),w,b
  5592  000696  0100               	movlb	0	; () banked
  5593  000698  6F94               	movwf	??___ftadd& (0+255),b
  5594  00069A  0E18               	movlw	24
  5595  00069C  0100               	movlb	0	; () banked
  5596  00069E  6594               	cpfsgt	??___ftadd& (0+255),b
  5597  0006A0  D007               	goto	l5337
  5598  0006A2                     l1083:
  5599                           
  5600                           ; BSR set to: 0
  5601  0006A2  C08E  F08E         	movff	___ftadd@f1,?___ftadd
  5602  0006A6  C08F  F08F         	movff	___ftadd@f1+1,?___ftadd+1
  5603  0006AA  C090  F090         	movff	___ftadd@f1+2,?___ftadd+2
  5604  0006AE  0012               	return	
  5605  0006B0                     l5337:
  5606                           
  5607                           ; BSR set to: 0
  5608  0006B0  0E06               	movlw	6
  5609  0006B2  0100               	movlb	0	; () banked
  5610  0006B4  6F97               	movwf	___ftadd@sign& (0+255),b
  5611                           
  5612                           ; BSR set to: 0
  5613  0006B6  0100               	movlb	0	; () banked
  5614  0006B8  AF90               	btfss	(___ftadd@f1+2)& (0+255),7,b
  5615  0006BA  D003               	goto	l5343
  5616                           
  5617                           ; BSR set to: 0
  5618  0006BC  0100               	movlb	0	; () banked
  5619  0006BE  8F97               	bsf	___ftadd@sign& (0+255),7,b
  5620  0006C0  D000               	goto	l5343
  5621  0006C2                     l5343:
  5622                           
  5623                           ; BSR set to: 0
  5624  0006C2  0100               	movlb	0	; () banked
  5625  0006C4  AF93               	btfss	(___ftadd@f2+2)& (0+255),7,b
  5626  0006C6  D002               	goto	l1085
  5627                           
  5628                           ; BSR set to: 0
  5629  0006C8  0100               	movlb	0	; () banked
  5630  0006CA  8D97               	bsf	___ftadd@sign& (0+255),6,b
  5631  0006CC                     l1085:
  5632                           
  5633                           ; BSR set to: 0
  5634  0006CC  0100               	movlb	0	; () banked
  5635  0006CE  8F8F               	bsf	(___ftadd@f1+1)& (0+255),7,b
  5636                           
  5637                           ; BSR set to: 0
  5638  0006D0  0EFF               	movlw	255
  5639  0006D2  0100               	movlb	0	; () banked
  5640  0006D4  178E               	andwf	___ftadd@f1& (0+255),f,b
  5641  0006D6  0EFF               	movlw	255
  5642  0006D8  0100               	movlb	0	; () banked
  5643  0006DA  178F               	andwf	(___ftadd@f1+1)& (0+255),f,b
  5644  0006DC  0E00               	movlw	0
  5645  0006DE  0100               	movlb	0	; () banked
  5646  0006E0  1790               	andwf	(___ftadd@f1+2)& (0+255),f,b
  5647  0006E2  0100               	movlb	0	; () banked
  5648  0006E4  8F92               	bsf	(___ftadd@f2+1)& (0+255),7,b
  5649                           
  5650                           ; BSR set to: 0
  5651  0006E6  0EFF               	movlw	255
  5652  0006E8  0100               	movlb	0	; () banked
  5653  0006EA  1791               	andwf	___ftadd@f2& (0+255),f,b
  5654  0006EC  0EFF               	movlw	255
  5655  0006EE  0100               	movlb	0	; () banked
  5656  0006F0  1792               	andwf	(___ftadd@f2+1)& (0+255),f,b
  5657  0006F2  0E00               	movlw	0
  5658  0006F4  0100               	movlb	0	; () banked
  5659  0006F6  1793               	andwf	(___ftadd@f2+2)& (0+255),f,b
  5660                           
  5661                           ; BSR set to: 0
  5662  0006F8  0100               	movlb	0	; () banked
  5663  0006FA  5198               	movf	___ftadd@exp2& (0+255),w,b
  5664  0006FC  0100               	movlb	0	; () banked
  5665  0006FE  5D99               	subwf	___ftadd@exp1& (0+255),w,b
  5666  000700  B0D8               	btfsc	status,0,c
  5667  000702  D028               	goto	l5363
  5668  000704                     l5353:
  5669                           
  5670                           ; BSR set to: 0
  5671  000704  0100               	movlb	0	; () banked
  5672  000706  90D8               	bcf	status,0,c
  5673  000708  3791               	rlcf	___ftadd@f2& (0+255),f,b
  5674  00070A  3792               	rlcf	(___ftadd@f2+1)& (0+255),f,b
  5675  00070C  3793               	rlcf	(___ftadd@f2+2)& (0+255),f,b
  5676  00070E  0100               	movlb	0	; () banked
  5677  000710  0798               	decf	___ftadd@exp2& (0+255),f,b
  5678                           
  5679                           ; BSR set to: 0
  5680  000712  0100               	movlb	0	; () banked
  5681  000714  5199               	movf	___ftadd@exp1& (0+255),w,b
  5682  000716  0100               	movlb	0	; () banked
  5683  000718  1998               	xorwf	___ftadd@exp2& (0+255),w,b
  5684  00071A  B4D8               	btfsc	status,2,c
  5685  00071C  D013               	goto	l5361
  5686                           
  5687                           ; BSR set to: 0
  5688  00071E  0100               	movlb	0	; () banked
  5689  000720  0797               	decf	___ftadd@sign& (0+255),f,b
  5690  000722  C097  F094         	movff	___ftadd@sign,??___ftadd
  5691  000726  0E07               	movlw	7
  5692  000728  0100               	movlb	0	; () banked
  5693  00072A  1794               	andwf	??___ftadd& (0+255),f,b
  5694  00072C  B4D8               	btfsc	status,2,c
  5695  00072E  D00A               	goto	l5361
  5696  000730  D7E9               	goto	l5353
  5697                           
  5698                           ; BSR set to: 0
  5699                           
  5700                           ; BSR set to: 0
  5701  000732  D008               	goto	l5361
  5702  000734                     l5359:
  5703                           
  5704                           ; BSR set to: 0
  5705  000734  0100               	movlb	0	; () banked
  5706  000736  90D8               	bcf	status,0,c
  5707  000738  3390               	rrcf	(___ftadd@f1+2)& (0+255),f,b
  5708  00073A  338F               	rrcf	(___ftadd@f1+1)& (0+255),f,b
  5709  00073C  338E               	rrcf	___ftadd@f1& (0+255),f,b
  5710  00073E  0100               	movlb	0	; () banked
  5711  000740  2B99               	incf	___ftadd@exp1& (0+255),f,b
  5712  000742  D000               	goto	l5361
  5713  000744                     l5361:
  5714                           
  5715                           ; BSR set to: 0
  5716  000744  0100               	movlb	0	; () banked
  5717  000746  5198               	movf	___ftadd@exp2& (0+255),w,b
  5718  000748  0100               	movlb	0	; () banked
  5719  00074A  1999               	xorwf	___ftadd@exp1& (0+255),w,b
  5720  00074C  B4D8               	btfsc	status,2,c
  5721  00074E  D030               	goto	l1094
  5722  000750  D7F1               	goto	l5359
  5723                           
  5724                           ; BSR set to: 0
  5725  000752  D02E               	goto	l1094
  5726  000754                     l5363:
  5727                           
  5728                           ; BSR set to: 0
  5729  000754  0100               	movlb	0	; () banked
  5730  000756  5199               	movf	___ftadd@exp1& (0+255),w,b
  5731  000758  0100               	movlb	0	; () banked
  5732  00075A  5D98               	subwf	___ftadd@exp2& (0+255),w,b
  5733  00075C  B0D8               	btfsc	status,0,c
  5734  00075E  D028               	goto	l1094
  5735  000760                     l5365:
  5736                           
  5737                           ; BSR set to: 0
  5738  000760  0100               	movlb	0	; () banked
  5739  000762  90D8               	bcf	status,0,c
  5740  000764  378E               	rlcf	___ftadd@f1& (0+255),f,b
  5741  000766  378F               	rlcf	(___ftadd@f1+1)& (0+255),f,b
  5742  000768  3790               	rlcf	(___ftadd@f1+2)& (0+255),f,b
  5743  00076A  0100               	movlb	0	; () banked
  5744  00076C  0799               	decf	___ftadd@exp1& (0+255),f,b
  5745                           
  5746                           ; BSR set to: 0
  5747  00076E  0100               	movlb	0	; () banked
  5748  000770  5199               	movf	___ftadd@exp1& (0+255),w,b
  5749  000772  0100               	movlb	0	; () banked
  5750  000774  1998               	xorwf	___ftadd@exp2& (0+255),w,b
  5751  000776  B4D8               	btfsc	status,2,c
  5752  000778  D013               	goto	l5373
  5753                           
  5754                           ; BSR set to: 0
  5755  00077A  0100               	movlb	0	; () banked
  5756  00077C  0797               	decf	___ftadd@sign& (0+255),f,b
  5757  00077E  C097  F094         	movff	___ftadd@sign,??___ftadd
  5758  000782  0E07               	movlw	7
  5759  000784  0100               	movlb	0	; () banked
  5760  000786  1794               	andwf	??___ftadd& (0+255),f,b
  5761  000788  B4D8               	btfsc	status,2,c
  5762  00078A  D00A               	goto	l5373
  5763  00078C  D7E9               	goto	l5365
  5764                           
  5765                           ; BSR set to: 0
  5766                           
  5767                           ; BSR set to: 0
  5768  00078E  D008               	goto	l5373
  5769  000790                     l5371:
  5770                           
  5771                           ; BSR set to: 0
  5772  000790  0100               	movlb	0	; () banked
  5773  000792  90D8               	bcf	status,0,c
  5774  000794  3393               	rrcf	(___ftadd@f2+2)& (0+255),f,b
  5775  000796  3392               	rrcf	(___ftadd@f2+1)& (0+255),f,b
  5776  000798  3391               	rrcf	___ftadd@f2& (0+255),f,b
  5777  00079A  0100               	movlb	0	; () banked
  5778  00079C  2B98               	incf	___ftadd@exp2& (0+255),f,b
  5779  00079E  D000               	goto	l5373
  5780  0007A0                     l5373:
  5781                           
  5782                           ; BSR set to: 0
  5783  0007A0  0100               	movlb	0	; () banked
  5784  0007A2  5198               	movf	___ftadd@exp2& (0+255),w,b
  5785  0007A4  0100               	movlb	0	; () banked
  5786  0007A6  1999               	xorwf	___ftadd@exp1& (0+255),w,b
  5787  0007A8  B4D8               	btfsc	status,2,c
  5788  0007AA  D002               	goto	l1094
  5789  0007AC  D7F1               	goto	l5371
  5790                           
  5791                           ; BSR set to: 0
  5792  0007AE  D000               	goto	l1094
  5793  0007B0                     l1094:
  5794                           
  5795                           ; BSR set to: 0
  5796  0007B0  0100               	movlb	0	; () banked
  5797  0007B2  AF97               	btfss	___ftadd@sign& (0+255),7,b
  5798  0007B4  D012               	goto	l1103
  5799                           
  5800                           ; BSR set to: 0
  5801  0007B6  0EFF               	movlw	255
  5802  0007B8  0100               	movlb	0	; () banked
  5803  0007BA  1B8E               	xorwf	___ftadd@f1& (0+255),f,b
  5804  0007BC  0EFF               	movlw	255
  5805  0007BE  0100               	movlb	0	; () banked
  5806  0007C0  1B8F               	xorwf	(___ftadd@f1+1)& (0+255),f,b
  5807  0007C2  0EFF               	movlw	255
  5808  0007C4  0100               	movlb	0	; () banked
  5809  0007C6  1B90               	xorwf	(___ftadd@f1+2)& (0+255),f,b
  5810  0007C8  0E01               	movlw	1
  5811  0007CA  0100               	movlb	0	; () banked
  5812  0007CC  278E               	addwf	___ftadd@f1& (0+255),f,b
  5813  0007CE  0E00               	movlw	0
  5814  0007D0  0100               	movlb	0	; () banked
  5815  0007D2  238F               	addwfc	(___ftadd@f1+1)& (0+255),f,b
  5816  0007D4  0E00               	movlw	0
  5817  0007D6  0100               	movlb	0	; () banked
  5818  0007D8  2390               	addwfc	(___ftadd@f1+2)& (0+255),f,b
  5819  0007DA                     l1103:
  5820                           
  5821                           ; BSR set to: 0
  5822  0007DA  0100               	movlb	0	; () banked
  5823  0007DC  AD97               	btfss	___ftadd@sign& (0+255),6,b
  5824  0007DE  D013               	goto	l5379
  5825                           
  5826                           ; BSR set to: 0
  5827  0007E0  0EFF               	movlw	255
  5828  0007E2  0100               	movlb	0	; () banked
  5829  0007E4  1B91               	xorwf	___ftadd@f2& (0+255),f,b
  5830  0007E6  0EFF               	movlw	255
  5831  0007E8  0100               	movlb	0	; () banked
  5832  0007EA  1B92               	xorwf	(___ftadd@f2+1)& (0+255),f,b
  5833  0007EC  0EFF               	movlw	255
  5834  0007EE  0100               	movlb	0	; () banked
  5835  0007F0  1B93               	xorwf	(___ftadd@f2+2)& (0+255),f,b
  5836  0007F2  0E01               	movlw	1
  5837  0007F4  0100               	movlb	0	; () banked
  5838  0007F6  2791               	addwf	___ftadd@f2& (0+255),f,b
  5839  0007F8  0E00               	movlw	0
  5840  0007FA  0100               	movlb	0	; () banked
  5841  0007FC  2392               	addwfc	(___ftadd@f2+1)& (0+255),f,b
  5842  0007FE  0E00               	movlw	0
  5843  000800  0100               	movlb	0	; () banked
  5844  000802  2393               	addwfc	(___ftadd@f2+2)& (0+255),f,b
  5845  000804  D000               	goto	l5379
  5846  000806                     l5379:
  5847                           
  5848                           ; BSR set to: 0
  5849  000806  0E00               	movlw	0
  5850  000808  0100               	movlb	0	; () banked
  5851  00080A  6F97               	movwf	___ftadd@sign& (0+255),b
  5852                           
  5853                           ; BSR set to: 0
  5854  00080C  0100               	movlb	0	; () banked
  5855  00080E  518E               	movf	___ftadd@f1& (0+255),w,b
  5856  000810  0100               	movlb	0	; () banked
  5857  000812  2791               	addwf	___ftadd@f2& (0+255),f,b
  5858  000814  0100               	movlb	0	; () banked
  5859  000816  518F               	movf	(___ftadd@f1+1)& (0+255),w,b
  5860  000818  0100               	movlb	0	; () banked
  5861  00081A  2392               	addwfc	(___ftadd@f2+1)& (0+255),f,b
  5862  00081C  0100               	movlb	0	; () banked
  5863  00081E  5190               	movf	(___ftadd@f1+2)& (0+255),w,b
  5864  000820  0100               	movlb	0	; () banked
  5865  000822  2393               	addwfc	(___ftadd@f2+2)& (0+255),f,b
  5866                           
  5867                           ; BSR set to: 0
  5868  000824  0100               	movlb	0	; () banked
  5869  000826  AF93               	btfss	(___ftadd@f2+2)& (0+255),7,b
  5870  000828  D016               	goto	l5389
  5871                           
  5872                           ; BSR set to: 0
  5873  00082A  0EFF               	movlw	255
  5874  00082C  0100               	movlb	0	; () banked
  5875  00082E  1B91               	xorwf	___ftadd@f2& (0+255),f,b
  5876  000830  0EFF               	movlw	255
  5877  000832  0100               	movlb	0	; () banked
  5878  000834  1B92               	xorwf	(___ftadd@f2+1)& (0+255),f,b
  5879  000836  0EFF               	movlw	255
  5880  000838  0100               	movlb	0	; () banked
  5881  00083A  1B93               	xorwf	(___ftadd@f2+2)& (0+255),f,b
  5882  00083C  0E01               	movlw	1
  5883  00083E  0100               	movlb	0	; () banked
  5884  000840  2791               	addwf	___ftadd@f2& (0+255),f,b
  5885  000842  0E00               	movlw	0
  5886  000844  0100               	movlb	0	; () banked
  5887  000846  2392               	addwfc	(___ftadd@f2+1)& (0+255),f,b
  5888  000848  0E00               	movlw	0
  5889  00084A  0100               	movlb	0	; () banked
  5890  00084C  2393               	addwfc	(___ftadd@f2+2)& (0+255),f,b
  5891                           
  5892                           ; BSR set to: 0
  5893  00084E  0E01               	movlw	1
  5894  000850  0100               	movlb	0	; () banked
  5895  000852  6F97               	movwf	___ftadd@sign& (0+255),b
  5896  000854  D000               	goto	l5389
  5897  000856                     l5389:
  5898                           
  5899                           ; BSR set to: 0
  5900  000856  C091  F060         	movff	___ftadd@f2,___ftpack@arg
  5901  00085A  C092  F061         	movff	___ftadd@f2+1,___ftpack@arg+1
  5902  00085E  C093  F062         	movff	___ftadd@f2+2,___ftpack@arg+2
  5903  000862  C099  F063         	movff	___ftadd@exp1,___ftpack@exp
  5904  000866  C097  F064         	movff	___ftadd@sign,___ftpack@sign
  5905  00086A  EC08  F00C         	call	___ftpack	;wreg free
  5906  00086E  C060  F08E         	movff	?___ftpack,?___ftadd
  5907  000872  C061  F08F         	movff	?___ftpack+1,?___ftadd+1
  5908  000876  C062  F090         	movff	?___ftpack+2,?___ftadd+2
  5909  00087A  0012               	return	
  5910  00087C  0012               	return		;funcret
  5911  00087E                     __end_of___ftadd:
  5912                           	opt stack 0
  5913                           tblptru	equ	0xFF8
  5914                           tblptrh	equ	0xFF7
  5915                           tblptrl	equ	0xFF6
  5916                           tablat	equ	0xFF5
  5917                           prodh	equ	0xFF4
  5918                           prodl	equ	0xFF3
  5919                           intcon	equ	0xFF2
  5920                           postinc0	equ	0xFEE
  5921                           wreg	equ	0xFE8
  5922                           indf2	equ	0xFDF
  5923                           postinc2	equ	0xFDE
  5924                           postdec2	equ	0xFDD
  5925                           fsr2h	equ	0xFDA
  5926                           fsr2l	equ	0xFD9
  5927                           status	equ	0xFD8
  5928                           
  5929 ;; *************** function ___ftneg *****************
  5930 ;; Defined at:
  5931 ;;		line 15 in file "C:\Program Files (x86)\Microchip\xc8\v1.34\sources\common\ftneg.c"
  5932 ;; Parameters:    Size  Location     Type
  5933 ;;  f1              3    0[BANK0 ] float 
  5934 ;; Auto vars:     Size  Location     Type
  5935 ;;		None
  5936 ;; Return value:  Size  Location     Type
  5937 ;;                  3    0[BANK0 ] float 
  5938 ;; Registers used:
  5939 ;;		wreg, status,2, status,0
  5940 ;; Tracked objects:
  5941 ;;		On entry : 0/0
  5942 ;;		On exit  : 0/0
  5943 ;;		Unchanged: 0/0
  5944 ;; Data sizes:     COMRAM   BANK0   BANK1   BANK2   BANK3   BANK4   BANK5   BANK6   BANK7
  5945 ;;      Params:         0       3       0       0       0       0       0       0       0
  5946 ;;      Locals:         0       0       0       0       0       0       0       0       0
  5947 ;;      Temps:          0       0       0       0       0       0       0       0       0
  5948 ;;      Totals:         0       3       0       0       0       0       0       0       0
  5949 ;;Total ram usage:        3 bytes
  5950 ;; Hardware stack levels used:    1
  5951 ;; Hardware stack levels required when called:   10
  5952 ;; This function calls:
  5953 ;;		Nothing
  5954 ;; This function is called by:
  5955 ;;		_pow
  5956 ;;		_exp
  5957 ;; This function uses a non-reentrant model
  5958 ;;
  5959                           
  5960                           	psect	text24
  5961  002F80                     __ptext24:
  5962                           	opt stack 0
  5963  002F80                     ___ftneg:
  5964                           	opt stack 17
  5965                           
  5966                           ;incstack = 0
  5967  002F80  0100               	movlb	0	; () banked
  5968  002F82  5160               	movf	___ftneg@f1& (0+255),w,b
  5969  002F84  0100               	movlb	0	; () banked
  5970  002F86  1161               	iorwf	(___ftneg@f1+1)& (0+255),w,b
  5971  002F88  0100               	movlb	0	; () banked
  5972  002F8A  1162               	iorwf	(___ftneg@f1+2)& (0+255),w,b
  5973  002F8C  B4D8               	btfsc	status,2,c
  5974  002F8E  D009               	goto	l1136
  5975                           
  5976                           ; BSR set to: 0
  5977  002F90  0E00               	movlw	0
  5978  002F92  0100               	movlb	0	; () banked
  5979  002F94  1B60               	xorwf	___ftneg@f1& (0+255),f,b
  5980  002F96  0E00               	movlw	0
  5981  002F98  0100               	movlb	0	; () banked
  5982  002F9A  1B61               	xorwf	(___ftneg@f1+1)& (0+255),f,b
  5983  002F9C  0E80               	movlw	128
  5984  002F9E  0100               	movlb	0	; () banked
  5985  002FA0  1B62               	xorwf	(___ftneg@f1+2)& (0+255),f,b
  5986  002FA2                     l1136:
  5987                           
  5988                           ; BSR set to: 0
  5989  002FA2  C060  F060         	movff	___ftneg@f1,?___ftneg
  5990  002FA6  C061  F061         	movff	___ftneg@f1+1,?___ftneg+1
  5991  002FAA  C062  F062         	movff	___ftneg@f1+2,?___ftneg+2
  5992                           
  5993                           ; BSR set to: 0
  5994  002FAE  0012               	return		;funcret
  5995  002FB0                     __end_of___ftneg:
  5996                           	opt stack 0
  5997                           tblptru	equ	0xFF8
  5998                           tblptrh	equ	0xFF7
  5999                           tblptrl	equ	0xFF6
  6000                           tablat	equ	0xFF5
  6001                           prodh	equ	0xFF4
  6002                           prodl	equ	0xFF3
  6003                           intcon	equ	0xFF2
  6004                           postinc0	equ	0xFEE
  6005                           wreg	equ	0xFE8
  6006                           indf2	equ	0xFDF
  6007                           postinc2	equ	0xFDE
  6008                           postdec2	equ	0xFDD
  6009                           fsr2h	equ	0xFDA
  6010                           fsr2l	equ	0xFD9
  6011                           status	equ	0xFD8
  6012                           
  6013 ;; *************** function ___ftdiv *****************
  6014 ;; Defined at:
  6015 ;;		line 54 in file "C:\Program Files (x86)\Microchip\xc8\v1.34\sources\common\ftdiv.c"
  6016 ;; Parameters:    Size  Location     Type
  6017 ;;  f1              3   31[BANK0 ] float 
  6018 ;;  f2              3   34[BANK0 ] float 
  6019 ;; Auto vars:     Size  Location     Type
  6020 ;;  f3              3   41[BANK0 ] float 
  6021 ;;  sign            1   45[BANK0 ] unsigned char 
  6022 ;;  exp             1   44[BANK0 ] unsigned char 
  6023 ;;  cntr            1   40[BANK0 ] unsigned char 
  6024 ;; Return value:  Size  Location     Type
  6025 ;;                  3   31[BANK0 ] float 
  6026 ;; Registers used:
  6027 ;;		wreg, status,2, status,0, cstack
  6028 ;; Tracked objects:
  6029 ;;		On entry : 0/0
  6030 ;;		On exit  : 0/0
  6031 ;;		Unchanged: 0/0
  6032 ;; Data sizes:     COMRAM   BANK0   BANK1   BANK2   BANK3   BANK4   BANK5   BANK6   BANK7
  6033 ;;      Params:         0       6       0       0       0       0       0       0       0
  6034 ;;      Locals:         0       6       0       0       0       0       0       0       0
  6035 ;;      Temps:          0       3       0       0       0       0       0       0       0
  6036 ;;      Totals:         0      15       0       0       0       0       0       0       0
  6037 ;;Total ram usage:       15 bytes
  6038 ;; Hardware stack levels used:    1
  6039 ;; Hardware stack levels required when called:   11
  6040 ;; This function calls:
  6041 ;;		___ftpack
  6042 ;; This function is called by:
  6043 ;;		_APP_DeviceCustomHIDTasks
  6044 ;;		_exp
  6045 ;; This function uses a non-reentrant model
  6046 ;;
  6047                           
  6048                           	psect	text25
  6049  0011E4                     __ptext25:
  6050                           	opt stack 0
  6051  0011E4                     ___ftdiv:
  6052                           	opt stack 16
  6053                           
  6054                           ; BSR set to: 0
  6055                           ;incstack = 0
  6056  0011E4  C081  F085         	movff	___ftdiv@f1+2,??___ftdiv
  6057  0011E8  0100               	movlb	0	; () banked
  6058  0011EA  6B86               	clrf	(??___ftdiv+1)& (0+255),b
  6059  0011EC  6B87               	clrf	(??___ftdiv+2)& (0+255),b
  6060  0011EE  0100               	movlb	0	; () banked
  6061  0011F0  3580               	rlcf	(___ftdiv@f1+1)& (0+255),w,b
  6062  0011F2  0100               	movlb	0	; () banked
  6063  0011F4  3785               	rlcf	??___ftdiv& (0+255),f,b
  6064  0011F6  E301               	bnc	u5321
  6065  0011F8  8186               	bsf	(??___ftdiv+1)& (0+255),0,b
  6066  0011FA                     u5321:
  6067  0011FA  0100               	movlb	0	; () banked
  6068  0011FC  5185               	movf	??___ftdiv& (0+255),w,b
  6069  0011FE  0100               	movlb	0	; () banked
  6070  001200  6F8C               	movwf	___ftdiv@exp& (0+255),b
  6071  001202  0100               	movlb	0	; () banked
  6072  001204  518C               	movf	___ftdiv@exp& (0+255),w,b
  6073  001206  A4D8               	btfss	status,2,c
  6074  001208  D00A               	goto	l5497
  6075                           
  6076                           ; BSR set to: 0
  6077  00120A  0E00               	movlw	0
  6078  00120C  0100               	movlb	0	; () banked
  6079  00120E  6F7F               	movwf	?___ftdiv& (0+255),b
  6080  001210  0E00               	movlw	0
  6081  001212  0100               	movlb	0	; () banked
  6082  001214  6F80               	movwf	(?___ftdiv+1)& (0+255),b
  6083  001216  0E00               	movlw	0
  6084  001218  0100               	movlb	0	; () banked
  6085  00121A  6F81               	movwf	(?___ftdiv+2)& (0+255),b
  6086                           
  6087                           ; BSR set to: 0
  6088  00121C  0012               	return	
  6089  00121E                     l5497:
  6090                           
  6091                           ; BSR set to: 0
  6092  00121E  C084  F085         	movff	___ftdiv@f2+2,??___ftdiv
  6093  001222  0100               	movlb	0	; () banked
  6094  001224  6B86               	clrf	(??___ftdiv+1)& (0+255),b
  6095  001226  6B87               	clrf	(??___ftdiv+2)& (0+255),b
  6096  001228  0100               	movlb	0	; () banked
  6097  00122A  3583               	rlcf	(___ftdiv@f2+1)& (0+255),w,b
  6098  00122C  0100               	movlb	0	; () banked
  6099  00122E  3785               	rlcf	??___ftdiv& (0+255),f,b
  6100  001230  E301               	bnc	u5341
  6101  001232  8186               	bsf	(??___ftdiv+1)& (0+255),0,b
  6102  001234                     u5341:
  6103  001234  0100               	movlb	0	; () banked
  6104  001236  5185               	movf	??___ftdiv& (0+255),w,b
  6105  001238  0100               	movlb	0	; () banked
  6106  00123A  6F8D               	movwf	___ftdiv@sign& (0+255),b
  6107  00123C  0100               	movlb	0	; () banked
  6108  00123E  518D               	movf	___ftdiv@sign& (0+255),w,b
  6109  001240  A4D8               	btfss	status,2,c
  6110  001242  D00A               	goto	l5503
  6111                           
  6112                           ; BSR set to: 0
  6113  001244  0E00               	movlw	0
  6114  001246  0100               	movlb	0	; () banked
  6115  001248  6F7F               	movwf	?___ftdiv& (0+255),b
  6116  00124A  0E00               	movlw	0
  6117  00124C  0100               	movlb	0	; () banked
  6118  00124E  6F80               	movwf	(?___ftdiv+1)& (0+255),b
  6119  001250  0E00               	movlw	0
  6120  001252  0100               	movlb	0	; () banked
  6121  001254  6F81               	movwf	(?___ftdiv+2)& (0+255),b
  6122                           
  6123                           ; BSR set to: 0
  6124  001256  0012               	return	
  6125  001258                     l5503:
  6126                           
  6127                           ; BSR set to: 0
  6128  001258  0E00               	movlw	0
  6129  00125A  0100               	movlb	0	; () banked
  6130  00125C  6F89               	movwf	___ftdiv@f3& (0+255),b
  6131  00125E  0E00               	movlw	0
  6132  001260  0100               	movlb	0	; () banked
  6133  001262  6F8A               	movwf	(___ftdiv@f3+1)& (0+255),b
  6134  001264  0E00               	movlw	0
  6135  001266  0100               	movlb	0	; () banked
  6136  001268  6F8B               	movwf	(___ftdiv@f3+2)& (0+255),b
  6137                           
  6138                           ; BSR set to: 0
  6139  00126A  0100               	movlb	0	; () banked
  6140  00126C  518D               	movf	___ftdiv@sign& (0+255),w,b
  6141  00126E  0F89               	addlw	137
  6142  001270  0100               	movlb	0	; () banked
  6143  001272  5F8C               	subwf	___ftdiv@exp& (0+255),f,b
  6144                           
  6145                           ; BSR set to: 0
  6146  001274  C081  F08D         	movff	___ftdiv@f1+2,___ftdiv@sign
  6147                           
  6148                           ; BSR set to: 0
  6149  001278  0100               	movlb	0	; () banked
  6150  00127A  5184               	movf	(___ftdiv@f2+2)& (0+255),w,b
  6151  00127C  0100               	movlb	0	; () banked
  6152  00127E  1B8D               	xorwf	___ftdiv@sign& (0+255),f,b
  6153                           
  6154                           ; BSR set to: 0
  6155  001280  0E80               	movlw	128
  6156  001282  0100               	movlb	0	; () banked
  6157  001284  178D               	andwf	___ftdiv@sign& (0+255),f,b
  6158                           
  6159                           ; BSR set to: 0
  6160  001286  0100               	movlb	0	; () banked
  6161  001288  8F80               	bsf	(___ftdiv@f1+1)& (0+255),7,b
  6162                           
  6163                           ; BSR set to: 0
  6164  00128A  0EFF               	movlw	255
  6165  00128C  0100               	movlb	0	; () banked
  6166  00128E  177F               	andwf	___ftdiv@f1& (0+255),f,b
  6167  001290  0EFF               	movlw	255
  6168  001292  0100               	movlb	0	; () banked
  6169  001294  1780               	andwf	(___ftdiv@f1+1)& (0+255),f,b
  6170  001296  0E00               	movlw	0
  6171  001298  0100               	movlb	0	; () banked
  6172  00129A  1781               	andwf	(___ftdiv@f1+2)& (0+255),f,b
  6173                           
  6174                           ; BSR set to: 0
  6175  00129C  0100               	movlb	0	; () banked
  6176  00129E  8F83               	bsf	(___ftdiv@f2+1)& (0+255),7,b
  6177                           
  6178                           ; BSR set to: 0
  6179  0012A0  0EFF               	movlw	255
  6180  0012A2  0100               	movlb	0	; () banked
  6181  0012A4  1782               	andwf	___ftdiv@f2& (0+255),f,b
  6182  0012A6  0EFF               	movlw	255
  6183  0012A8  0100               	movlb	0	; () banked
  6184  0012AA  1783               	andwf	(___ftdiv@f2+1)& (0+255),f,b
  6185  0012AC  0E00               	movlw	0
  6186  0012AE  0100               	movlb	0	; () banked
  6187  0012B0  1784               	andwf	(___ftdiv@f2+2)& (0+255),f,b
  6188                           
  6189                           ; BSR set to: 0
  6190  0012B2  0E18               	movlw	24
  6191  0012B4  0100               	movlb	0	; () banked
  6192  0012B6  6F88               	movwf	___ftdiv@cntr& (0+255),b
  6193  0012B8  D000               	goto	l5523
  6194  0012BA                     l5523:
  6195                           
  6196                           ; BSR set to: 0
  6197  0012BA  0100               	movlb	0	; () banked
  6198  0012BC  90D8               	bcf	status,0,c
  6199  0012BE  3789               	rlcf	___ftdiv@f3& (0+255),f,b
  6200  0012C0  378A               	rlcf	(___ftdiv@f3+1)& (0+255),f,b
  6201  0012C2  378B               	rlcf	(___ftdiv@f3+2)& (0+255),f,b
  6202                           
  6203                           ; BSR set to: 0
  6204  0012C4  0100               	movlb	0	; () banked
  6205  0012C6  5182               	movf	___ftdiv@f2& (0+255),w,b
  6206  0012C8  0100               	movlb	0	; () banked
  6207  0012CA  5D7F               	subwf	___ftdiv@f1& (0+255),w,b
  6208  0012CC  0100               	movlb	0	; () banked
  6209  0012CE  5183               	movf	(___ftdiv@f2+1)& (0+255),w,b
  6210  0012D0  0100               	movlb	0	; () banked
  6211  0012D2  5980               	subwfb	(___ftdiv@f1+1)& (0+255),w,b
  6212  0012D4  0100               	movlb	0	; () banked
  6213  0012D6  5184               	movf	(___ftdiv@f2+2)& (0+255),w,b
  6214  0012D8  0100               	movlb	0	; () banked
  6215  0012DA  5981               	subwfb	(___ftdiv@f1+2)& (0+255),w,b
  6216  0012DC  A0D8               	btfss	status,0,c
  6217  0012DE  D00E               	goto	l1114
  6218                           
  6219                           ; BSR set to: 0
  6220  0012E0  0100               	movlb	0	; () banked
  6221  0012E2  5182               	movf	___ftdiv@f2& (0+255),w,b
  6222  0012E4  0100               	movlb	0	; () banked
  6223  0012E6  5F7F               	subwf	___ftdiv@f1& (0+255),f,b
  6224  0012E8  0100               	movlb	0	; () banked
  6225  0012EA  5183               	movf	(___ftdiv@f2+1)& (0+255),w,b
  6226  0012EC  0100               	movlb	0	; () banked
  6227  0012EE  5B80               	subwfb	(___ftdiv@f1+1)& (0+255),f,b
  6228  0012F0  0100               	movlb	0	; () banked
  6229  0012F2  5184               	movf	(___ftdiv@f2+2)& (0+255),w,b
  6230  0012F4  0100               	movlb	0	; () banked
  6231  0012F6  5B81               	subwfb	(___ftdiv@f1+2)& (0+255),f,b
  6232                           
  6233                           ; BSR set to: 0
  6234  0012F8  0100               	movlb	0	; () banked
  6235  0012FA  8189               	bsf	___ftdiv@f3& (0+255),0,b
  6236  0012FC                     l1114:
  6237                           
  6238                           ; BSR set to: 0
  6239  0012FC  0100               	movlb	0	; () banked
  6240  0012FE  90D8               	bcf	status,0,c
  6241  001300  377F               	rlcf	___ftdiv@f1& (0+255),f,b
  6242  001302  3780               	rlcf	(___ftdiv@f1+1)& (0+255),f,b
  6243  001304  3781               	rlcf	(___ftdiv@f1+2)& (0+255),f,b
  6244                           
  6245                           ; BSR set to: 0
  6246  001306  0100               	movlb	0	; () banked
  6247  001308  2F88               	decfsz	___ftdiv@cntr& (0+255),f,b
  6248  00130A  D7D7               	goto	l5523
  6249  00130C  D000               	goto	l5533
  6250  00130E                     l5533:
  6251                           
  6252                           ; BSR set to: 0
  6253  00130E  C089  F060         	movff	___ftdiv@f3,___ftpack@arg
  6254  001312  C08A  F061         	movff	___ftdiv@f3+1,___ftpack@arg+1
  6255  001316  C08B  F062         	movff	___ftdiv@f3+2,___ftpack@arg+2
  6256  00131A  C08C  F063         	movff	___ftdiv@exp,___ftpack@exp
  6257  00131E  C08D  F064         	movff	___ftdiv@sign,___ftpack@sign
  6258  001322  EC08  F00C         	call	___ftpack	;wreg free
  6259  001326  C060  F07F         	movff	?___ftpack,?___ftdiv
  6260  00132A  C061  F080         	movff	?___ftpack+1,?___ftdiv+1
  6261  00132E  C062  F081         	movff	?___ftpack+2,?___ftdiv+2
  6262  001332  0012               	return	
  6263  001334  0012               	return		;funcret
  6264  001336                     __end_of___ftdiv:
  6265                           	opt stack 0
  6266                           tblptru	equ	0xFF8
  6267                           tblptrh	equ	0xFF7
  6268                           tblptrl	equ	0xFF6
  6269                           tablat	equ	0xFF5
  6270                           prodh	equ	0xFF4
  6271                           prodl	equ	0xFF3
  6272                           intcon	equ	0xFF2
  6273                           postinc0	equ	0xFEE
  6274                           wreg	equ	0xFE8
  6275                           indf2	equ	0xFDF
  6276                           postinc2	equ	0xFDE
  6277                           postdec2	equ	0xFDD
  6278                           fsr2h	equ	0xFDA
  6279                           fsr2l	equ	0xFD9
  6280                           status	equ	0xFD8
  6281                           
  6282 ;; *************** function ___awtoft *****************
  6283 ;; Defined at:
  6284 ;;		line 32 in file "C:\Program Files (x86)\Microchip\xc8\v1.34\sources\common\awtoft.c"
  6285 ;; Parameters:    Size  Location     Type
  6286 ;;  c               2    8[BANK0 ] int 
  6287 ;; Auto vars:     Size  Location     Type
  6288 ;;  sign            1   11[BANK0 ] unsigned char 
  6289 ;; Return value:  Size  Location     Type
  6290 ;;                  3    8[BANK0 ] float 
  6291 ;; Registers used:
  6292 ;;		wreg, status,2, status,0, cstack
  6293 ;; Tracked objects:
  6294 ;;		On entry : 0/0
  6295 ;;		On exit  : 0/0
  6296 ;;		Unchanged: 0/0
  6297 ;; Data sizes:     COMRAM   BANK0   BANK1   BANK2   BANK3   BANK4   BANK5   BANK6   BANK7
  6298 ;;      Params:         0       3       0       0       0       0       0       0       0
  6299 ;;      Locals:         0       1       0       0       0       0       0       0       0
  6300 ;;      Temps:          0       0       0       0       0       0       0       0       0
  6301 ;;      Totals:         0       4       0       0       0       0       0       0       0
  6302 ;;Total ram usage:        4 bytes
  6303 ;; Hardware stack levels used:    1
  6304 ;; Hardware stack levels required when called:   11
  6305 ;; This function calls:
  6306 ;;		___ftpack
  6307 ;; This function is called by:
  6308 ;;		_exp
  6309 ;;		_log
  6310 ;; This function uses a non-reentrant model
  6311 ;;
  6312                           
  6313                           	psect	text26
  6314  002D36                     __ptext26:
  6315                           	opt stack 0
  6316  002D36                     ___awtoft:
  6317                           	opt stack 16
  6318                           
  6319                           ;incstack = 0
  6320  002D36  0E00               	movlw	0
  6321  002D38  0100               	movlb	0	; () banked
  6322  002D3A  6F6B               	movwf	___awtoft@sign& (0+255),b
  6323                           
  6324                           ; BSR set to: 0
  6325  002D3C  0100               	movlb	0	; () banked
  6326  002D3E  AF69               	btfss	(___awtoft@c+1)& (0+255),7,b
  6327  002D40  D009               	goto	l5553
  6328                           
  6329                           ; BSR set to: 0
  6330  002D42  0100               	movlb	0	; () banked
  6331  002D44  6D68               	negf	___awtoft@c& (0+255),b
  6332  002D46  1F69               	comf	(___awtoft@c+1)& (0+255),f,b
  6333  002D48  B0D8               	btfsc	status,0,c
  6334  002D4A  2B69               	incf	(___awtoft@c+1)& (0+255),f,b
  6335                           
  6336                           ; BSR set to: 0
  6337  002D4C  0E01               	movlw	1
  6338  002D4E  0100               	movlb	0	; () banked
  6339  002D50  6F6B               	movwf	___awtoft@sign& (0+255),b
  6340  002D52  D000               	goto	l5553
  6341  002D54                     l5553:
  6342                           
  6343                           ; BSR set to: 0
  6344  002D54  C068  F060         	movff	___awtoft@c,___ftpack@arg
  6345  002D58  C069  F061         	movff	___awtoft@c+1,___ftpack@arg+1
  6346  002D5C  0100               	movlb	0	; () banked
  6347  002D5E  6B62               	clrf	(___ftpack@arg+2)& (0+255),b
  6348  002D60  0E8E               	movlw	142
  6349  002D62  0100               	movlb	0	; () banked
  6350  002D64  6F63               	movwf	___ftpack@exp& (0+255),b
  6351  002D66  C06B  F064         	movff	___awtoft@sign,___ftpack@sign
  6352  002D6A  EC08  F00C         	call	___ftpack	;wreg free
  6353  002D6E  C060  F068         	movff	?___ftpack,?___awtoft
  6354  002D72  C061  F069         	movff	?___ftpack+1,?___awtoft+1
  6355  002D76  C062  F06A         	movff	?___ftpack+2,?___awtoft+2
  6356  002D7A  0012               	return	
  6357  002D7C  0012               	return		;funcret
  6358  002D7E                     __end_of___awtoft:
  6359                           	opt stack 0
  6360                           tblptru	equ	0xFF8
  6361                           tblptrh	equ	0xFF7
  6362                           tblptrl	equ	0xFF6
  6363                           tablat	equ	0xFF5
  6364                           prodh	equ	0xFF4
  6365                           prodl	equ	0xFF3
  6366                           intcon	equ	0xFF2
  6367                           postinc0	equ	0xFEE
  6368                           wreg	equ	0xFE8
  6369                           indf2	equ	0xFDF
  6370                           postinc2	equ	0xFDE
  6371                           postdec2	equ	0xFDD
  6372                           fsr2h	equ	0xFDA
  6373                           fsr2l	equ	0xFD9
  6374                           status	equ	0xFD8
  6375                           
  6376 ;; *************** function ___lltoft *****************
  6377 ;; Defined at:
  6378 ;;		line 35 in file "C:\Program Files (x86)\Microchip\xc8\v1.34\sources\common\lltoft.c"
  6379 ;; Parameters:    Size  Location     Type
  6380 ;;  c               4    8[BANK0 ] unsigned long 
  6381 ;; Auto vars:     Size  Location     Type
  6382 ;;  exp             1   16[BANK0 ] unsigned char 
  6383 ;; Return value:  Size  Location     Type
  6384 ;;                  3    8[BANK0 ] float 
  6385 ;; Registers used:
  6386 ;;		wreg, status,2, status,0, cstack
  6387 ;; Tracked objects:
  6388 ;;		On entry : 0/0
  6389 ;;		On exit  : 0/0
  6390 ;;		Unchanged: 0/0
  6391 ;; Data sizes:     COMRAM   BANK0   BANK1   BANK2   BANK3   BANK4   BANK5   BANK6   BANK7
  6392 ;;      Params:         0       4       0       0       0       0       0       0       0
  6393 ;;      Locals:         0       1       0       0       0       0       0       0       0
  6394 ;;      Temps:          0       4       0       0       0       0       0       0       0
  6395 ;;      Totals:         0       9       0       0       0       0       0       0       0
  6396 ;;Total ram usage:        9 bytes
  6397 ;; Hardware stack levels used:    1
  6398 ;; Hardware stack levels required when called:   11
  6399 ;; This function calls:
  6400 ;;		___ftpack
  6401 ;; This function is called by:
  6402 ;;		_pow
  6403 ;; This function uses a non-reentrant model
  6404 ;;
  6405                           
  6406                           	psect	text27
  6407  002A88                     __ptext27:
  6408                           	opt stack 0
  6409  002A88                     ___lltoft:
  6410                           	opt stack 17
  6411                           
  6412                           ;incstack = 0
  6413  002A88  0E8E               	movlw	142
  6414  002A8A  0100               	movlb	0	; () banked
  6415  002A8C  6F70               	movwf	___lltoft@exp& (0+255),b
  6416  002A8E  D009               	goto	l5623
  6417  002A90                     l5621:
  6418                           
  6419                           ; BSR set to: 0
  6420  002A90  0100               	movlb	0	; () banked
  6421  002A92  90D8               	bcf	status,0,c
  6422  002A94  336B               	rrcf	(___lltoft@c+3)& (0+255),f,b
  6423  002A96  336A               	rrcf	(___lltoft@c+2)& (0+255),f,b
  6424  002A98  3369               	rrcf	(___lltoft@c+1)& (0+255),f,b
  6425  002A9A  3368               	rrcf	___lltoft@c& (0+255),f,b
  6426  002A9C  0100               	movlb	0	; () banked
  6427  002A9E  2B70               	incf	___lltoft@exp& (0+255),f,b
  6428  002AA0  D000               	goto	l5623
  6429  002AA2                     l5623:
  6430                           
  6431                           ; BSR set to: 0
  6432  002AA2  0E00               	movlw	0
  6433  002AA4  0100               	movlb	0	; () banked
  6434  002AA6  1568               	andwf	___lltoft@c& (0+255),w,b
  6435  002AA8  0100               	movlb	0	; () banked
  6436  002AAA  6F6C               	movwf	??___lltoft& (0+255),b
  6437  002AAC  0E00               	movlw	0
  6438  002AAE  0100               	movlb	0	; () banked
  6439  002AB0  1569               	andwf	(___lltoft@c+1)& (0+255),w,b
  6440  002AB2  0100               	movlb	0	; () banked
  6441  002AB4  6F6D               	movwf	(??___lltoft+1)& (0+255),b
  6442  002AB6  0E00               	movlw	0
  6443  002AB8  0100               	movlb	0	; () banked
  6444  002ABA  156A               	andwf	(___lltoft@c+2)& (0+255),w,b
  6445  002ABC  0100               	movlb	0	; () banked
  6446  002ABE  6F6E               	movwf	(??___lltoft+2)& (0+255),b
  6447  002AC0  0EFF               	movlw	255
  6448  002AC2  0100               	movlb	0	; () banked
  6449  002AC4  156B               	andwf	(___lltoft@c+3)& (0+255),w,b
  6450  002AC6  0100               	movlb	0	; () banked
  6451  002AC8  6F6F               	movwf	(??___lltoft+3)& (0+255),b
  6452  002ACA  0100               	movlb	0	; () banked
  6453  002ACC  516C               	movf	??___lltoft& (0+255),w,b
  6454  002ACE  0100               	movlb	0	; () banked
  6455  002AD0  116D               	iorwf	(??___lltoft+1)& (0+255),w,b
  6456  002AD2  0100               	movlb	0	; () banked
  6457  002AD4  116E               	iorwf	(??___lltoft+2)& (0+255),w,b
  6458  002AD6  0100               	movlb	0	; () banked
  6459  002AD8  116F               	iorwf	(??___lltoft+3)& (0+255),w,b
  6460  002ADA  A4D8               	btfss	status,2,c
  6461  002ADC  D7D9               	goto	l5621
  6462                           
  6463                           ; BSR set to: 0
  6464                           
  6465                           ; BSR set to: 0
  6466  002ADE  C068  F060         	movff	___lltoft@c,___ftpack@arg
  6467  002AE2  C069  F061         	movff	___lltoft@c+1,___ftpack@arg+1
  6468  002AE6  C06A  F062         	movff	___lltoft@c+2,___ftpack@arg+2
  6469  002AEA  C070  F063         	movff	___lltoft@exp,___ftpack@exp
  6470  002AEE  0E00               	movlw	0
  6471  002AF0  0100               	movlb	0	; () banked
  6472  002AF2  6F64               	movwf	___ftpack@sign& (0+255),b
  6473  002AF4  EC08  F00C         	call	___ftpack	;wreg free
  6474  002AF8  C060  F068         	movff	?___ftpack,?___lltoft
  6475  002AFC  C061  F069         	movff	?___ftpack+1,?___lltoft+1
  6476  002B00  C062  F06A         	movff	?___ftpack+2,?___lltoft+2
  6477  002B04  0012               	return	
  6478  002B06  0012               	return		;funcret
  6479  002B08                     __end_of___lltoft:
  6480                           	opt stack 0
  6481                           tblptru	equ	0xFF8
  6482                           tblptrh	equ	0xFF7
  6483                           tblptrl	equ	0xFF6
  6484                           tablat	equ	0xFF5
  6485                           prodh	equ	0xFF4
  6486                           prodl	equ	0xFF3
  6487                           intcon	equ	0xFF2
  6488                           postinc0	equ	0xFEE
  6489                           wreg	equ	0xFE8
  6490                           indf2	equ	0xFDF
  6491                           postinc2	equ	0xFDE
  6492                           postdec2	equ	0xFDD
  6493                           fsr2h	equ	0xFDA
  6494                           fsr2l	equ	0xFD9
  6495                           status	equ	0xFD8
  6496                           
  6497 ;; *************** function ___lbtoft *****************
  6498 ;; Defined at:
  6499 ;;		line 27 in file "C:\Program Files (x86)\Microchip\xc8\v1.34\sources\common\lbtoft.c"
  6500 ;; Parameters:    Size  Location     Type
  6501 ;;  c               1    wreg     unsigned char 
  6502 ;; Auto vars:     Size  Location     Type
  6503 ;;  c               1   11[BANK0 ] unsigned char 
  6504 ;; Return value:  Size  Location     Type
  6505 ;;                  3    8[BANK0 ] float 
  6506 ;; Registers used:
  6507 ;;		wreg, status,2, status,0, cstack
  6508 ;; Tracked objects:
  6509 ;;		On entry : 0/0
  6510 ;;		On exit  : 0/0
  6511 ;;		Unchanged: 0/0
  6512 ;; Data sizes:     COMRAM   BANK0   BANK1   BANK2   BANK3   BANK4   BANK5   BANK6   BANK7
  6513 ;;      Params:         0       3       0       0       0       0       0       0       0
  6514 ;;      Locals:         0       1       0       0       0       0       0       0       0
  6515 ;;      Temps:          0       0       0       0       0       0       0       0       0
  6516 ;;      Totals:         0       4       0       0       0       0       0       0       0
  6517 ;;Total ram usage:        4 bytes
  6518 ;; Hardware stack levels used:    1
  6519 ;; Hardware stack levels required when called:   11
  6520 ;; This function calls:
  6521 ;;		___ftpack
  6522 ;; This function is called by:
  6523 ;;		_APP_DeviceCustomHIDTasks
  6524 ;; This function uses a non-reentrant model
  6525 ;;
  6526                           
  6527                           	psect	text28
  6528  002FB0                     __ptext28:
  6529                           	opt stack 0
  6530  002FB0                     ___lbtoft:
  6531                           	opt stack 18
  6532                           
  6533                           ;incstack = 0
  6534                           ;___lbtoft@c stored from wreg
  6535  002FB0  0100               	movlb	0	; () banked
  6536  002FB2  6F6B               	movwf	___lbtoft@c& (0+255),b
  6537                           
  6538                           ; BSR set to: 0
  6539  002FB4  0100               	movlb	0	; () banked
  6540  002FB6  516B               	movf	___lbtoft@c& (0+255),w,b
  6541  002FB8  0100               	movlb	0	; () banked
  6542  002FBA  6F60               	movwf	___ftpack@arg& (0+255),b
  6543  002FBC  6B61               	clrf	(___ftpack@arg+1)& (0+255),b
  6544  002FBE  6B62               	clrf	(___ftpack@arg+2)& (0+255),b
  6545  002FC0  0E8E               	movlw	142
  6546  002FC2  0100               	movlb	0	; () banked
  6547  002FC4  6F63               	movwf	___ftpack@exp& (0+255),b
  6548  002FC6  0E00               	movlw	0
  6549  002FC8  0100               	movlb	0	; () banked
  6550  002FCA  6F64               	movwf	___ftpack@sign& (0+255),b
  6551  002FCC  EC08  F00C         	call	___ftpack	;wreg free
  6552  002FD0  C060  F068         	movff	?___ftpack,?___lbtoft
  6553  002FD4  C061  F069         	movff	?___ftpack+1,?___lbtoft+1
  6554  002FD8  C062  F06A         	movff	?___ftpack+2,?___lbtoft+2
  6555  002FDC  0012               	return	
  6556  002FDE  0012               	return		;funcret
  6557  002FE0                     __end_of___lbtoft:
  6558                           	opt stack 0
  6559                           tblptru	equ	0xFF8
  6560                           tblptrh	equ	0xFF7
  6561                           tblptrl	equ	0xFF6
  6562                           tablat	equ	0xFF5
  6563                           prodh	equ	0xFF4
  6564                           prodl	equ	0xFF3
  6565                           intcon	equ	0xFF2
  6566                           postinc0	equ	0xFEE
  6567                           wreg	equ	0xFE8
  6568                           indf2	equ	0xFDF
  6569                           postinc2	equ	0xFDE
  6570                           postdec2	equ	0xFDD
  6571                           fsr2h	equ	0xFDA
  6572                           fsr2l	equ	0xFD9
  6573                           status	equ	0xFD8
  6574                           
  6575 ;; *************** function ___ftpack *****************
  6576 ;; Defined at:
  6577 ;;		line 62 in file "C:\Program Files (x86)\Microchip\xc8\v1.34\sources\common\float.c"
  6578 ;; Parameters:    Size  Location     Type
  6579 ;;  arg             3    0[BANK0 ] unsigned um
  6580 ;;  exp             1    3[BANK0 ] unsigned char 
  6581 ;;  sign            1    4[BANK0 ] unsigned char 
  6582 ;; Auto vars:     Size  Location     Type
  6583 ;;		None
  6584 ;; Return value:  Size  Location     Type
  6585 ;;                  3    0[BANK0 ] float 
  6586 ;; Registers used:
  6587 ;;		wreg, status,2, status,0
  6588 ;; Tracked objects:
  6589 ;;		On entry : 0/0
  6590 ;;		On exit  : 0/0
  6591 ;;		Unchanged: 0/0
  6592 ;; Data sizes:     COMRAM   BANK0   BANK1   BANK2   BANK3   BANK4   BANK5   BANK6   BANK7
  6593 ;;      Params:         0       5       0       0       0       0       0       0       0
  6594 ;;      Locals:         0       0       0       0       0       0       0       0       0
  6595 ;;      Temps:          0       3       0       0       0       0       0       0       0
  6596 ;;      Totals:         0       8       0       0       0       0       0       0       0
  6597 ;;Total ram usage:        8 bytes
  6598 ;; Hardware stack levels used:    1
  6599 ;; Hardware stack levels required when called:   10
  6600 ;; This function calls:
  6601 ;;		Nothing
  6602 ;; This function is called by:
  6603 ;;		___altoft
  6604 ;;		___awtoft
  6605 ;;		___ftadd
  6606 ;;		___ftdiv
  6607 ;;		___ftmul
  6608 ;;		___lbtoft
  6609 ;;		___lltoft
  6610 ;; This function uses a non-reentrant model
  6611 ;;
  6612                           
  6613                           	psect	text29
  6614  001810                     __ptext29:
  6615                           	opt stack 0
  6616  001810                     ___ftpack:
  6617                           	opt stack 15
  6618                           
  6619                           ;incstack = 0
  6620  001810  0100               	movlb	0	; () banked
  6621  001812  5163               	movf	___ftpack@exp& (0+255),w,b
  6622  001814  0100               	movlb	0	; () banked
  6623  001816  B4D8               	btfsc	status,2,c
  6624  001818  D008               	goto	l5269
  6625                           
  6626                           ; BSR set to: 0
  6627  00181A  0100               	movlb	0	; () banked
  6628  00181C  5160               	movf	___ftpack@arg& (0+255),w,b
  6629  00181E  0100               	movlb	0	; () banked
  6630  001820  1161               	iorwf	(___ftpack@arg+1)& (0+255),w,b
  6631  001822  0100               	movlb	0	; () banked
  6632  001824  1162               	iorwf	(___ftpack@arg+2)& (0+255),w,b
  6633  001826  A4D8               	btfss	status,2,c
  6634  001828  D013               	goto	l5275
  6635  00182A                     l5269:
  6636                           
  6637                           ; BSR set to: 0
  6638  00182A  0E00               	movlw	0
  6639  00182C  0100               	movlb	0	; () banked
  6640  00182E  6F60               	movwf	?___ftpack& (0+255),b
  6641  001830  0E00               	movlw	0
  6642  001832  0100               	movlb	0	; () banked
  6643  001834  6F61               	movwf	(?___ftpack+1)& (0+255),b
  6644  001836  0E00               	movlw	0
  6645  001838  0100               	movlb	0	; () banked
  6646  00183A  6F62               	movwf	(?___ftpack+2)& (0+255),b
  6647                           
  6648                           ; BSR set to: 0
  6649  00183C  0012               	return	
  6650                           
  6651                           ; BSR set to: 0
  6652  00183E  D008               	goto	l5275
  6653  001840                     l5273:
  6654                           
  6655                           ; BSR set to: 0
  6656  001840  0100               	movlb	0	; () banked
  6657  001842  2B63               	incf	___ftpack@exp& (0+255),f,b
  6658  001844  0100               	movlb	0	; () banked
  6659  001846  90D8               	bcf	status,0,c
  6660  001848  3362               	rrcf	(___ftpack@arg+2)& (0+255),f,b
  6661  00184A  3361               	rrcf	(___ftpack@arg+1)& (0+255),f,b
  6662  00184C  3360               	rrcf	___ftpack@arg& (0+255),f,b
  6663  00184E  D000               	goto	l5275
  6664  001850                     l5275:
  6665                           
  6666                           ; BSR set to: 0
  6667  001850  0E00               	movlw	0
  6668  001852  0100               	movlb	0	; () banked
  6669  001854  1560               	andwf	___ftpack@arg& (0+255),w,b
  6670  001856  0100               	movlb	0	; () banked
  6671  001858  6F65               	movwf	??___ftpack& (0+255),b
  6672  00185A  0E00               	movlw	0
  6673  00185C  0100               	movlb	0	; () banked
  6674  00185E  1561               	andwf	(___ftpack@arg+1)& (0+255),w,b
  6675  001860  0100               	movlb	0	; () banked
  6676  001862  6F66               	movwf	(??___ftpack+1)& (0+255),b
  6677  001864  0EFE               	movlw	254
  6678  001866  0100               	movlb	0	; () banked
  6679  001868  1562               	andwf	(___ftpack@arg+2)& (0+255),w,b
  6680  00186A  0100               	movlb	0	; () banked
  6681  00186C  6F67               	movwf	(??___ftpack+2)& (0+255),b
  6682  00186E  0100               	movlb	0	; () banked
  6683  001870  5165               	movf	??___ftpack& (0+255),w,b
  6684  001872  0100               	movlb	0	; () banked
  6685  001874  1166               	iorwf	(??___ftpack+1)& (0+255),w,b
  6686  001876  0100               	movlb	0	; () banked
  6687  001878  1167               	iorwf	(??___ftpack+2)& (0+255),w,b
  6688  00187A  B4D8               	btfsc	status,2,c
  6689  00187C  D013               	goto	l5281
  6690  00187E  D7E0               	goto	l5273
  6691                           
  6692                           ; BSR set to: 0
  6693  001880  D011               	goto	l5281
  6694  001882                     l5277:
  6695                           
  6696                           ; BSR set to: 0
  6697  001882  0100               	movlb	0	; () banked
  6698  001884  2B63               	incf	___ftpack@exp& (0+255),f,b
  6699                           
  6700                           ; BSR set to: 0
  6701  001886  0E01               	movlw	1
  6702  001888  0100               	movlb	0	; () banked
  6703  00188A  2760               	addwf	___ftpack@arg& (0+255),f,b
  6704  00188C  0E00               	movlw	0
  6705  00188E  0100               	movlb	0	; () banked
  6706  001890  2361               	addwfc	(___ftpack@arg+1)& (0+255),f,b
  6707  001892  0E00               	movlw	0
  6708  001894  0100               	movlb	0	; () banked
  6709  001896  2362               	addwfc	(___ftpack@arg+2)& (0+255),f,b
  6710  001898  0100               	movlb	0	; () banked
  6711  00189A  90D8               	bcf	status,0,c
  6712  00189C  3362               	rrcf	(___ftpack@arg+2)& (0+255),f,b
  6713  00189E  3361               	rrcf	(___ftpack@arg+1)& (0+255),f,b
  6714  0018A0  3360               	rrcf	___ftpack@arg& (0+255),f,b
  6715  0018A2  D000               	goto	l5281
  6716  0018A4                     l5281:
  6717                           
  6718                           ; BSR set to: 0
  6719  0018A4  0E00               	movlw	0
  6720  0018A6  0100               	movlb	0	; () banked
  6721  0018A8  1560               	andwf	___ftpack@arg& (0+255),w,b
  6722  0018AA  0100               	movlb	0	; () banked
  6723  0018AC  6F65               	movwf	??___ftpack& (0+255),b
  6724  0018AE  0E00               	movlw	0
  6725  0018B0  0100               	movlb	0	; () banked
  6726  0018B2  1561               	andwf	(___ftpack@arg+1)& (0+255),w,b
  6727  0018B4  0100               	movlb	0	; () banked
  6728  0018B6  6F66               	movwf	(??___ftpack+1)& (0+255),b
  6729  0018B8  0EFF               	movlw	255
  6730  0018BA  0100               	movlb	0	; () banked
  6731  0018BC  1562               	andwf	(___ftpack@arg+2)& (0+255),w,b
  6732  0018BE  0100               	movlb	0	; () banked
  6733  0018C0  6F67               	movwf	(??___ftpack+2)& (0+255),b
  6734  0018C2  0100               	movlb	0	; () banked
  6735  0018C4  5165               	movf	??___ftpack& (0+255),w,b
  6736  0018C6  0100               	movlb	0	; () banked
  6737  0018C8  1166               	iorwf	(??___ftpack+1)& (0+255),w,b
  6738  0018CA  0100               	movlb	0	; () banked
  6739  0018CC  1167               	iorwf	(??___ftpack+2)& (0+255),w,b
  6740  0018CE  B4D8               	btfsc	status,2,c
  6741  0018D0  D00A               	goto	l5285
  6742  0018D2  D7D7               	goto	l5277
  6743                           
  6744                           ; BSR set to: 0
  6745  0018D4  D008               	goto	l5285
  6746  0018D6                     l5283:
  6747                           
  6748                           ; BSR set to: 0
  6749  0018D6  0100               	movlb	0	; () banked
  6750  0018D8  0763               	decf	___ftpack@exp& (0+255),f,b
  6751  0018DA  0100               	movlb	0	; () banked
  6752  0018DC  90D8               	bcf	status,0,c
  6753  0018DE  3760               	rlcf	___ftpack@arg& (0+255),f,b
  6754  0018E0  3761               	rlcf	(___ftpack@arg+1)& (0+255),f,b
  6755  0018E2  3762               	rlcf	(___ftpack@arg+2)& (0+255),f,b
  6756  0018E4  D000               	goto	l5285
  6757  0018E6                     l5285:
  6758                           
  6759                           ; BSR set to: 0
  6760  0018E6  0100               	movlb	0	; () banked
  6761  0018E8  BF61               	btfsc	(___ftpack@arg+1)& (0+255),7,b
  6762  0018EA  D005               	goto	l1050
  6763                           
  6764                           ; BSR set to: 0
  6765  0018EC  0E02               	movlw	2
  6766  0018EE  0100               	movlb	0	; () banked
  6767  0018F0  6163               	cpfslt	___ftpack@exp& (0+255),b
  6768  0018F2  D7F1               	goto	l5283
  6769  0018F4  D000               	goto	l1050
  6770  0018F6                     l1050:
  6771                           
  6772                           ; BSR set to: 0
  6773  0018F6  0100               	movlb	0	; () banked
  6774  0018F8  B163               	btfsc	___ftpack@exp& (0+255),0,b
  6775  0018FA  D003               	goto	l5291
  6776                           
  6777                           ; BSR set to: 0
  6778  0018FC  0100               	movlb	0	; () banked
  6779  0018FE  9F61               	bcf	(___ftpack@arg+1)& (0+255),7,b
  6780  001900  D000               	goto	l5291
  6781  001902                     l5291:
  6782                           
  6783                           ; BSR set to: 0
  6784  001902  0100               	movlb	0	; () banked
  6785  001904  90D8               	bcf	status,0,c
  6786  001906  3363               	rrcf	___ftpack@exp& (0+255),f,b
  6787  001908  0100               	movlb	0	; () banked
  6788  00190A  5163               	movf	___ftpack@exp& (0+255),w,b
  6789  00190C  0100               	movlb	0	; () banked
  6790  00190E  1362               	iorwf	(___ftpack@arg+2)& (0+255),f,b
  6791                           
  6792                           ; BSR set to: 0
  6793  001910  0100               	movlb	0	; () banked
  6794  001912  5164               	movf	___ftpack@sign& (0+255),w,b
  6795  001914  0100               	movlb	0	; () banked
  6796  001916  B4D8               	btfsc	status,2,c
  6797  001918  D003               	goto	l5297
  6798                           
  6799                           ; BSR set to: 0
  6800  00191A  0100               	movlb	0	; () banked
  6801  00191C  8F62               	bsf	(___ftpack@arg+2)& (0+255),7,b
  6802  00191E  D000               	goto	l5297
  6803  001920                     l5297:
  6804                           
  6805                           ; BSR set to: 0
  6806  001920  C060  F060         	movff	___ftpack@arg,?___ftpack
  6807  001924  C061  F061         	movff	___ftpack@arg+1,?___ftpack+1
  6808  001928  C062  F062         	movff	___ftpack@arg+2,?___ftpack+2
  6809  00192C  0012               	return	
  6810                           
  6811                           ; BSR set to: 0
  6812                           
  6813                           ; BSR set to: 0
  6814  00192E  0012               	return		;funcret
  6815  001930                     __end_of___ftpack:
  6816                           	opt stack 0
  6817                           tblptru	equ	0xFF8
  6818                           tblptrh	equ	0xFF7
  6819                           tblptrl	equ	0xFF6
  6820                           tablat	equ	0xFF5
  6821                           prodh	equ	0xFF4
  6822                           prodl	equ	0xFF3
  6823                           intcon	equ	0xFF2
  6824                           postinc0	equ	0xFEE
  6825                           wreg	equ	0xFE8
  6826                           indf2	equ	0xFDF
  6827                           postinc2	equ	0xFDE
  6828                           postdec2	equ	0xFDD
  6829                           fsr2h	equ	0xFDA
  6830                           fsr2l	equ	0xFD9
  6831                           status	equ	0xFD8
  6832                           
  6833 ;; *************** function _USBTransferOnePacket *****************
  6834 ;; Defined at:
  6835 ;;		line 1013 in file "../../../../../../microchip/mla/v2015_08_10/framework/usb/src/usb_device.c"
  6836 ;; Parameters:    Size  Location     Type
  6837 ;;  ep              1    wreg     unsigned char 
  6838 ;;  dir             1    0[BANK0 ] unsigned char 
  6839 ;;  data            2    1[BANK0 ] PTR unsigned char 
  6840 ;;		 -> ToSendDataBuffer(64), ReceivedDataBuffer(64), 
  6841 ;;  len             1    3[BANK0 ] unsigned char 
  6842 ;; Auto vars:     Size  Location     Type
  6843 ;;  ep              1    4[BANK0 ] unsigned char 
  6844 ;;  handle          2    5[BANK0 ] PTR volatile struct __BD
  6845 ;;		 -> BDT(32), NULL(0), 
  6846 ;; Return value:  Size  Location     Type
  6847 ;;                  2    0[BANK0 ] PTR void 
  6848 ;; Registers used:
  6849 ;;		wreg, fsr2l, fsr2h, status,2, status,0, prodl, prodh
  6850 ;; Tracked objects:
  6851 ;;		On entry : 0/0
  6852 ;;		On exit  : 0/0
  6853 ;;		Unchanged: 0/0
  6854 ;; Data sizes:     COMRAM   BANK0   BANK1   BANK2   BANK3   BANK4   BANK5   BANK6   BANK7
  6855 ;;      Params:         0       4       0       0       0       0       0       0       0
  6856 ;;      Locals:         0       3       0       0       0       0       0       0       0
  6857 ;;      Temps:          0       0       0       0       0       0       0       0       0
  6858 ;;      Totals:         0       7       0       0       0       0       0       0       0
  6859 ;;Total ram usage:        7 bytes
  6860 ;; Hardware stack levels used:    1
  6861 ;; Hardware stack levels required when called:   10
  6862 ;; This function calls:
  6863 ;;		Nothing
  6864 ;; This function is called by:
  6865 ;;		_APP_DeviceCustomHIDTasks
  6866 ;; This function uses a non-reentrant model
  6867 ;;
  6868                           
  6869                           	psect	text30
  6870  001F00                     __ptext30:
  6871                           	opt stack 0
  6872  001F00                     _USBTransferOnePacket:
  6873                           	opt stack 19
  6874                           
  6875                           ; BSR set to: 0
  6876                           ;incstack = 0
  6877                           ;USBTransferOnePacket@ep stored from wreg
  6878  001F00  0100               	movlb	0	; () banked
  6879  001F02  6F64               	movwf	USBTransferOnePacket@ep& (0+255),b
  6880                           
  6881                           ; BSR set to: 0
  6882                           ;usb_device.c: 1015: volatile BDT_ENTRY* handle;
  6883                           ;usb_device.c: 1018: if(dir != 0)
  6884  001F04  0100               	movlb	0	; () banked
  6885  001F06  5160               	movf	USBTransferOnePacket@dir& (0+255),w,b
  6886  001F08  0100               	movlb	0	; () banked
  6887  001F0A  B4D8               	btfsc	status,2,c
  6888  001F0C  D008               	goto	l5769
  6889                           
  6890                           ; BSR set to: 0
  6891                           ;usb_device.c: 1019: {
  6892                           ;usb_device.c: 1021: handle = pBDTEntryIn[ep];
  6893  001F0E  0100               	movlb	0	; () banked
  6894  001F10  5164               	movf	USBTransferOnePacket@ep& (0+255),w,b
  6895  001F12  0D02               	mullw	2
  6896  001F14  0E09               	movlw	low _pBDTEntryIn
  6897  001F16  24F3               	addwf	prodl,w,c
  6898  001F18  6ED9               	movwf	fsr2l,c
  6899  001F1A  0E00               	movlw	high _pBDTEntryIn
  6900  001F1C  D007               	goto	L6
  6901  001F1E                     l5769:
  6902                           
  6903                           ; BSR set to: 0
  6904                           ;usb_device.c: 1023: else
  6905                           ;usb_device.c: 1024: {
  6906                           ;usb_device.c: 1026: handle = pBDTEntryOut[ep];
  6907  001F1E  0100               	movlb	0	; () banked
  6908  001F20  5164               	movf	USBTransferOnePacket@ep& (0+255),w,b
  6909  001F22  0D02               	mullw	2
  6910  001F24  0EE6               	movlw	low _pBDTEntryOut
  6911  001F26  24F3               	addwf	prodl,w,c
  6912  001F28  6ED9               	movwf	fsr2l,c
  6913  001F2A  0E00               	movlw	high _pBDTEntryOut
  6914  001F2C                     L6:
  6915  001F2C  20F4               	addwfc	prodh,w,c
  6916  001F2E  6EDA               	movwf	fsr2h,c
  6917  001F30  CFDE F065          	movff	postinc2,USBTransferOnePacket@handle
  6918  001F34  CFDD F066          	movff	postdec2,USBTransferOnePacket@handle+1
  6919  001F38  D000               	goto	l5771
  6920  001F3A                     l5771:
  6921                           
  6922                           ; BSR set to: 0
  6923                           ;usb_device.c: 1027: }
  6924                           ;usb_device.c: 1031: if(handle == 0)
  6925  001F3A  0100               	movlb	0	; () banked
  6926  001F3C  5165               	movf	USBTransferOnePacket@handle& (0+255),w,b
  6927  001F3E  0100               	movlb	0	; () banked
  6928  001F40  1166               	iorwf	(USBTransferOnePacket@handle+1)& (0+255),w,b
  6929  001F42  A4D8               	btfss	status,2,c
  6930  001F44  D007               	goto	l5777
  6931                           
  6932                           ; BSR set to: 0
  6933                           ;usb_device.c: 1032: {
  6934                           ;usb_device.c: 1033: return 0;
  6935  001F46  0E00               	movlw	0
  6936  001F48  0100               	movlb	0	; () banked
  6937  001F4A  6F60               	movwf	?_USBTransferOnePacket& (0+255),b
  6938  001F4C  0E00               	movlw	0
  6939  001F4E  0100               	movlb	0	; () banked
  6940  001F50  6F61               	movwf	(?_USBTransferOnePacket+1)& (0+255),b
  6941                           
  6942                           ; BSR set to: 0
  6943  001F52  0012               	return	
  6944  001F54                     l5777:
  6945                           
  6946                           ; BSR set to: 0
  6947                           ;usb_device.c: 1034: }
  6948                           ;usb_device.c: 1047: handle->ADR = ((uint16_t)(data));
  6949  001F54  0100               	movlb	0	; () banked
  6950  001F56  EE20 F002          	lfsr	2,2
  6951  001F5A  5165               	movf	USBTransferOnePacket@handle& (0+255),w,b
  6952  001F5C  26D9               	addwf	fsr2l,f,c
  6953  001F5E  5166               	movf	(USBTransferOnePacket@handle+1)& (0+255),w,b
  6954  001F60  22DA               	addwfc	fsr2h,f,c
  6955  001F62  C061  FFDE         	movff	USBTransferOnePacket@data,postinc2
  6956  001F66  C062  FFDD         	movff	USBTransferOnePacket@data+1,postdec2
  6957                           
  6958                           ;usb_device.c: 1048: handle->CNT = len;
  6959  001F6A  0100               	movlb	0	; () banked
  6960  001F6C  EE20 F001          	lfsr	2,1
  6961  001F70  5165               	movf	USBTransferOnePacket@handle& (0+255),w,b
  6962  001F72  26D9               	addwf	fsr2l,f,c
  6963  001F74  5166               	movf	(USBTransferOnePacket@handle+1)& (0+255),w,b
  6964  001F76  22DA               	addwfc	fsr2h,f,c
  6965  001F78  C063  FFDF         	movff	USBTransferOnePacket@len,indf2
  6966                           
  6967                           ; BSR set to: 0
  6968                           ;usb_device.c: 1049: handle->STAT.Val &= 0x40;
  6969  001F7C  C065  FFD9         	movff	USBTransferOnePacket@handle,fsr2l
  6970  001F80  C066  FFDA         	movff	USBTransferOnePacket@handle+1,fsr2h
  6971  001F84  0E40               	movlw	64
  6972  001F86  16DF               	andwf	indf2,f,c
  6973                           
  6974                           ; BSR set to: 0
  6975                           ;usb_device.c: 1050: handle->STAT.Val |= (0x08 & 0x08);
  6976  001F88  C065  FFD9         	movff	USBTransferOnePacket@handle,fsr2l
  6977  001F8C  C066  FFDA         	movff	USBTransferOnePacket@handle+1,fsr2h
  6978  001F90  0E00               	movlw	0
  6979  001F92  86DB               	bsf	plusw2,3,c
  6980                           
  6981                           ; BSR set to: 0
  6982                           ;usb_device.c: 1051: handle->STAT.Val |= 0x80;
  6983  001F94  C065  FFD9         	movff	USBTransferOnePacket@handle,fsr2l
  6984  001F98  C066  FFDA         	movff	USBTransferOnePacket@handle+1,fsr2h
  6985  001F9C  0E00               	movlw	0
  6986  001F9E  8EDB               	bsf	plusw2,7,c
  6987                           
  6988                           ; BSR set to: 0
  6989                           ;usb_device.c: 1054: if(dir != 0)
  6990  001FA0  0100               	movlb	0	; () banked
  6991  001FA2  5160               	movf	USBTransferOnePacket@dir& (0+255),w,b
  6992  001FA4  0100               	movlb	0	; () banked
  6993  001FA6  B4D8               	btfsc	status,2,c
  6994  001FA8  D008               	goto	l5789
  6995                           
  6996                           ; BSR set to: 0
  6997                           ;usb_device.c: 1055: {
  6998                           ;usb_device.c: 1057: {((uint8_t_VAL*)&pBDTEntryIn[ep])->Val ^= 0x0004;};
  6999  001FAA  0100               	movlb	0	; () banked
  7000  001FAC  5164               	movf	USBTransferOnePacket@ep& (0+255),w,b
  7001  001FAE  0D02               	mullw	2
  7002  001FB0  0E09               	movlw	low _pBDTEntryIn
  7003  001FB2  24F3               	addwf	prodl,w,c
  7004  001FB4  6ED9               	movwf	fsr2l,c
  7005  001FB6  0E00               	movlw	high _pBDTEntryIn
  7006  001FB8  D007               	goto	L7
  7007  001FBA                     l5789:
  7008                           
  7009                           ; BSR set to: 0
  7010                           ;usb_device.c: 1059: else
  7011                           ;usb_device.c: 1060: {
  7012                           ;usb_device.c: 1062: {((uint8_t_VAL*)&pBDTEntryOut[ep])->Val ^= 0x0004;};
  7013  001FBA  0100               	movlb	0	; () banked
  7014  001FBC  5164               	movf	USBTransferOnePacket@ep& (0+255),w,b
  7015  001FBE  0D02               	mullw	2
  7016  001FC0  0EE6               	movlw	low _pBDTEntryOut
  7017  001FC2  24F3               	addwf	prodl,w,c
  7018  001FC4  6ED9               	movwf	fsr2l,c
  7019  001FC6  0E00               	movlw	high _pBDTEntryOut
  7020  001FC8                     L7:
  7021  001FC8  20F4               	addwfc	prodh,w,c
  7022  001FCA  6EDA               	movwf	fsr2h,c
  7023  001FCC  0E04               	movlw	4
  7024  001FCE  1ADF               	xorwf	indf2,f,c
  7025  001FD0  D000               	goto	l5791
  7026  001FD2                     l5791:
  7027                           
  7028                           ; BSR set to: 0
  7029                           ;usb_device.c: 1063: }
  7030                           ;usb_device.c: 1064: return (void*)handle;
  7031  001FD2  C065  F060         	movff	USBTransferOnePacket@handle,?_USBTransferOnePacket
  7032  001FD6  C066  F061         	movff	USBTransferOnePacket@handle+1,?_USBTransferOnePacket+1
  7033  001FDA  0012               	return	
  7034                           
  7035                           ; BSR set to: 0
  7036                           
  7037                           ; BSR set to: 0
  7038  001FDC  0012               	return		;funcret
  7039  001FDE                     __end_of_USBTransferOnePacket:
  7040                           	opt stack 0
  7041                           tblptru	equ	0xFF8
  7042                           tblptrh	equ	0xFF7
  7043                           tblptrl	equ	0xFF6
  7044                           tablat	equ	0xFF5
  7045                           prodh	equ	0xFF4
  7046                           prodl	equ	0xFF3
  7047                           intcon	equ	0xFF2
  7048                           postinc0	equ	0xFEE
  7049                           wreg	equ	0xFE8
  7050                           indf2	equ	0xFDF
  7051                           postinc2	equ	0xFDE
  7052                           postdec2	equ	0xFDD
  7053                           plusw2	equ	0xFDB
  7054                           fsr2h	equ	0xFDA
  7055                           fsr2l	equ	0xFD9
  7056                           status	equ	0xFD8
  7057                           
  7058 ;; *************** function _LED_Toggle *****************
  7059 ;; Defined at:
  7060 ;;		line 149 in file "../bsp_pic18f45k50/leds.c"
  7061 ;; Parameters:    Size  Location     Type
  7062 ;;  led             1    wreg     enum E2
  7063 ;; Auto vars:     Size  Location     Type
  7064 ;;  led             1    0[BANK0 ] enum E2
  7065 ;; Return value:  Size  Location     Type
  7066 ;;		None               void
  7067 ;; Registers used:
  7068 ;;		wreg, status,2, status,0
  7069 ;; Tracked objects:
  7070 ;;		On entry : 0/0
  7071 ;;		On exit  : 0/0
  7072 ;;		Unchanged: 0/0
  7073 ;; Data sizes:     COMRAM   BANK0   BANK1   BANK2   BANK3   BANK4   BANK5   BANK6   BANK7
  7074 ;;      Params:         0       0       0       0       0       0       0       0       0
  7075 ;;      Locals:         0       1       0       0       0       0       0       0       0
  7076 ;;      Temps:          0       0       0       0       0       0       0       0       0
  7077 ;;      Totals:         0       1       0       0       0       0       0       0       0
  7078 ;;Total ram usage:        1 bytes
  7079 ;; Hardware stack levels used:    1
  7080 ;; Hardware stack levels required when called:   10
  7081 ;; This function calls:
  7082 ;;		Nothing
  7083 ;; This function is called by:
  7084 ;;		_APP_DeviceCustomHIDTasks
  7085 ;; This function uses a non-reentrant model
  7086 ;;
  7087                           
  7088                           	psect	text31
  7089  003092                     __ptext31:
  7090                           	opt stack 0
  7091  003092                     _LED_Toggle:
  7092                           	opt stack 19
  7093                           
  7094                           ; BSR set to: 0
  7095                           ;incstack = 0
  7096                           ;LED_Toggle@led stored from wreg
  7097  003092  0100               	movlb	0	; () banked
  7098  003094  6F60               	movwf	LED_Toggle@led& (0+255),b
  7099                           
  7100                           ; BSR set to: 0
  7101                           ;leds.c: 151: switch(led)
  7102  003096  D004               	goto	l5757
  7103  003098                     l105:
  7104                           
  7105                           ; BSR set to: 0
  7106                           ;leds.c: 154: LATCbits.LATC2 ^= 1;
  7107  003098  748B               	btg	3979,2,c	;volatile
  7108                           
  7109                           ;leds.c: 155: break;
  7110  00309A  0012               	return	
  7111  00309C                     l107:
  7112                           
  7113                           ; BSR set to: 0
  7114                           ;leds.c: 158: LATCbits.LATC0 ^= 1;
  7115  00309C  708B               	btg	3979,0,c	;volatile
  7116                           
  7117                           ; BSR set to: 0
  7118                           ;leds.c: 170: }
  7119                           
  7120                           ; BSR set to: 0
  7121                           ;leds.c: 169: break;
  7122                           
  7123                           ;leds.c: 168: case LED_NONE:
  7124                           
  7125                           ;leds.c: 159: break;
  7126  00309E  0012               	return	
  7127  0030A0                     l5757:
  7128                           
  7129                           ; BSR set to: 0
  7130  0030A0  0100               	movlb	0	; () banked
  7131  0030A2  5160               	movf	LED_Toggle@led& (0+255),w,b
  7132                           
  7133                           ; Switch size 1, requested type "space"
  7134                           ; Number of cases is 3, Range of values is 0 to 2
  7135                           ; switch strategies available:
  7136                           ; Name         Instructions Cycles
  7137                           ; simple_byte           10     6 (average)
  7138                           ;	Chosen strategy is simple_byte
  7139  0030A4  0A00               	xorlw	0	; case 0
  7140  0030A6  B4D8               	btfsc	status,2,c
  7141  0030A8  0012               	return	
  7142  0030AA  0A01               	xorlw	1	; case 1
  7143  0030AC  B4D8               	btfsc	status,2,c
  7144  0030AE  D7F4               	goto	l105
  7145  0030B0  0A03               	xorlw	3	; case 2
  7146  0030B2  A4D8               	btfss	status,2,c
  7147  0030B4  0012               	return	
  7148  0030B6  D7F2               	goto	l107
  7149                           
  7150                           ; BSR set to: 0
  7151                           
  7152                           ; BSR set to: 0
  7153  0030B8  0012               	return		;funcret
  7154  0030BA                     __end_of_LED_Toggle:
  7155                           	opt stack 0
  7156                           tblptru	equ	0xFF8
  7157                           tblptrh	equ	0xFF7
  7158                           tblptrl	equ	0xFF6
  7159                           tablat	equ	0xFF5
  7160                           prodh	equ	0xFF4
  7161                           prodl	equ	0xFF3
  7162                           intcon	equ	0xFF2
  7163                           postinc0	equ	0xFEE
  7164                           wreg	equ	0xFE8
  7165                           indf2	equ	0xFDF
  7166                           postinc2	equ	0xFDE
  7167                           postdec2	equ	0xFDD
  7168                           plusw2	equ	0xFDB
  7169                           fsr2h	equ	0xFDA
  7170                           fsr2l	equ	0xFD9
  7171                           status	equ	0xFD8
  7172                           
  7173 ;; *************** function _ADC_ReadPercentage *****************
  7174 ;; Defined at:
  7175 ;;		line 54 in file "../bsp_pic18f45k50/adc.c"
  7176 ;; Parameters:    Size  Location     Type
  7177 ;;  channel         1    wreg     enum E30
  7178 ;; Auto vars:     Size  Location     Type
  7179 ;;  channel         1   14[BANK0 ] enum E30
  7180 ;;  percent         1   15[BANK0 ] unsigned char 
  7181 ;; Return value:  Size  Location     Type
  7182 ;;                  1    wreg      unsigned char 
  7183 ;; Registers used:
  7184 ;;		wreg, status,2, status,0, cstack
  7185 ;; Tracked objects:
  7186 ;;		On entry : 0/0
  7187 ;;		On exit  : 0/0
  7188 ;;		Unchanged: 0/0
  7189 ;; Data sizes:     COMRAM   BANK0   BANK1   BANK2   BANK3   BANK4   BANK5   BANK6   BANK7
  7190 ;;      Params:         0       0       0       0       0       0       0       0       0
  7191 ;;      Locals:         0       2       0       0       0       0       0       0       0
  7192 ;;      Temps:          0       0       0       0       0       0       0       0       0
  7193 ;;      Totals:         0       2       0       0       0       0       0       0       0
  7194 ;;Total ram usage:        2 bytes
  7195 ;; Hardware stack levels used:    1
  7196 ;; Hardware stack levels required when called:   12
  7197 ;; This function calls:
  7198 ;;		_ADC_Read10bit
  7199 ;;		___lwdiv
  7200 ;; This function is called by:
  7201 ;;		_APP_DeviceCustomHIDTasks
  7202 ;; This function uses a non-reentrant model
  7203 ;;
  7204                           
  7205                           	psect	text32
  7206  002C92                     __ptext32:
  7207                           	opt stack 0
  7208  002C92                     _ADC_ReadPercentage:
  7209                           	opt stack 17
  7210                           
  7211                           ; BSR set to: 0
  7212                           ;incstack = 0
  7213                           ;ADC_ReadPercentage@channel stored from wreg
  7214  002C92  0100               	movlb	0	; () banked
  7215  002C94  6F6E               	movwf	ADC_ReadPercentage@channel& (0+255),b
  7216                           
  7217                           ; BSR set to: 0
  7218                           ;adc.c: 56: uint8_t percent;
  7219                           ;adc.c: 58: switch(channel)
  7220  002C96  D004               	goto	l5731
  7221                           
  7222                           ; BSR set to: 0
  7223                           ;adc.c: 61: break;
  7224                           
  7225                           ;adc.c: 59: {
  7226                           ;adc.c: 60: case ADC_CHANNEL_0:
  7227  002C98  D008               	goto	l5733
  7228  002C9A                     l5725:
  7229                           
  7230                           ; BSR set to: 0
  7231                           ;adc.c: 63: return 0xFF;
  7232  002C9A  0EFF               	movlw	255
  7233                           
  7234                           ; BSR set to: 0
  7235  002C9C  0012               	return	
  7236                           
  7237                           ; BSR set to: 0
  7238                           ;adc.c: 64: }
  7239  002C9E  D005               	goto	l5733
  7240  002CA0                     l5731:
  7241                           
  7242                           ; BSR set to: 0
  7243  002CA0  0100               	movlb	0	; () banked
  7244  002CA2  516E               	movf	ADC_ReadPercentage@channel& (0+255),w,b
  7245                           
  7246                           ; Switch size 1, requested type "space"
  7247                           ; Number of cases is 1, Range of values is 0 to 0
  7248                           ; switch strategies available:
  7249                           ; Name         Instructions Cycles
  7250                           ; simple_byte            4     3 (average)
  7251                           ;	Chosen strategy is simple_byte
  7252  002CA4  0A00               	xorlw	0	; case 0
  7253  002CA6  A4D8               	btfss	status,2,c
  7254  002CA8  D7F8               	goto	l5725
  7255  002CAA                     l5733:
  7256                           
  7257                           ; BSR set to: 0
  7258                           ;adc.c: 67: percent = (ADC_Read10bit(channel) / 10);
  7259  002CAA  0100               	movlb	0	; () banked
  7260  002CAC  516E               	movf	ADC_ReadPercentage@channel& (0+255),w,b
  7261  002CAE  EC84  F015         	call	_ADC_Read10bit
  7262  002CB2  C061  F067         	movff	?_ADC_Read10bit,___lwdiv@dividend
  7263  002CB6  C062  F068         	movff	?_ADC_Read10bit+1,___lwdiv@dividend+1
  7264  002CBA  0E00               	movlw	0
  7265  002CBC  0100               	movlb	0	; () banked
  7266  002CBE  6F6A               	movwf	(___lwdiv@divisor+1)& (0+255),b
  7267  002CC0  0E0A               	movlw	10
  7268  002CC2  6F69               	movwf	___lwdiv@divisor& (0+255),b
  7269  002CC4  ECC2  F014         	call	___lwdiv	;wreg free
  7270  002CC8  0100               	movlb	0	; () banked
  7271  002CCA  5167               	movf	?___lwdiv& (0+255),w,b
  7272  002CCC  0100               	movlb	0	; () banked
  7273  002CCE  6F6F               	movwf	ADC_ReadPercentage@percent& (0+255),b
  7274                           
  7275                           ; BSR set to: 0
  7276                           ;adc.c: 69: if(percent > 100)
  7277  002CD0  0E64               	movlw	100
  7278  002CD2  0100               	movlb	0	; () banked
  7279  002CD4  656F               	cpfsgt	ADC_ReadPercentage@percent& (0+255),b
  7280  002CD6  D003               	goto	l54
  7281                           
  7282                           ; BSR set to: 0
  7283                           ;adc.c: 70: {
  7284                           ;adc.c: 71: percent = 100;
  7285  002CD8  0E64               	movlw	100
  7286  002CDA  0100               	movlb	0	; () banked
  7287  002CDC  6F6F               	movwf	ADC_ReadPercentage@percent& (0+255),b
  7288  002CDE                     l54:
  7289                           
  7290                           ; BSR set to: 0
  7291                           ;adc.c: 72: }
  7292                           ;adc.c: 73: return percent;
  7293  002CDE  0100               	movlb	0	; () banked
  7294  002CE0  516F               	movf	ADC_ReadPercentage@percent& (0+255),w,b
  7295  002CE2  0012               	return	
  7296                           
  7297                           ; BSR set to: 0
  7298                           
  7299                           ; BSR set to: 0
  7300  002CE4  0012               	return		;funcret
  7301  002CE6                     __end_of_ADC_ReadPercentage:
  7302                           	opt stack 0
  7303                           tblptru	equ	0xFF8
  7304                           tblptrh	equ	0xFF7
  7305                           tblptrl	equ	0xFF6
  7306                           tablat	equ	0xFF5
  7307                           prodh	equ	0xFF4
  7308                           prodl	equ	0xFF3
  7309                           intcon	equ	0xFF2
  7310                           postinc0	equ	0xFEE
  7311                           wreg	equ	0xFE8
  7312                           indf2	equ	0xFDF
  7313                           postinc2	equ	0xFDE
  7314                           postdec2	equ	0xFDD
  7315                           plusw2	equ	0xFDB
  7316                           fsr2h	equ	0xFDA
  7317                           fsr2l	equ	0xFD9
  7318                           status	equ	0xFD8
  7319                           
  7320 ;; *************** function ___lwdiv *****************
  7321 ;; Defined at:
  7322 ;;		line 8 in file "C:\Program Files (x86)\Microchip\xc8\v1.34\sources\common\lwdiv.c"
  7323 ;; Parameters:    Size  Location     Type
  7324 ;;  dividend        2    7[BANK0 ] unsigned int 
  7325 ;;  divisor         2    9[BANK0 ] unsigned int 
  7326 ;; Auto vars:     Size  Location     Type
  7327 ;;  quotient        2   12[BANK0 ] unsigned int 
  7328 ;;  counter         1   11[BANK0 ] unsigned char 
  7329 ;; Return value:  Size  Location     Type
  7330 ;;                  2    7[BANK0 ] unsigned int 
  7331 ;; Registers used:
  7332 ;;		wreg, status,2, status,0
  7333 ;; Tracked objects:
  7334 ;;		On entry : 0/0
  7335 ;;		On exit  : 0/0
  7336 ;;		Unchanged: 0/0
  7337 ;; Data sizes:     COMRAM   BANK0   BANK1   BANK2   BANK3   BANK4   BANK5   BANK6   BANK7
  7338 ;;      Params:         0       4       0       0       0       0       0       0       0
  7339 ;;      Locals:         0       3       0       0       0       0       0       0       0
  7340 ;;      Temps:          0       0       0       0       0       0       0       0       0
  7341 ;;      Totals:         0       7       0       0       0       0       0       0       0
  7342 ;;Total ram usage:        7 bytes
  7343 ;; Hardware stack levels used:    1
  7344 ;; Hardware stack levels required when called:   10
  7345 ;; This function calls:
  7346 ;;		Nothing
  7347 ;; This function is called by:
  7348 ;;		_ADC_ReadPercentage
  7349 ;; This function uses a non-reentrant model
  7350 ;;
  7351                           
  7352                           	psect	text33
  7353  002984                     __ptext33:
  7354                           	opt stack 0
  7355  002984                     ___lwdiv:
  7356                           	opt stack 18
  7357                           
  7358                           ; BSR set to: 0
  7359                           ;incstack = 0
  7360  002984  0E00               	movlw	0
  7361  002986  0100               	movlb	0	; () banked
  7362  002988  6F6D               	movwf	(___lwdiv@quotient+1)& (0+255),b
  7363  00298A  0E00               	movlw	0
  7364  00298C  6F6C               	movwf	___lwdiv@quotient& (0+255),b
  7365                           
  7366                           ; BSR set to: 0
  7367  00298E  0100               	movlb	0	; () banked
  7368  002990  5169               	movf	___lwdiv@divisor& (0+255),w,b
  7369  002992  0100               	movlb	0	; () banked
  7370  002994  116A               	iorwf	(___lwdiv@divisor+1)& (0+255),w,b
  7371  002996  B4D8               	btfsc	status,2,c
  7372  002998  D031               	goto	l1249
  7373                           
  7374                           ; BSR set to: 0
  7375  00299A  0E01               	movlw	1
  7376  00299C  0100               	movlb	0	; () banked
  7377  00299E  6F6B               	movwf	___lwdiv@counter& (0+255),b
  7378  0029A0  D007               	goto	l5637
  7379  0029A2                     l5635:
  7380                           
  7381                           ; BSR set to: 0
  7382  0029A2  0100               	movlb	0	; () banked
  7383  0029A4  90D8               	bcf	status,0,c
  7384  0029A6  3769               	rlcf	___lwdiv@divisor& (0+255),f,b
  7385  0029A8  376A               	rlcf	(___lwdiv@divisor+1)& (0+255),f,b
  7386  0029AA  0100               	movlb	0	; () banked
  7387  0029AC  2B6B               	incf	___lwdiv@counter& (0+255),f,b
  7388  0029AE  D000               	goto	l5637
  7389  0029B0                     l5637:
  7390                           
  7391                           ; BSR set to: 0
  7392  0029B0  0100               	movlb	0	; () banked
  7393  0029B2  BF6A               	btfsc	(___lwdiv@divisor+1)& (0+255),7,b
  7394  0029B4  D002               	goto	l5639
  7395  0029B6  D7F5               	goto	l5635
  7396                           
  7397                           ; BSR set to: 0
  7398  0029B8  D000               	goto	l5639
  7399  0029BA                     l5639:
  7400                           
  7401                           ; BSR set to: 0
  7402  0029BA  0100               	movlb	0	; () banked
  7403  0029BC  90D8               	bcf	status,0,c
  7404  0029BE  376C               	rlcf	___lwdiv@quotient& (0+255),f,b
  7405  0029C0  376D               	rlcf	(___lwdiv@quotient+1)& (0+255),f,b
  7406                           
  7407                           ; BSR set to: 0
  7408  0029C2  0100               	movlb	0	; () banked
  7409  0029C4  5169               	movf	___lwdiv@divisor& (0+255),w,b
  7410  0029C6  0100               	movlb	0	; () banked
  7411  0029C8  5D67               	subwf	___lwdiv@dividend& (0+255),w,b
  7412  0029CA  0100               	movlb	0	; () banked
  7413  0029CC  516A               	movf	(___lwdiv@divisor+1)& (0+255),w,b
  7414  0029CE  0100               	movlb	0	; () banked
  7415  0029D0  5968               	subwfb	(___lwdiv@dividend+1)& (0+255),w,b
  7416  0029D2  A0D8               	btfss	status,0,c
  7417  0029D4  D00B               	goto	l5647
  7418                           
  7419                           ; BSR set to: 0
  7420  0029D6  0100               	movlb	0	; () banked
  7421  0029D8  5169               	movf	___lwdiv@divisor& (0+255),w,b
  7422  0029DA  0100               	movlb	0	; () banked
  7423  0029DC  5F67               	subwf	___lwdiv@dividend& (0+255),f,b
  7424  0029DE  0100               	movlb	0	; () banked
  7425  0029E0  516A               	movf	(___lwdiv@divisor+1)& (0+255),w,b
  7426  0029E2  0100               	movlb	0	; () banked
  7427  0029E4  5B68               	subwfb	(___lwdiv@dividend+1)& (0+255),f,b
  7428                           
  7429                           ; BSR set to: 0
  7430  0029E6  0100               	movlb	0	; () banked
  7431  0029E8  816C               	bsf	___lwdiv@quotient& (0+255),0,b
  7432  0029EA  D000               	goto	l5647
  7433  0029EC                     l5647:
  7434                           
  7435                           ; BSR set to: 0
  7436  0029EC  0100               	movlb	0	; () banked
  7437  0029EE  90D8               	bcf	status,0,c
  7438  0029F0  336A               	rrcf	(___lwdiv@divisor+1)& (0+255),f,b
  7439  0029F2  3369               	rrcf	___lwdiv@divisor& (0+255),f,b
  7440                           
  7441                           ; BSR set to: 0
  7442  0029F4  0100               	movlb	0	; () banked
  7443  0029F6  2F6B               	decfsz	___lwdiv@counter& (0+255),f,b
  7444  0029F8  D7E0               	goto	l5639
  7445  0029FA  D000               	goto	l1249
  7446  0029FC                     l1249:
  7447                           
  7448                           ; BSR set to: 0
  7449  0029FC  C06C  F067         	movff	___lwdiv@quotient,?___lwdiv
  7450  002A00  C06D  F068         	movff	___lwdiv@quotient+1,?___lwdiv+1
  7451                           
  7452                           ; BSR set to: 0
  7453  002A04  0012               	return		;funcret
  7454  002A06                     __end_of___lwdiv:
  7455                           	opt stack 0
  7456                           tblptru	equ	0xFF8
  7457                           tblptrh	equ	0xFF7
  7458                           tblptrl	equ	0xFF6
  7459                           tablat	equ	0xFF5
  7460                           prodh	equ	0xFF4
  7461                           prodl	equ	0xFF3
  7462                           intcon	equ	0xFF2
  7463                           postinc0	equ	0xFEE
  7464                           wreg	equ	0xFE8
  7465                           indf2	equ	0xFDF
  7466                           postinc2	equ	0xFDE
  7467                           postdec2	equ	0xFDD
  7468                           plusw2	equ	0xFDB
  7469                           fsr2h	equ	0xFDA
  7470                           fsr2l	equ	0xFD9
  7471                           status	equ	0xFD8
  7472                           
  7473 ;; *************** function _ADC_Read10bit *****************
  7474 ;; Defined at:
  7475 ;;		line 94 in file "../bsp_pic18f45k50/adc.c"
  7476 ;; Parameters:    Size  Location     Type
  7477 ;;  channel         1    wreg     enum E30
  7478 ;; Auto vars:     Size  Location     Type
  7479 ;;  channel         1    6[BANK0 ] enum E30
  7480 ;;  result          2    4[BANK0 ] unsigned int 
  7481 ;; Return value:  Size  Location     Type
  7482 ;;                  2    1[BANK0 ] unsigned int 
  7483 ;; Registers used:
  7484 ;;		wreg, status,2, status,0, cstack
  7485 ;; Tracked objects:
  7486 ;;		On entry : 0/0
  7487 ;;		On exit  : 0/0
  7488 ;;		Unchanged: 0/0
  7489 ;; Data sizes:     COMRAM   BANK0   BANK1   BANK2   BANK3   BANK4   BANK5   BANK6   BANK7
  7490 ;;      Params:         0       2       0       0       0       0       0       0       0
  7491 ;;      Locals:         0       3       0       0       0       0       0       0       0
  7492 ;;      Temps:          0       1       0       0       0       0       0       0       0
  7493 ;;      Totals:         0       6       0       0       0       0       0       0       0
  7494 ;;Total ram usage:        6 bytes
  7495 ;; Hardware stack levels used:    1
  7496 ;; Hardware stack levels required when called:   11
  7497 ;; This function calls:
  7498 ;;		_LED_Off
  7499 ;;		_LED_On
  7500 ;; This function is called by:
  7501 ;;		_ADC_ReadPercentage
  7502 ;;		_APP_DeviceCustomHIDTasks
  7503 ;; This function uses a non-reentrant model
  7504 ;;
  7505                           
  7506                           	psect	text34
  7507  002B08                     __ptext34:
  7508                           	opt stack 0
  7509  002B08                     _ADC_Read10bit:
  7510                           	opt stack 17
  7511                           
  7512                           ; BSR set to: 0
  7513                           ;incstack = 0
  7514                           ;ADC_Read10bit@channel stored from wreg
  7515  002B08  0100               	movlb	0	; () banked
  7516  002B0A  6F66               	movwf	ADC_Read10bit@channel& (0+255),b
  7517                           
  7518                           ; BSR set to: 0
  7519                           ;adc.c: 96: uint16_t result;
  7520                           ;adc.c: 98: switch(channel)
  7521  002B0C  D006               	goto	l5595
  7522                           
  7523                           ; BSR set to: 0
  7524                           ;adc.c: 101: break;
  7525                           
  7526                           ;adc.c: 99: {
  7527                           ;adc.c: 100: case ADC_CHANNEL_0:
  7528  002B0E  D00A               	goto	l5597
  7529  002B10                     l60:
  7530                           
  7531                           ; BSR set to: 0
  7532                           ;adc.c: 103: return 0xFFFF;
  7533  002B10  0100               	movlb	0	; () banked
  7534  002B12  6961               	setf	?_ADC_Read10bit& (0+255),b
  7535  002B14  6962               	setf	(?_ADC_Read10bit+1)& (0+255),b
  7536  002B16  0012               	return	
  7537                           
  7538                           ; BSR set to: 0
  7539                           ;adc.c: 104: }
  7540  002B18  D005               	goto	l5597
  7541  002B1A                     l5595:
  7542                           
  7543                           ; BSR set to: 0
  7544  002B1A  0100               	movlb	0	; () banked
  7545  002B1C  5166               	movf	ADC_Read10bit@channel& (0+255),w,b
  7546                           
  7547                           ; Switch size 1, requested type "space"
  7548                           ; Number of cases is 1, Range of values is 0 to 0
  7549                           ; switch strategies available:
  7550                           ; Name         Instructions Cycles
  7551                           ; simple_byte            4     3 (average)
  7552                           ;	Chosen strategy is simple_byte
  7553  002B1E  0A00               	xorlw	0	; case 0
  7554  002B20  A4D8               	btfss	status,2,c
  7555  002B22  D7F6               	goto	l60
  7556  002B24                     l5597:
  7557                           
  7558                           ; BSR set to: 0
  7559                           ;adc.c: 106: ADCON0bits.CHS = channel;
  7560  002B24  C066  F063         	movff	ADC_Read10bit@channel,??_ADC_Read10bit
  7561  002B28  0100               	movlb	0	; () banked
  7562  002B2A  4763               	rlncf	??_ADC_Read10bit& (0+255),f,b
  7563  002B2C  4763               	rlncf	??_ADC_Read10bit& (0+255),f,b
  7564  002B2E  50C2               	movf	4034,w,c	;volatile
  7565  002B30  0100               	movlb	0	; () banked
  7566  002B32  1963               	xorwf	??_ADC_Read10bit& (0+255),w,b
  7567  002B34  0B83               	andlw	-125
  7568  002B36  1963               	xorwf	??_ADC_Read10bit& (0+255),w,b
  7569  002B38  6EC2               	movwf	4034,c	;volatile
  7570                           
  7571                           ; BSR set to: 0
  7572                           ;adc.c: 108: ADCON0bits.GO = 1;
  7573  002B3A  82C2               	bsf	4034,1,c	;volatile
  7574                           
  7575                           ; BSR set to: 0
  7576                           ;adc.c: 109: LED_On(LED_D1);
  7577  002B3C  0E01               	movlw	1
  7578  002B3E  EC5D  F018         	call	_LED_On
  7579                           
  7580                           ;adc.c: 110: LED_On(LED_D2);
  7581  002B42  0E02               	movlw	2
  7582  002B44  EC5D  F018         	call	_LED_On
  7583                           
  7584                           ;adc.c: 111: LED_Off(LED_D2);
  7585  002B48  0E02               	movlw	2
  7586  002B4A  EC71  F018         	call	_LED_Off
  7587                           
  7588                           ;adc.c: 114: while(ADCON0bits.NOT_DONE);
  7589  002B4E  D000               	goto	l62
  7590  002B50                     l62:
  7591  002B50  B2C2               	btfsc	4034,1,c	;volatile
  7592  002B52  D7FE               	goto	l62
  7593                           
  7594                           ;adc.c: 115: LED_Off(LED_D1);
  7595  002B54  0E01               	movlw	1
  7596  002B56  EC71  F018         	call	_LED_Off
  7597                           
  7598                           ;adc.c: 117: result = ADRESH;
  7599  002B5A  CFC4 F064          	movff	4036,ADC_Read10bit@result	;volatile
  7600  002B5E  0100               	movlb	0	; () banked
  7601  002B60  6B65               	clrf	(ADC_Read10bit@result+1)& (0+255),b
  7602                           
  7603                           ; BSR set to: 0
  7604                           ;adc.c: 118: result <<=8;
  7605  002B62  0100               	movlb	0	; () banked
  7606  002B64  5164               	movf	ADC_Read10bit@result& (0+255),w,b
  7607  002B66  6F65               	movwf	(ADC_Read10bit@result+1)& (0+255),b
  7608  002B68  6B64               	clrf	ADC_Read10bit@result& (0+255),b
  7609                           
  7610                           ; BSR set to: 0
  7611                           ;adc.c: 119: result |= ADRESL;
  7612  002B6A  50C3               	movf	4035,w,c	;volatile
  7613  002B6C  0100               	movlb	0	; () banked
  7614  002B6E  1364               	iorwf	ADC_Read10bit@result& (0+255),f,b
  7615                           
  7616                           ; BSR set to: 0
  7617                           ;adc.c: 121: return result;
  7618  002B70  C064  F061         	movff	ADC_Read10bit@result,?_ADC_Read10bit
  7619  002B74  C065  F062         	movff	ADC_Read10bit@result+1,?_ADC_Read10bit+1
  7620  002B78  0012               	return	
  7621                           
  7622                           ; BSR set to: 0
  7623                           
  7624                           ; BSR set to: 0
  7625  002B7A  0012               	return		;funcret
  7626  002B7C                     __end_of_ADC_Read10bit:
  7627                           	opt stack 0
  7628                           tblptru	equ	0xFF8
  7629                           tblptrh	equ	0xFF7
  7630                           tblptrl	equ	0xFF6
  7631                           tablat	equ	0xFF5
  7632                           prodh	equ	0xFF4
  7633                           prodl	equ	0xFF3
  7634                           intcon	equ	0xFF2
  7635                           postinc0	equ	0xFEE
  7636                           wreg	equ	0xFE8
  7637                           indf2	equ	0xFDF
  7638                           postinc2	equ	0xFDE
  7639                           postdec2	equ	0xFDD
  7640                           plusw2	equ	0xFDB
  7641                           fsr2h	equ	0xFDA
  7642                           fsr2l	equ	0xFD9
  7643                           status	equ	0xFD8
  7644                           
  7645 ;; *************** function _LED_On *****************
  7646 ;; Defined at:
  7647 ;;		line 67 in file "../bsp_pic18f45k50/leds.c"
  7648 ;; Parameters:    Size  Location     Type
  7649 ;;  led             1    wreg     enum E2
  7650 ;; Auto vars:     Size  Location     Type
  7651 ;;  led             1    0[BANK0 ] enum E2
  7652 ;; Return value:  Size  Location     Type
  7653 ;;		None               void
  7654 ;; Registers used:
  7655 ;;		wreg, status,2, status,0
  7656 ;; Tracked objects:
  7657 ;;		On entry : 0/0
  7658 ;;		On exit  : 0/0
  7659 ;;		Unchanged: 0/0
  7660 ;; Data sizes:     COMRAM   BANK0   BANK1   BANK2   BANK3   BANK4   BANK5   BANK6   BANK7
  7661 ;;      Params:         0       0       0       0       0       0       0       0       0
  7662 ;;      Locals:         0       1       0       0       0       0       0       0       0
  7663 ;;      Temps:          0       0       0       0       0       0       0       0       0
  7664 ;;      Totals:         0       1       0       0       0       0       0       0       0
  7665 ;;Total ram usage:        1 bytes
  7666 ;; Hardware stack levels used:    1
  7667 ;; Hardware stack levels required when called:   10
  7668 ;; This function calls:
  7669 ;;		Nothing
  7670 ;; This function is called by:
  7671 ;;		_ADC_Read10bit
  7672 ;; This function uses a non-reentrant model
  7673 ;;
  7674                           
  7675                           	psect	text35
  7676  0030BA                     __ptext35:
  7677                           	opt stack 0
  7678  0030BA                     _LED_On:
  7679                           	opt stack 17
  7680                           
  7681                           ; BSR set to: 0
  7682                           ;incstack = 0
  7683                           ;LED_On@led stored from wreg
  7684  0030BA  0100               	movlb	0	; () banked
  7685  0030BC  6F60               	movwf	LED_On@led& (0+255),b
  7686                           
  7687                           ; BSR set to: 0
  7688                           ;leds.c: 69: switch(led)
  7689  0030BE  D004               	goto	l5483
  7690  0030C0                     l89:
  7691                           
  7692                           ; BSR set to: 0
  7693                           ;leds.c: 72: LATCbits.LATC2 = 1;
  7694  0030C0  848B               	bsf	3979,2,c	;volatile
  7695                           
  7696                           ;leds.c: 73: break;
  7697  0030C2  0012               	return	
  7698  0030C4                     l91:
  7699                           
  7700                           ; BSR set to: 0
  7701                           ;leds.c: 76: LATCbits.LATC0 = 1;
  7702  0030C4  808B               	bsf	3979,0,c	;volatile
  7703                           
  7704                           ; BSR set to: 0
  7705                           ;leds.c: 89: }
  7706                           
  7707                           ; BSR set to: 0
  7708                           ;leds.c: 88: break;
  7709                           
  7710                           ;leds.c: 87: case LED_NONE:
  7711                           
  7712                           ;leds.c: 77: break;
  7713  0030C6  0012               	return	
  7714  0030C8                     l5483:
  7715                           
  7716                           ; BSR set to: 0
  7717  0030C8  0100               	movlb	0	; () banked
  7718  0030CA  5160               	movf	LED_On@led& (0+255),w,b
  7719                           
  7720                           ; Switch size 1, requested type "space"
  7721                           ; Number of cases is 3, Range of values is 0 to 2
  7722                           ; switch strategies available:
  7723                           ; Name         Instructions Cycles
  7724                           ; simple_byte           10     6 (average)
  7725                           ;	Chosen strategy is simple_byte
  7726  0030CC  0A00               	xorlw	0	; case 0
  7727  0030CE  B4D8               	btfsc	status,2,c
  7728  0030D0  0012               	return	
  7729  0030D2  0A01               	xorlw	1	; case 1
  7730  0030D4  B4D8               	btfsc	status,2,c
  7731  0030D6  D7F4               	goto	l89
  7732  0030D8  0A03               	xorlw	3	; case 2
  7733  0030DA  A4D8               	btfss	status,2,c
  7734  0030DC  0012               	return	
  7735  0030DE  D7F2               	goto	l91
  7736                           
  7737                           ; BSR set to: 0
  7738                           
  7739                           ; BSR set to: 0
  7740  0030E0  0012               	return		;funcret
  7741  0030E2                     __end_of_LED_On:
  7742                           	opt stack 0
  7743                           tblptru	equ	0xFF8
  7744                           tblptrh	equ	0xFF7
  7745                           tblptrl	equ	0xFF6
  7746                           tablat	equ	0xFF5
  7747                           prodh	equ	0xFF4
  7748                           prodl	equ	0xFF3
  7749                           intcon	equ	0xFF2
  7750                           postinc0	equ	0xFEE
  7751                           wreg	equ	0xFE8
  7752                           indf2	equ	0xFDF
  7753                           postinc2	equ	0xFDE
  7754                           postdec2	equ	0xFDD
  7755                           plusw2	equ	0xFDB
  7756                           fsr2h	equ	0xFDA
  7757                           fsr2l	equ	0xFD9
  7758                           status	equ	0xFD8
  7759                           
  7760 ;; *************** function _LED_Off *****************
  7761 ;; Defined at:
  7762 ;;		line 108 in file "../bsp_pic18f45k50/leds.c"
  7763 ;; Parameters:    Size  Location     Type
  7764 ;;  led             1    wreg     enum E2
  7765 ;; Auto vars:     Size  Location     Type
  7766 ;;  led             1    0[BANK0 ] enum E2
  7767 ;; Return value:  Size  Location     Type
  7768 ;;		None               void
  7769 ;; Registers used:
  7770 ;;		wreg, status,2, status,0
  7771 ;; Tracked objects:
  7772 ;;		On entry : 0/0
  7773 ;;		On exit  : 0/0
  7774 ;;		Unchanged: 0/0
  7775 ;; Data sizes:     COMRAM   BANK0   BANK1   BANK2   BANK3   BANK4   BANK5   BANK6   BANK7
  7776 ;;      Params:         0       0       0       0       0       0       0       0       0
  7777 ;;      Locals:         0       1       0       0       0       0       0       0       0
  7778 ;;      Temps:          0       0       0       0       0       0       0       0       0
  7779 ;;      Totals:         0       1       0       0       0       0       0       0       0
  7780 ;;Total ram usage:        1 bytes
  7781 ;; Hardware stack levels used:    1
  7782 ;; Hardware stack levels required when called:   10
  7783 ;; This function calls:
  7784 ;;		Nothing
  7785 ;; This function is called by:
  7786 ;;		_ADC_Read10bit
  7787 ;; This function uses a non-reentrant model
  7788 ;;
  7789                           
  7790                           	psect	text36
  7791  0030E2                     __ptext36:
  7792                           	opt stack 0
  7793  0030E2                     _LED_Off:
  7794                           	opt stack 17
  7795                           
  7796                           ; BSR set to: 0
  7797                           ;incstack = 0
  7798                           ;LED_Off@led stored from wreg
  7799  0030E2  0100               	movlb	0	; () banked
  7800  0030E4  6F60               	movwf	LED_Off@led& (0+255),b
  7801                           
  7802                           ; BSR set to: 0
  7803                           ;leds.c: 110: switch(led)
  7804  0030E6  D004               	goto	l5489
  7805  0030E8                     l97:
  7806                           
  7807                           ; BSR set to: 0
  7808                           ;leds.c: 113: LATCbits.LATC2 = 0;
  7809  0030E8  948B               	bcf	3979,2,c	;volatile
  7810                           
  7811                           ;leds.c: 114: break;
  7812  0030EA  0012               	return	
  7813  0030EC                     l99:
  7814                           
  7815                           ; BSR set to: 0
  7816                           ;leds.c: 117: LATCbits.LATC0 = 0;
  7817  0030EC  908B               	bcf	3979,0,c	;volatile
  7818                           
  7819                           ; BSR set to: 0
  7820                           ;leds.c: 130: }
  7821                           
  7822                           ; BSR set to: 0
  7823                           ;leds.c: 129: break;
  7824                           
  7825                           ;leds.c: 128: case LED_NONE:
  7826                           
  7827                           ;leds.c: 118: break;
  7828  0030EE  0012               	return	
  7829  0030F0                     l5489:
  7830                           
  7831                           ; BSR set to: 0
  7832  0030F0  0100               	movlb	0	; () banked
  7833  0030F2  5160               	movf	LED_Off@led& (0+255),w,b
  7834                           
  7835                           ; Switch size 1, requested type "space"
  7836                           ; Number of cases is 3, Range of values is 0 to 2
  7837                           ; switch strategies available:
  7838                           ; Name         Instructions Cycles
  7839                           ; simple_byte           10     6 (average)
  7840                           ;	Chosen strategy is simple_byte
  7841  0030F4  0A00               	xorlw	0	; case 0
  7842  0030F6  B4D8               	btfsc	status,2,c
  7843  0030F8  0012               	return	
  7844  0030FA  0A01               	xorlw	1	; case 1
  7845  0030FC  B4D8               	btfsc	status,2,c
  7846  0030FE  D7F4               	goto	l97
  7847  003100  0A03               	xorlw	3	; case 2
  7848  003102  A4D8               	btfss	status,2,c
  7849  003104  0012               	return	
  7850  003106  D7F2               	goto	l99
  7851                           
  7852                           ; BSR set to: 0
  7853                           
  7854                           ; BSR set to: 0
  7855  003108  0012               	return		;funcret
  7856  00310A                     __end_of_LED_Off:
  7857                           	opt stack 0
  7858                           tblptru	equ	0xFF8
  7859                           tblptrh	equ	0xFF7
  7860                           tblptrl	equ	0xFF6
  7861                           tablat	equ	0xFF5
  7862                           prodh	equ	0xFF4
  7863                           prodl	equ	0xFF3
  7864                           intcon	equ	0xFF2
  7865                           postinc0	equ	0xFEE
  7866                           wreg	equ	0xFE8
  7867                           indf2	equ	0xFDF
  7868                           postinc2	equ	0xFDE
  7869                           postdec2	equ	0xFDD
  7870                           plusw2	equ	0xFDB
  7871                           fsr2h	equ	0xFDA
  7872                           fsr2l	equ	0xFD9
  7873                           status	equ	0xFD8
  7874                           
  7875 ;; *************** function _SYS_InterruptHigh *****************
  7876 ;; Defined at:
  7877 ;;		line 125 in file "../src/system_config/pic18f45k50/system.c"
  7878 ;; Parameters:    Size  Location     Type
  7879 ;;		None
  7880 ;; Auto vars:     Size  Location     Type
  7881 ;;		None
  7882 ;; Return value:  Size  Location     Type
  7883 ;;		None               void
  7884 ;; Registers used:
  7885 ;;		wreg, fsr1l, fsr1h, fsr2l, fsr2h, status,2, status,0, tblptrl, tblptrh, tblptru, prodl, prodh, cstack
  7886 ;; Tracked objects:
  7887 ;;		On entry : 0/0
  7888 ;;		On exit  : 0/0
  7889 ;;		Unchanged: 0/0
  7890 ;; Data sizes:     COMRAM   BANK0   BANK1   BANK2   BANK3   BANK4   BANK5   BANK6   BANK7
  7891 ;;      Params:         0       0       0       0       0       0       0       0       0
  7892 ;;      Locals:         0       0       0       0       0       0       0       0       0
  7893 ;;      Temps:         14       0       0       0       0       0       0       0       0
  7894 ;;      Totals:        14       0       0       0       0       0       0       0       0
  7895 ;;Total ram usage:       14 bytes
  7896 ;; Hardware stack levels used:    1
  7897 ;; Hardware stack levels required when called:    9
  7898 ;; This function calls:
  7899 ;;		_USBDeviceTasks
  7900 ;; This function is called by:
  7901 ;;		Interrupt level 2
  7902 ;; This function uses a non-reentrant model
  7903 ;;
  7904                           
  7905                           	psect	intcode
  7906  000008                     __pintcode:
  7907                           	opt stack 0
  7908  000008                     _SYS_InterruptHigh:
  7909                           	opt stack 15
  7910                           
  7911                           ; BSR set to: 0
  7912                           ;incstack = 0
  7913  000008  CFFA F047          	movff	pclath,??_SYS_InterruptHigh
  7914  00000C  CFFB F048          	movff	pclatu,??_SYS_InterruptHigh+1
  7915  000010  CFE9 F049          	movff	fsr0l,??_SYS_InterruptHigh+2
  7916  000014  CFEA F04A          	movff	fsr0h,??_SYS_InterruptHigh+3
  7917  000018  CFE1 F04B          	movff	fsr1l,??_SYS_InterruptHigh+4
  7918  00001C  CFE2 F04C          	movff	fsr1h,??_SYS_InterruptHigh+5
  7919  000020  CFD9 F04D          	movff	fsr2l,??_SYS_InterruptHigh+6
  7920  000024  CFDA F04E          	movff	fsr2h,??_SYS_InterruptHigh+7
  7921  000028  CFF3 F04F          	movff	prodl,??_SYS_InterruptHigh+8
  7922  00002C  CFF4 F050          	movff	prodh,??_SYS_InterruptHigh+9
  7923  000030  CFF6 F051          	movff	tblptrl,??_SYS_InterruptHigh+10
  7924  000034  CFF7 F052          	movff	tblptrh,??_SYS_InterruptHigh+11
  7925  000038  CFF8 F053          	movff	tblptru,??_SYS_InterruptHigh+12
  7926  00003C  CFF5 F054          	movff	tablat,??_SYS_InterruptHigh+13
  7927                           
  7928                           ;system.c: 128: USBDeviceTasks();
  7929  000040  EC9B  F009         	call	_USBDeviceTasks	;wreg free
  7930  000044  C054  FFF5         	movff	??_SYS_InterruptHigh+13,tablat
  7931  000048  C053  FFF8         	movff	??_SYS_InterruptHigh+12,tblptru
  7932  00004C  C052  FFF7         	movff	??_SYS_InterruptHigh+11,tblptrh
  7933  000050  C051  FFF6         	movff	??_SYS_InterruptHigh+10,tblptrl
  7934  000054  C050  FFF4         	movff	??_SYS_InterruptHigh+9,prodh
  7935  000058  C04F  FFF3         	movff	??_SYS_InterruptHigh+8,prodl
  7936  00005C  C04E  FFDA         	movff	??_SYS_InterruptHigh+7,fsr2h
  7937  000060  C04D  FFD9         	movff	??_SYS_InterruptHigh+6,fsr2l
  7938  000064  C04C  FFE2         	movff	??_SYS_InterruptHigh+5,fsr1h
  7939  000068  C04B  FFE1         	movff	??_SYS_InterruptHigh+4,fsr1l
  7940  00006C  C04A  FFEA         	movff	??_SYS_InterruptHigh+3,fsr0h
  7941  000070  C049  FFE9         	movff	??_SYS_InterruptHigh+2,fsr0l
  7942  000074  C048  FFFB         	movff	??_SYS_InterruptHigh+1,pclatu
  7943  000078  C047  FFFA         	movff	??_SYS_InterruptHigh,pclath
  7944  00007C  0011               	retfie		f
  7945  00007E                     __end_of_SYS_InterruptHigh:
  7946                           	opt stack 0
  7947                           pclatu	equ	0xFFB
  7948                           pclath	equ	0xFFA
  7949                           tblptru	equ	0xFF8
  7950                           tblptrh	equ	0xFF7
  7951                           tblptrl	equ	0xFF6
  7952                           tablat	equ	0xFF5
  7953                           prodh	equ	0xFF4
  7954                           prodl	equ	0xFF3
  7955                           intcon	equ	0xFF2
  7956                           postinc0	equ	0xFEE
  7957                           fsr0h	equ	0xFEA
  7958                           fsr0l	equ	0xFE9
  7959                           wreg	equ	0xFE8
  7960                           fsr1h	equ	0xFE2
  7961                           fsr1l	equ	0xFE1
  7962                           indf2	equ	0xFDF
  7963                           postinc2	equ	0xFDE
  7964                           postdec2	equ	0xFDD
  7965                           plusw2	equ	0xFDB
  7966                           fsr2h	equ	0xFDA
  7967                           fsr2l	equ	0xFD9
  7968                           status	equ	0xFD8
  7969                           
  7970 ;; *************** function _USBDeviceTasks *****************
  7971 ;; Defined at:
  7972 ;;		line 495 in file "../../../../../../microchip/mla/v2015_08_10/framework/usb/src/usb_device.c"
  7973 ;; Parameters:    Size  Location     Type
  7974 ;;		None
  7975 ;; Auto vars:     Size  Location     Type
  7976 ;;  i               1   27[COMRAM] unsigned char 
  7977 ;; Return value:  Size  Location     Type
  7978 ;;		None               void
  7979 ;; Registers used:
  7980 ;;		wreg, fsr1l, fsr1h, fsr2l, fsr2h, status,2, status,0, tblptrl, tblptrh, tblptru, prodl, prodh, cstack
  7981 ;; Tracked objects:
  7982 ;;		On entry : 0/0
  7983 ;;		On exit  : 0/0
  7984 ;;		Unchanged: 0/0
  7985 ;; Data sizes:     COMRAM   BANK0   BANK1   BANK2   BANK3   BANK4   BANK5   BANK6   BANK7
  7986 ;;      Params:         0       0       0       0       0       0       0       0       0
  7987 ;;      Locals:         1       0       0       0       0       0       0       0       0
  7988 ;;      Temps:          0       0       0       0       0       0       0       0       0
  7989 ;;      Totals:         1       0       0       0       0       0       0       0       0
  7990 ;;Total ram usage:        1 bytes
  7991 ;; Hardware stack levels used:    1
  7992 ;; Hardware stack levels required when called:    8
  7993 ;; This function calls:
  7994 ;;		_USBCtrlEPAllowStatusStage
  7995 ;;		_USBCtrlEPService
  7996 ;;		_USBIncrement1msInternalTimers
  7997 ;;		_USBStallHandler
  7998 ;;		_USBSuspend
  7999 ;;		_USBWakeFromSuspend
  8000 ;;		_USER_USB_CALLBACK_EVENT_HANDLER
  8001 ;;		i2_USBDeviceInit
  8002 ;; This function is called by:
  8003 ;;		_SYS_InterruptHigh
  8004 ;; This function uses a non-reentrant model
  8005 ;;
  8006                           
  8007                           	psect	text38
  8008  001336                     __ptext38:
  8009                           	opt stack 0
  8010  001336                     _USBDeviceTasks:
  8011                           	opt stack 15
  8012                           
  8013                           ;usb_device.c: 497: uint8_t i;
  8014                           ;usb_device.c: 608: if(USBDeviceState == ATTACHED_STATE)
  8015                           
  8016                           ;incstack = 0
  8017  001336  041B               	decf	_USBDeviceState,w,c	;volatile
  8018  001338  B4D8               	btfsc	status,2,c
  8019                           
  8020                           ;usb_device.c: 609: {
  8021                           ;usb_device.c: 619: if(!UCONbits.SE0)
  8022  00133A  BA60               	btfsc	3936,5,c	;volatile
  8023  00133C  D007               	goto	i2l4953
  8024                           
  8025                           ;usb_device.c: 620: {
  8026                           ;usb_device.c: 626: {UIR = 0;};
  8027  00133E  0E00               	movlw	0
  8028  001340  6E65               	movwf	3941,c	;volatile
  8029                           
  8030                           ;usb_device.c: 632: UIEbits.URSTIE = 1;
  8031  001342  8064               	bsf	3940,0,c	;volatile
  8032                           
  8033                           ;usb_device.c: 633: UIEbits.IDLEIE = 1;
  8034  001344  8864               	bsf	3940,4,c	;volatile
  8035                           
  8036                           ;usb_device.c: 634: USBDeviceState = POWERED_STATE;
  8037  001346  0E02               	movlw	2
  8038  001348  6E1B               	movwf	_USBDeviceState,c	;volatile
  8039  00134A  D000               	goto	i2l4953
  8040  00134C                     i2l4953:
  8041                           
  8042                           ;usb_device.c: 635: }
  8043                           ;usb_device.c: 636: }
  8044                           ;usb_device.c: 652: if(UIRbits.ACTVIF && UIEbits.ACTVIE)
  8045  00134C  B465               	btfsc	3941,2,c	;volatile
  8046  00134E  A464               	btfss	3940,2,c	;volatile
  8047  001350  D004               	goto	i2l4961
  8048                           
  8049                           ;usb_device.c: 653: {
  8050                           ;usb_device.c: 654: (UIR &= 0xFB);
  8051  001352  9465               	bcf	3941,2,c	;volatile
  8052                           
  8053                           ;usb_device.c: 658: USBWakeFromSuspend();
  8054  001354  EC59  F017         	call	_USBWakeFromSuspend	;wreg free
  8055  001358  D000               	goto	i2l4961
  8056  00135A                     i2l4961:
  8057                           
  8058                           ;usb_device.c: 660: }
  8059                           ;usb_device.c: 665: if(UCONbits.SUSPND==1)
  8060  00135A  A260               	btfss	3936,1,c	;volatile
  8061  00135C  D002               	goto	i2l446
  8062                           
  8063                           ;usb_device.c: 666: {
  8064                           ;usb_device.c: 667: PIR3bits.USBIF = 0;;
  8065  00135E  94A4               	bcf	4004,2,c	;volatile
  8066                           
  8067                           ;usb_device.c: 668: return;
  8068  001360  0012               	return	
  8069  001362                     i2l446:
  8070                           
  8071                           ;usb_device.c: 669: }
  8072                           ;usb_device.c: 681: if(UIRbits.URSTIF && UIEbits.URSTIE)
  8073  001362  B065               	btfsc	3941,0,c	;volatile
  8074  001364  A064               	btfss	3940,0,c	;volatile
  8075  001366  D007               	goto	i2l4975
  8076                           
  8077                           ;usb_device.c: 682: {
  8078                           ;usb_device.c: 683: USBDeviceInit();
  8079  001368  EC3F  F00A         	call	i2_USBDeviceInit	;wreg free
  8080                           
  8081                           ;usb_device.c: 687: {PIE3bits.USBIE = 1;};
  8082  00136C  84A3               	bsf	4003,2,c	;volatile
  8083                           
  8084                           ;usb_device.c: 689: USBDeviceState = DEFAULT_STATE;
  8085  00136E  0E04               	movlw	4
  8086  001370  6E1B               	movwf	_USBDeviceState,c	;volatile
  8087                           
  8088                           ;usb_device.c: 699: (UIR &= 0xFE);
  8089  001372  9065               	bcf	3941,0,c	;volatile
  8090  001374  D000               	goto	i2l4975
  8091  001376                     i2l4975:
  8092                           
  8093                           ;usb_device.c: 700: }
  8094                           ;usb_device.c: 705: if(UIRbits.IDLEIF && UIEbits.IDLEIE)
  8095  001376  B865               	btfsc	3941,4,c	;volatile
  8096  001378  A864               	btfss	3940,4,c	;volatile
  8097  00137A  D003               	goto	i2l4981
  8098                           
  8099                           ;usb_device.c: 706: {
  8100                           ;usb_device.c: 712: USBSuspend();
  8101  00137C  ECF0  F017         	call	_USBSuspend	;wreg free
  8102  001380  D000               	goto	i2l4981
  8103  001382                     i2l4981:
  8104                           
  8105                           ;usb_device.c: 714: }
  8106                           ;usb_device.c: 726: if(UIRbits.SOFIF)
  8107  001382  AC65               	btfss	3941,6,c	;volatile
  8108  001384  D01F               	goto	i2l4999
  8109                           
  8110                           ;usb_device.c: 727: {
  8111                           ;usb_device.c: 729: if(UIEbits.SOFIE)
  8112  001386  AC64               	btfss	3940,6,c	;volatile
  8113  001388  D00F               	goto	i2l4987
  8114                           
  8115                           ;usb_device.c: 730: {
  8116                           ;usb_device.c: 731: USER_USB_CALLBACK_EVENT_HANDLER(EVENT_SOF,0,1);
  8117  00138A  0E00               	movlw	0
  8118  00138C  6E38               	movwf	USER_USB_CALLBACK_EVENT_HANDLER@event+1,c
  8119  00138E  0E73               	movlw	115
  8120  001390  6E37               	movwf	USER_USB_CALLBACK_EVENT_HANDLER@event,c
  8121  001392  0E00               	movlw	0
  8122  001394  6E39               	movwf	USER_USB_CALLBACK_EVENT_HANDLER@pdata,c
  8123  001396  0E00               	movlw	0
  8124  001398  6E3A               	movwf	USER_USB_CALLBACK_EVENT_HANDLER@pdata+1,c
  8125  00139A  0E00               	movlw	0
  8126  00139C  6E3C               	movwf	USER_USB_CALLBACK_EVENT_HANDLER@size+1,c
  8127  00139E  0E01               	movlw	1
  8128  0013A0  6E3B               	movwf	USER_USB_CALLBACK_EVENT_HANDLER@size,c
  8129  0013A2  EC03  F015         	call	_USER_USB_CALLBACK_EVENT_HANDLER	;wreg free
  8130  0013A6  D000               	goto	i2l4987
  8131  0013A8                     i2l4987:
  8132                           
  8133                           ;usb_device.c: 732: }
  8134                           ;usb_device.c: 733: (UIR &= 0xBF);
  8135  0013A8  9C65               	bcf	3941,6,c	;volatile
  8136                           
  8137                           ;usb_device.c: 736: USBIncrement1msInternalTimers();
  8138  0013AA  EC85  F018         	call	_USBIncrement1msInternalTimers	;wreg free
  8139                           
  8140                           ;usb_device.c: 753: if(USBStatusStageTimeoutCounter != 0u)
  8141  0013AE  501E               	movf	_USBStatusStageTimeoutCounter,w,c	;volatile
  8142  0013B0  B4D8               	btfsc	status,2,c
  8143  0013B2  D002               	goto	i2l4995
  8144                           
  8145                           ;usb_device.c: 754: {
  8146                           ;usb_device.c: 755: USBStatusStageTimeoutCounter--;
  8147  0013B4  061E               	decf	_USBStatusStageTimeoutCounter,f,c	;volatile
  8148  0013B6  D000               	goto	i2l4995
  8149  0013B8                     i2l4995:
  8150                           
  8151                           ;usb_device.c: 756: }
  8152                           ;usb_device.c: 762: if(USBStatusStageTimeoutCounter == 0)
  8153  0013B8  501E               	movf	_USBStatusStageTimeoutCounter,w,c	;volatile
  8154  0013BA  A4D8               	btfss	status,2,c
  8155  0013BC  D003               	goto	i2l4999
  8156                           
  8157                           ;usb_device.c: 763: {
  8158                           ;usb_device.c: 764: USBCtrlEPAllowStatusStage();
  8159  0013BE  EC34  F011         	call	_USBCtrlEPAllowStatusStage	;wreg free
  8160  0013C2  D000               	goto	i2l4999
  8161  0013C4                     i2l4999:
  8162                           
  8163                           ;usb_device.c: 765: }
  8164                           ;usb_device.c: 767: }
  8165                           ;usb_device.c: 769: if(UIRbits.STALLIF && UIEbits.STALLIE)
  8166  0013C4  BA65               	btfsc	3941,5,c	;volatile
  8167  0013C6  AA64               	btfss	3940,5,c	;volatile
  8168  0013C8  D003               	goto	i2l5005
  8169                           
  8170                           ;usb_device.c: 770: {
  8171                           ;usb_device.c: 771: USBStallHandler();
  8172  0013CA  ECBF  F016         	call	_USBStallHandler	;wreg free
  8173  0013CE  D000               	goto	i2l5005
  8174  0013D0                     i2l5005:
  8175                           
  8176                           ;usb_device.c: 772: }
  8177                           ;usb_device.c: 774: if(UIRbits.UERRIF && UIEbits.UERRIE)
  8178  0013D0  B265               	btfsc	3941,1,c	;volatile
  8179  0013D2  A264               	btfss	3940,1,c	;volatile
  8180  0013D4  D010               	goto	i2l5013
  8181                           
  8182                           ;usb_device.c: 775: {
  8183                           ;usb_device.c: 776: USER_USB_CALLBACK_EVENT_HANDLER(EVENT_BUS_ERROR,0,1);
  8184  0013D6  0E7F               	movlw	127
  8185  0013D8  6E38               	movwf	USER_USB_CALLBACK_EVENT_HANDLER@event+1,c
  8186  0013DA  6837               	setf	USER_USB_CALLBACK_EVENT_HANDLER@event,c
  8187  0013DC  0E00               	movlw	0
  8188  0013DE  6E39               	movwf	USER_USB_CALLBACK_EVENT_HANDLER@pdata,c
  8189  0013E0  0E00               	movlw	0
  8190  0013E2  6E3A               	movwf	USER_USB_CALLBACK_EVENT_HANDLER@pdata+1,c
  8191  0013E4  0E00               	movlw	0
  8192  0013E6  6E3C               	movwf	USER_USB_CALLBACK_EVENT_HANDLER@size+1,c
  8193  0013E8  0E01               	movlw	1
  8194  0013EA  6E3B               	movwf	USER_USB_CALLBACK_EVENT_HANDLER@size,c
  8195  0013EC  EC03  F015         	call	_USER_USB_CALLBACK_EVENT_HANDLER	;wreg free
  8196                           
  8197                           ;usb_device.c: 777: {UEIR = 0;};
  8198  0013F0  0E00               	movlw	0
  8199  0013F2  6E67               	movwf	3943,c	;volatile
  8200  0013F4  D000               	goto	i2l5013
  8201  0013F6                     i2l5013:
  8202                           
  8203                           ;usb_device.c: 785: }
  8204                           ;usb_device.c: 792: if(USBDeviceState < DEFAULT_STATE)
  8205  0013F6  0E04               	movlw	4
  8206  0013F8  601B               	cpfslt	_USBDeviceState,c	;volatile
  8207  0013FA  D002               	goto	i2l456
  8208                           
  8209                           ;usb_device.c: 793: {
  8210                           ;usb_device.c: 794: PIR3bits.USBIF = 0;;
  8211  0013FC  94A4               	bcf	4004,2,c	;volatile
  8212                           
  8213                           ;usb_device.c: 795: return;
  8214  0013FE  0012               	return	
  8215  001400                     i2l456:
  8216                           
  8217                           ;usb_device.c: 796: }
  8218                           ;usb_device.c: 801: if(UIEbits.TRNIE)
  8219  001400  A664               	btfss	3940,3,c	;volatile
  8220  001402  D03B               	goto	i2l457
  8221                           
  8222                           ;usb_device.c: 802: {
  8223                           ;usb_device.c: 803: for(i = 0; i < 4u; i++)
  8224  001404  0E00               	movlw	0
  8225  001406  6E46               	movwf	USBDeviceTasks@i,c
  8226  001408                     i2l5019:
  8227  001408  0E03               	movlw	3
  8228  00140A  6446               	cpfsgt	USBDeviceTasks@i,c
  8229  00140C  D001               	goto	i2l458
  8230  00140E  D035               	goto	i2l457
  8231  001410                     i2l458:
  8232                           
  8233                           ;usb_device.c: 804: {
  8234                           ;usb_device.c: 805: if(UIRbits.TRNIF)
  8235  001410  A665               	btfss	3941,3,c	;volatile
  8236  001412  D033               	goto	i2l457
  8237                           
  8238                           ;usb_device.c: 806: {
  8239                           ;usb_device.c: 808: USTATcopy.Val = USTAT;
  8240  001414  CF61 F02A          	movff	3937,_USTATcopy	;volatile
  8241                           
  8242                           ;usb_device.c: 809: endpoint_number = USTATcopy.endpoint_number;
  8243  001418  302A               	rrcf	_USTATcopy,w,c	;volatile
  8244  00141A  32E8               	rrcf	wreg,f,c
  8245  00141C  32E8               	rrcf	wreg,f,c
  8246  00141E  0B0F               	andlw	15
  8247  001420  6E20               	movwf	_endpoint_number,c	;volatile
  8248                           
  8249                           ;usb_device.c: 811: (UIR &= 0xF7);
  8250  001422  9665               	bcf	3941,3,c	;volatile
  8251                           
  8252                           ;usb_device.c: 816: if(USTATcopy.direction == 0)
  8253  001424  B42A               	btfsc	_USTATcopy,2,c	;volatile
  8254  001426  D007               	goto	i2l5033
  8255                           
  8256                           ;usb_device.c: 817: {
  8257                           ;usb_device.c: 818: ep_data_out[endpoint_number].bits.ping_pong_state ^= 1;
  8258  001428  5020               	movf	_endpoint_number,w,c	;volatile
  8259  00142A  0D01               	mullw	1
  8260  00142C  0E11               	movlw	low _ep_data_out
  8261  00142E  24F3               	addwf	prodl,w,c
  8262  001430  6ED9               	movwf	fsr2l,c
  8263  001432  0E00               	movlw	high _ep_data_out
  8264  001434  D006               	goto	L8
  8265  001436                     i2l5033:
  8266                           
  8267                           ;usb_device.c: 820: else
  8268                           ;usb_device.c: 821: {
  8269                           ;usb_device.c: 822: ep_data_in[endpoint_number].bits.ping_pong_state ^= 1;
  8270  001436  5020               	movf	_endpoint_number,w,c	;volatile
  8271  001438  0D01               	mullw	1
  8272  00143A  0E0F               	movlw	low _ep_data_in
  8273  00143C  24F3               	addwf	prodl,w,c
  8274  00143E  6ED9               	movwf	fsr2l,c
  8275  001440  0E00               	movlw	high _ep_data_in
  8276  001442                     L8:
  8277  001442  20F4               	addwfc	prodh,w,c
  8278  001444  6EDA               	movwf	fsr2h,c
  8279  001446  70DF               	btg	indf2,0,c
  8280  001448  D000               	goto	i2l5035
  8281  00144A                     i2l5035:
  8282                           
  8283                           ;usb_device.c: 823: }
  8284                           ;usb_device.c: 828: if(endpoint_number == 0)
  8285  00144A  5020               	movf	_endpoint_number,w,c	;volatile
  8286  00144C  A4D8               	btfss	status,2,c
  8287  00144E  D003               	goto	i2l5039
  8288                           
  8289                           ;usb_device.c: 829: {
  8290                           ;usb_device.c: 830: USBCtrlEPService();
  8291  001450  ECF3  F013         	call	_USBCtrlEPService	;wreg free
  8292                           
  8293                           ;usb_device.c: 831: }
  8294  001454  D010               	goto	i2l5041
  8295  001456                     i2l5039:
  8296                           
  8297                           ;usb_device.c: 832: else
  8298                           ;usb_device.c: 833: {
  8299                           ;usb_device.c: 834: USER_USB_CALLBACK_EVENT_HANDLER(EVENT_TRANSFER,(uint8_t*)&USTATcopy.
      +                          Val,0);
  8300  001456  0E00               	movlw	0
  8301  001458  6E38               	movwf	USER_USB_CALLBACK_EVENT_HANDLER@event+1,c
  8302  00145A  0E72               	movlw	114
  8303  00145C  6E37               	movwf	USER_USB_CALLBACK_EVENT_HANDLER@event,c
  8304  00145E  0E2A               	movlw	low _USTATcopy
  8305  001460  6E39               	movwf	USER_USB_CALLBACK_EVENT_HANDLER@pdata,c
  8306  001462  0E00               	movlw	high _USTATcopy
  8307  001464  6E3A               	movwf	USER_USB_CALLBACK_EVENT_HANDLER@pdata+1,c
  8308  001466  0E00               	movlw	0
  8309  001468  6E3C               	movwf	USER_USB_CALLBACK_EVENT_HANDLER@size+1,c
  8310  00146A  0E00               	movlw	0
  8311  00146C  6E3B               	movwf	USER_USB_CALLBACK_EVENT_HANDLER@size,c
  8312  00146E  EC03  F015         	call	_USER_USB_CALLBACK_EVENT_HANDLER	;wreg free
  8313                           
  8314                           ;usb_device.c: 835: }
  8315                           ;usb_device.c: 836: }
  8316  001472  D001               	goto	i2l5041
  8317                           
  8318                           ;usb_device.c: 837: else
  8319                           ;usb_device.c: 838: {
  8320                           ;usb_device.c: 839: break;
  8321  001474  D002               	goto	i2l457
  8322  001476                     i2l5041:
  8323  001476  2A46               	incf	USBDeviceTasks@i,f,c
  8324  001478  D7C7               	goto	i2l5019
  8325  00147A                     i2l457:
  8326                           
  8327                           ;usb_device.c: 840: }
  8328                           ;usb_device.c: 841: }
  8329                           ;usb_device.c: 842: }
  8330                           ;usb_device.c: 844: PIR3bits.USBIF = 0;;
  8331  00147A  94A4               	bcf	4004,2,c	;volatile
  8332  00147C  0012               	return		;funcret
  8333  00147E                     __end_of_USBDeviceTasks:
  8334                           	opt stack 0
  8335                           pclatu	equ	0xFFB
  8336                           pclath	equ	0xFFA
  8337                           tblptru	equ	0xFF8
  8338                           tblptrh	equ	0xFF7
  8339                           tblptrl	equ	0xFF6
  8340                           tablat	equ	0xFF5
  8341                           prodh	equ	0xFF4
  8342                           prodl	equ	0xFF3
  8343                           intcon	equ	0xFF2
  8344                           postinc0	equ	0xFEE
  8345                           fsr0h	equ	0xFEA
  8346                           fsr0l	equ	0xFE9
  8347                           wreg	equ	0xFE8
  8348                           fsr1h	equ	0xFE2
  8349                           fsr1l	equ	0xFE1
  8350                           indf2	equ	0xFDF
  8351                           postinc2	equ	0xFDE
  8352                           postdec2	equ	0xFDD
  8353                           plusw2	equ	0xFDB
  8354                           fsr2h	equ	0xFDA
  8355                           fsr2l	equ	0xFD9
  8356                           status	equ	0xFD8
  8357                           
  8358 ;; *************** function i2_USBDeviceInit *****************
  8359 ;; Defined at:
  8360 ;;		line 295 in file "../../../../../../microchip/mla/v2015_08_10/framework/usb/src/usb_device.c"
  8361 ;; Parameters:    Size  Location     Type
  8362 ;;		None
  8363 ;; Auto vars:     Size  Location     Type
  8364 ;;  USBDeviceIni    1    8[COMRAM] unsigned char 
  8365 ;; Return value:  Size  Location     Type
  8366 ;;		None               void
  8367 ;; Registers used:
  8368 ;;		wreg, fsr2l, fsr2h, status,2, status,0, prodl, prodh, cstack
  8369 ;; Tracked objects:
  8370 ;;		On entry : 0/0
  8371 ;;		On exit  : 0/0
  8372 ;;		Unchanged: 0/0
  8373 ;; Data sizes:     COMRAM   BANK0   BANK1   BANK2   BANK3   BANK4   BANK5   BANK6   BANK7
  8374 ;;      Params:         0       0       0       0       0       0       0       0       0
  8375 ;;      Locals:         1       0       0       0       0       0       0       0       0
  8376 ;;      Temps:          0       0       0       0       0       0       0       0       0
  8377 ;;      Totals:         1       0       0       0       0       0       0       0       0
  8378 ;;Total ram usage:        1 bytes
  8379 ;; Hardware stack levels used:    1
  8380 ;; Hardware stack levels required when called:    1
  8381 ;; This function calls:
  8382 ;;		i2_memset
  8383 ;; This function is called by:
  8384 ;;		_USBDeviceTasks
  8385 ;; This function uses a non-reentrant model
  8386 ;;
  8387                           
  8388                           	psect	text39
  8389  00147E                     __ptext39:
  8390                           	opt stack 0
  8391  00147E                     i2_USBDeviceInit:
  8392                           	opt stack 21
  8393                           
  8394                           ;usb_device.c: 297: uint8_t i;
  8395                           ;usb_device.c: 299: {PIE3bits.USBIE = 0;};
  8396                           
  8397                           ;incstack = 0
  8398  00147E  94A3               	bcf	4003,2,c	;volatile
  8399                           
  8400                           ;usb_device.c: 303: ;
  8401                           ;usb_device.c: 306: {UEIR = 0;};
  8402  001480  0E00               	movlw	0
  8403  001482  6E67               	movwf	3943,c	;volatile
  8404                           
  8405                           ;usb_device.c: 309: {UIR = 0;};
  8406  001484  0E00               	movlw	0
  8407  001486  6E65               	movwf	3941,c	;volatile
  8408                           
  8409                           ;usb_device.c: 312: UEP0 = 0;
  8410  001488  0E00               	movlw	0
  8411  00148A  6E6A               	movwf	3946,c	;volatile
  8412                           
  8413                           ;usb_device.c: 314: memset((void*)&UEP1,0x00,(1));;
  8414  00148C  0E6B               	movlw	107
  8415  00148E  6E2B               	movwf	i2memset@p1,c
  8416  001490  0E0F               	movlw	15
  8417  001492  6E2C               	movwf	i2memset@p1+1,c
  8418  001494  0E00               	movlw	0
  8419  001496  6E2E               	movwf	i2memset@c+1,c
  8420  001498  0E00               	movlw	0
  8421  00149A  6E2D               	movwf	i2memset@c,c
  8422  00149C  0E00               	movlw	0
  8423  00149E  6E30               	movwf	i2memset@n+1,c
  8424  0014A0  0E01               	movlw	1
  8425  0014A2  6E2F               	movwf	i2memset@n,c
  8426  0014A4  EC07  F018         	call	i2_memset	;wreg free
  8427                           
  8428                           ;usb_device.c: 316: { UCFG = 0x10 | 0x00 | 0x04 | 0x02; UEIE = 0x9F; UIE = 0x39 | 0x40 |
      +                           0x02; };
  8429  0014A8  0E16               	movlw	22
  8430  0014AA  6E62               	movwf	3938,c	;volatile
  8431  0014AC  0E9F               	movlw	159
  8432  0014AE  6E66               	movwf	3942,c	;volatile
  8433  0014B0  0E7B               	movlw	123
  8434  0014B2  6E64               	movwf	3940,c	;volatile
  8435                           
  8436                           ;usb_device.c: 319: ;
  8437                           ;usb_device.c: 322: ;
  8438                           ;usb_device.c: 325: for(i = 0; i < (sizeof(BDT)/sizeof(BDT_ENTRY)); i++)
  8439  0014B4  0E00               	movlw	0
  8440  0014B6  6E33               	movwf	i2USBDeviceInit@i,c
  8441  0014B8  D00E               	goto	i2l4893
  8442  0014BA  D010               	goto	i2l435
  8443  0014BC                     i2l4889:
  8444                           
  8445                           ;usb_device.c: 326: {
  8446                           ;usb_device.c: 327: BDT[i].Val = 0x00;
  8447  0014BC  5033               	movf	i2USBDeviceInit@i,w,c
  8448  0014BE  0D04               	mullw	4
  8449  0014C0  0E00               	movlw	0
  8450  0014C2  24F3               	addwf	prodl,w,c
  8451  0014C4  6ED9               	movwf	fsr2l,c
  8452  0014C6  0E04               	movlw	4
  8453  0014C8  20F4               	addwfc	prodh,w,c
  8454  0014CA  6EDA               	movwf	fsr2h,c
  8455  0014CC  6ADE               	clrf	postinc2,c
  8456  0014CE  6ADE               	clrf	postinc2,c
  8457  0014D0  6ADE               	clrf	postinc2,c
  8458  0014D2  6ADD               	clrf	postdec2,c
  8459  0014D4  2A33               	incf	i2USBDeviceInit@i,f,c
  8460  0014D6                     i2l4893:
  8461  0014D6  0E07               	movlw	7
  8462  0014D8  6433               	cpfsgt	i2USBDeviceInit@i,c
  8463  0014DA  D7F0               	goto	i2l4889
  8464  0014DC                     i2l435:
  8465                           
  8466                           ;usb_device.c: 328: }
  8467                           ;usb_device.c: 331: UCONbits.PPBRST = 1;
  8468  0014DC  8C60               	bsf	3936,6,c	;volatile
  8469                           
  8470                           ;usb_device.c: 334: UADDR = 0x00;
  8471  0014DE  0E00               	movlw	0
  8472  0014E0  6E63               	movwf	3939,c	;volatile
  8473                           
  8474                           ;usb_device.c: 337: UCONbits.PKTDIS = 0;
  8475  0014E2  9860               	bcf	3936,4,c	;volatile
  8476                           
  8477                           ;usb_device.c: 340: UCONbits.PPBRST = 0;
  8478  0014E4  9C60               	bcf	3936,6,c	;volatile
  8479  0014E6  D000               	goto	i2l4901
  8480  0014E8                     i2l4901:
  8481                           
  8482                           ;usb_device.c: 344: {
  8483                           ;usb_device.c: 345: (UIR &= 0xF7);
  8484  0014E8  9665               	bcf	3941,3,c	;volatile
  8485                           
  8486                           ;usb_device.c: 347: inPipes[0].info.Val = 0;
  8487  0014EA  0E00               	movlw	0
  8488  0014EC  6E25               	movwf	_inPipes+3,c	;volatile
  8489                           
  8490                           ;usb_device.c: 348: outPipes[0].info.Val = 0;
  8491  0014EE  0E00               	movlw	0
  8492  0014F0  6E04               	movwf	_outPipes+3,c	;volatile
  8493                           
  8494                           ;usb_device.c: 349: outPipes[0].wCount.Val = 0;
  8495  0014F2  0E00               	movlw	0
  8496  0014F4  6E06               	movwf	_outPipes+5,c	;volatile
  8497  0014F6  0E00               	movlw	0
  8498  0014F8  6E05               	movwf	_outPipes+4,c	;volatile
  8499                           
  8500                           ;usb_device.c: 350: }while(UIRbits.TRNIF == 1);
  8501  0014FA  B665               	btfsc	3941,3,c	;volatile
  8502  0014FC  D7F5               	goto	i2l4901
  8503                           
  8504                           ;usb_device.c: 354: USBStatusStageEnabledFlag1 = 1;
  8505  0014FE  0E01               	movlw	1
  8506  001500  6E1C               	movwf	_USBStatusStageEnabledFlag1,c	;volatile
  8507                           
  8508                           ;usb_device.c: 355: USBStatusStageEnabledFlag2 = 1;
  8509  001502  0E01               	movlw	1
  8510  001504  6E1D               	movwf	_USBStatusStageEnabledFlag2,c	;volatile
  8511                           
  8512                           ;usb_device.c: 357: USBDeferINDataStagePackets = 0;
  8513  001506  0E00               	movlw	0
  8514  001508  0100               	movlb	0	; () banked
  8515  00150A  6FF2               	movwf	_USBDeferINDataStagePackets& (0+255),b	;volatile
  8516                           
  8517                           ;usb_device.c: 358: USBDeferOUTDataStagePackets = 0;
  8518  00150C  0E00               	movlw	0
  8519  00150E  0100               	movlb	0	; () banked
  8520  001510  6FF3               	movwf	_USBDeferOUTDataStagePackets& (0+255),b	;volatile
  8521                           
  8522                           ;usb_device.c: 359: USBBusIsSuspended = 0;
  8523  001512  0E00               	movlw	0
  8524  001514  6E19               	movwf	_USBBusIsSuspended,c	;volatile
  8525                           
  8526                           ;usb_device.c: 363: for(i = 0; i < (uint8_t)(1+1u); i++)
  8527  001516  0E00               	movlw	0
  8528  001518  6E33               	movwf	i2USBDeviceInit@i,c
  8529  00151A                     i2l4913:
  8530                           
  8531                           ; BSR set to: 0
  8532  00151A  0E01               	movlw	1
  8533  00151C  6433               	cpfsgt	i2USBDeviceInit@i,c
  8534  00151E  D001               	goto	i2l4917
  8535                           
  8536                           ; BSR set to: 0
  8537  001520  D02E               	goto	i2l4923
  8538  001522                     i2l4917:
  8539                           
  8540                           ;usb_device.c: 364: {
  8541                           ;usb_device.c: 365: pBDTEntryIn[i] = 0u;
  8542  001522  5033               	movf	i2USBDeviceInit@i,w,c
  8543  001524  0D02               	mullw	2
  8544  001526  0E09               	movlw	low _pBDTEntryIn
  8545  001528  24F3               	addwf	prodl,w,c
  8546  00152A  6ED9               	movwf	fsr2l,c
  8547  00152C  0E00               	movlw	high _pBDTEntryIn
  8548  00152E  20F4               	addwfc	prodh,w,c
  8549  001530  6EDA               	movwf	fsr2h,c
  8550  001532  0E00               	movlw	0
  8551  001534  6EDE               	movwf	postinc2,c
  8552  001536  0E00               	movlw	0
  8553  001538  6EDD               	movwf	postdec2,c
  8554                           
  8555                           ;usb_device.c: 366: pBDTEntryOut[i] = 0u;
  8556  00153A  5033               	movf	i2USBDeviceInit@i,w,c
  8557  00153C  0D02               	mullw	2
  8558  00153E  0EE6               	movlw	low _pBDTEntryOut
  8559  001540  24F3               	addwf	prodl,w,c
  8560  001542  6ED9               	movwf	fsr2l,c
  8561  001544  0E00               	movlw	high _pBDTEntryOut
  8562  001546  20F4               	addwfc	prodh,w,c
  8563  001548  6EDA               	movwf	fsr2h,c
  8564  00154A  0E00               	movlw	0
  8565  00154C  6EDE               	movwf	postinc2,c
  8566  00154E  0E00               	movlw	0
  8567  001550  6EDD               	movwf	postdec2,c
  8568                           
  8569                           ;usb_device.c: 367: ep_data_in[i].Val = 0u;
  8570  001552  5033               	movf	i2USBDeviceInit@i,w,c
  8571  001554  0D01               	mullw	1
  8572  001556  0E0F               	movlw	low _ep_data_in
  8573  001558  24F3               	addwf	prodl,w,c
  8574  00155A  6ED9               	movwf	fsr2l,c
  8575  00155C  0E00               	movlw	high _ep_data_in
  8576  00155E  20F4               	addwfc	prodh,w,c
  8577  001560  6EDA               	movwf	fsr2h,c
  8578  001562  0E00               	movlw	0
  8579  001564  6EDF               	movwf	indf2,c
  8580                           
  8581                           ;usb_device.c: 368: ep_data_out[i].Val = 0u;
  8582  001566  5033               	movf	i2USBDeviceInit@i,w,c
  8583  001568  0D01               	mullw	1
  8584  00156A  0E11               	movlw	low _ep_data_out
  8585  00156C  24F3               	addwf	prodl,w,c
  8586  00156E  6ED9               	movwf	fsr2l,c
  8587  001570  0E00               	movlw	high _ep_data_out
  8588  001572  20F4               	addwfc	prodh,w,c
  8589  001574  6EDA               	movwf	fsr2h,c
  8590  001576  0E00               	movlw	0
  8591  001578  6EDF               	movwf	indf2,c
  8592  00157A  2A33               	incf	i2USBDeviceInit@i,f,c
  8593  00157C  D7CE               	goto	i2l4913
  8594  00157E                     i2l4923:
  8595                           
  8596                           ;usb_device.c: 369: }
  8597                           ;usb_device.c: 372: pBDTEntryIn[0] = (volatile BDT_ENTRY*)&BDT[2];
  8598  00157E  0E08               	movlw	8
  8599  001580  6E09               	movwf	_pBDTEntryIn,c
  8600  001582  0E04               	movlw	4
  8601  001584  6E0A               	movwf	_pBDTEntryIn+1,c
  8602                           
  8603                           ;usb_device.c: 374: UEP0 = 0x06|0x10;
  8604  001586  0E16               	movlw	22
  8605  001588  6E6A               	movwf	3946,c	;volatile
  8606                           
  8607                           ;usb_device.c: 376: BDT[0].ADR = ((uint16_t)(&SetupPkt));
  8608  00158A  0E04               	movlw	4
  8609  00158C  0104               	movlb	4	; () banked
  8610  00158E  6F03               	movwf	3,b	;volatile
  8611  001590  0E20               	movlw	32
  8612  001592  6F02               	movwf	2,b	;volatile
  8613                           
  8614                           ; BSR set to: 4
  8615                           ;usb_device.c: 377: BDT[0].CNT = 8;
  8616  001594  0E08               	movlw	8
  8617  001596  0104               	movlb	4	; () banked
  8618  001598  6F01               	movwf	1,b	;volatile
  8619                           
  8620                           ; BSR set to: 4
  8621                           ;usb_device.c: 378: BDT[0].STAT.Val = 0x00|0x04;
  8622  00159A  0E04               	movlw	4
  8623  00159C  0104               	movlb	4	; () banked
  8624  00159E  6F00               	movwf	0,b	;volatile
  8625                           
  8626                           ; BSR set to: 4
  8627                           ;usb_device.c: 379: BDT[0].STAT.Val |= 0x80;
  8628  0015A0  0104               	movlb	4	; () banked
  8629  0015A2  8F00               	bsf	0,7,b	;volatile
  8630                           
  8631                           ; BSR set to: 4
  8632                           ;usb_device.c: 382: USBActiveConfiguration = 0;
  8633  0015A4  0E00               	movlw	0
  8634  0015A6  6E28               	movwf	_USBActiveConfiguration,c	;volatile
  8635                           
  8636                           ; BSR set to: 4
  8637                           ;usb_device.c: 384: USB1msTickCount = 0;
  8638  0015A8  0E00               	movlw	0
  8639  0015AA  0100               	movlb	0	; () banked
  8640  0015AC  6FE2               	movwf	_USB1msTickCount& (0+255),b	;volatile
  8641  0015AE  0E00               	movlw	0
  8642  0015B0  6FE3               	movwf	(_USB1msTickCount+1)& (0+255),b	;volatile
  8643  0015B2  0E00               	movlw	0
  8644  0015B4  6FE4               	movwf	(_USB1msTickCount+2)& (0+255),b	;volatile
  8645  0015B6  0E00               	movlw	0
  8646  0015B8  6FE5               	movwf	(_USB1msTickCount+3)& (0+255),b	;volatile
  8647                           
  8648                           ; BSR set to: 0
  8649                           ;usb_device.c: 385: USBTicksSinceSuspendEnd = 0;
  8650  0015BA  0E00               	movlw	0
  8651  0015BC  0100               	movlb	0	; () banked
  8652  0015BE  6FF4               	movwf	_USBTicksSinceSuspendEnd& (0+255),b	;volatile
  8653                           
  8654                           ; BSR set to: 0
  8655                           ;usb_device.c: 388: USBDeviceState = DETACHED_STATE;
  8656  0015C0  0E00               	movlw	0
  8657  0015C2  6E1B               	movwf	_USBDeviceState,c	;volatile
  8658                           
  8659                           ; BSR set to: 0
  8660  0015C4  0012               	return		;funcret
  8661  0015C6                     __end_ofi2_USBDeviceInit:
  8662                           	opt stack 0
  8663                           pclatu	equ	0xFFB
  8664                           pclath	equ	0xFFA
  8665                           tblptru	equ	0xFF8
  8666                           tblptrh	equ	0xFF7
  8667                           tblptrl	equ	0xFF6
  8668                           tablat	equ	0xFF5
  8669                           prodh	equ	0xFF4
  8670                           prodl	equ	0xFF3
  8671                           intcon	equ	0xFF2
  8672                           postinc0	equ	0xFEE
  8673                           fsr0h	equ	0xFEA
  8674                           fsr0l	equ	0xFE9
  8675                           wreg	equ	0xFE8
  8676                           fsr1h	equ	0xFE2
  8677                           fsr1l	equ	0xFE1
  8678                           indf2	equ	0xFDF
  8679                           postinc2	equ	0xFDE
  8680                           postdec2	equ	0xFDD
  8681                           plusw2	equ	0xFDB
  8682                           fsr2h	equ	0xFDA
  8683                           fsr2l	equ	0xFD9
  8684                           status	equ	0xFD8
  8685                           
  8686 ;; *************** function _USBWakeFromSuspend *****************
  8687 ;; Defined at:
  8688 ;;		line 2321 in file "../../../../../../microchip/mla/v2015_08_10/framework/usb/src/usb_device.c"
  8689 ;; Parameters:    Size  Location     Type
  8690 ;;		None
  8691 ;; Auto vars:     Size  Location     Type
  8692 ;;		None
  8693 ;; Return value:  Size  Location     Type
  8694 ;;		None               void
  8695 ;; Registers used:
  8696 ;;		wreg, fsr2l, fsr2h, status,2, status,0, prodl, prodh, cstack
  8697 ;; Tracked objects:
  8698 ;;		On entry : 0/0
  8699 ;;		On exit  : 0/0
  8700 ;;		Unchanged: 0/0
  8701 ;; Data sizes:     COMRAM   BANK0   BANK1   BANK2   BANK3   BANK4   BANK5   BANK6   BANK7
  8702 ;;      Params:         0       0       0       0       0       0       0       0       0
  8703 ;;      Locals:         0       0       0       0       0       0       0       0       0
  8704 ;;      Temps:          0       0       0       0       0       0       0       0       0
  8705 ;;      Totals:         0       0       0       0       0       0       0       0       0
  8706 ;;Total ram usage:        0 bytes
  8707 ;; Hardware stack levels used:    1
  8708 ;; Hardware stack levels required when called:    4
  8709 ;; This function calls:
  8710 ;;		_USER_USB_CALLBACK_EVENT_HANDLER
  8711 ;; This function is called by:
  8712 ;;		_USBDeviceTasks
  8713 ;; This function uses a non-reentrant model
  8714 ;;
  8715                           
  8716                           	psect	text40
  8717  002EB2                     __ptext40:
  8718                           	opt stack 0
  8719  002EB2                     _USBWakeFromSuspend:
  8720                           	opt stack 18
  8721                           
  8722                           ;usb_device.c: 2323: USBBusIsSuspended = 0;
  8723                           
  8724                           ; BSR set to: 0
  8725                           ;incstack = 0
  8726  002EB2  0E00               	movlw	0
  8727  002EB4  6E19               	movwf	_USBBusIsSuspended,c	;volatile
  8728                           
  8729                           ;usb_device.c: 2329: USER_USB_CALLBACK_EVENT_HANDLER(EVENT_RESUME,0,0);
  8730  002EB6  0E00               	movlw	0
  8731  002EB8  6E38               	movwf	USER_USB_CALLBACK_EVENT_HANDLER@event+1,c
  8732  002EBA  0E74               	movlw	116
  8733  002EBC  6E37               	movwf	USER_USB_CALLBACK_EVENT_HANDLER@event,c
  8734  002EBE  0E00               	movlw	0
  8735  002EC0  6E39               	movwf	USER_USB_CALLBACK_EVENT_HANDLER@pdata,c
  8736  002EC2  0E00               	movlw	0
  8737  002EC4  6E3A               	movwf	USER_USB_CALLBACK_EVENT_HANDLER@pdata+1,c
  8738  002EC6  0E00               	movlw	0
  8739  002EC8  6E3C               	movwf	USER_USB_CALLBACK_EVENT_HANDLER@size+1,c
  8740  002ECA  0E00               	movlw	0
  8741  002ECC  6E3B               	movwf	USER_USB_CALLBACK_EVENT_HANDLER@size,c
  8742  002ECE  EC03  F015         	call	_USER_USB_CALLBACK_EVENT_HANDLER	;wreg free
  8743                           
  8744                           ;usb_device.c: 2336: UCONbits.SUSPND = 0;
  8745  002ED2  9260               	bcf	3936,1,c	;volatile
  8746                           
  8747                           ;usb_device.c: 2341: UIEbits.ACTVIE = 0;
  8748  002ED4  9464               	bcf	3940,2,c	;volatile
  8749                           
  8750                           ;usb_device.c: 2359: while(UIRbits.ACTVIF)
  8751  002ED6  D002               	goto	i2l4819
  8752  002ED8                     i2l4817:
  8753                           
  8754                           ;usb_device.c: 2361: {
  8755                           ;usb_device.c: 2362: (UIR &= 0xFB);
  8756  002ED8  9465               	bcf	3941,2,c	;volatile
  8757  002EDA  D000               	goto	i2l4819
  8758  002EDC                     i2l4819:
  8759  002EDC  B465               	btfsc	3941,2,c	;volatile
  8760  002EDE  D7FC               	goto	i2l4817
  8761                           
  8762                           ;usb_device.c: 2363: }
  8763                           ;usb_device.c: 2365: USBTicksSinceSuspendEnd = 0;
  8764  002EE0  0E00               	movlw	0
  8765  002EE2  0100               	movlb	0	; () banked
  8766  002EE4  6FF4               	movwf	_USBTicksSinceSuspendEnd& (0+255),b	;volatile
  8767                           
  8768                           ; BSR set to: 0
  8769  002EE6  0012               	return		;funcret
  8770  002EE8                     __end_of_USBWakeFromSuspend:
  8771                           	opt stack 0
  8772                           pclatu	equ	0xFFB
  8773                           pclath	equ	0xFFA
  8774                           tblptru	equ	0xFF8
  8775                           tblptrh	equ	0xFF7
  8776                           tblptrl	equ	0xFF6
  8777                           tablat	equ	0xFF5
  8778                           prodh	equ	0xFF4
  8779                           prodl	equ	0xFF3
  8780                           intcon	equ	0xFF2
  8781                           postinc0	equ	0xFEE
  8782                           fsr0h	equ	0xFEA
  8783                           fsr0l	equ	0xFE9
  8784                           wreg	equ	0xFE8
  8785                           fsr1h	equ	0xFE2
  8786                           fsr1l	equ	0xFE1
  8787                           indf2	equ	0xFDF
  8788                           postinc2	equ	0xFDE
  8789                           postdec2	equ	0xFDD
  8790                           plusw2	equ	0xFDB
  8791                           fsr2h	equ	0xFDA
  8792                           fsr2l	equ	0xFD9
  8793                           status	equ	0xFD8
  8794                           
  8795 ;; *************** function _USBSuspend *****************
  8796 ;; Defined at:
  8797 ;;		line 2263 in file "../../../../../../microchip/mla/v2015_08_10/framework/usb/src/usb_device.c"
  8798 ;; Parameters:    Size  Location     Type
  8799 ;;		None
  8800 ;; Auto vars:     Size  Location     Type
  8801 ;;		None
  8802 ;; Return value:  Size  Location     Type
  8803 ;;		None               void
  8804 ;; Registers used:
  8805 ;;		wreg, fsr2l, fsr2h, status,2, status,0, prodl, prodh, cstack
  8806 ;; Tracked objects:
  8807 ;;		On entry : 0/0
  8808 ;;		On exit  : 0/0
  8809 ;;		Unchanged: 0/0
  8810 ;; Data sizes:     COMRAM   BANK0   BANK1   BANK2   BANK3   BANK4   BANK5   BANK6   BANK7
  8811 ;;      Params:         0       0       0       0       0       0       0       0       0
  8812 ;;      Locals:         0       0       0       0       0       0       0       0       0
  8813 ;;      Temps:          0       0       0       0       0       0       0       0       0
  8814 ;;      Totals:         0       0       0       0       0       0       0       0       0
  8815 ;;Total ram usage:        0 bytes
  8816 ;; Hardware stack levels used:    1
  8817 ;; Hardware stack levels required when called:    4
  8818 ;; This function calls:
  8819 ;;		_USER_USB_CALLBACK_EVENT_HANDLER
  8820 ;; This function is called by:
  8821 ;;		_USBDeviceTasks
  8822 ;; This function uses a non-reentrant model
  8823 ;;
  8824                           
  8825                           	psect	text41
  8826  002FE0                     __ptext41:
  8827                           	opt stack 0
  8828  002FE0                     _USBSuspend:
  8829                           	opt stack 18
  8830                           
  8831                           ;usb_device.c: 2288: UIEbits.ACTVIE = 1;
  8832                           
  8833                           ; BSR set to: 0
  8834                           ;incstack = 0
  8835  002FE0  8464               	bsf	3940,2,c	;volatile
  8836                           
  8837                           ;usb_device.c: 2289: (UIR &= 0xEF);
  8838  002FE2  9865               	bcf	3941,4,c	;volatile
  8839                           
  8840                           ;usb_device.c: 2292: UCONbits.SUSPND = 1;
  8841  002FE4  8260               	bsf	3936,1,c	;volatile
  8842                           
  8843                           ;usb_device.c: 2295: USBBusIsSuspended = 1;
  8844  002FE6  0E01               	movlw	1
  8845  002FE8  6E19               	movwf	_USBBusIsSuspended,c	;volatile
  8846                           
  8847                           ;usb_device.c: 2296: USBTicksSinceSuspendEnd = 0;
  8848  002FEA  0E00               	movlw	0
  8849  002FEC  0100               	movlb	0	; () banked
  8850  002FEE  6FF4               	movwf	_USBTicksSinceSuspendEnd& (0+255),b	;volatile
  8851                           
  8852                           ; BSR set to: 0
  8853                           ;usb_device.c: 2303: USER_USB_CALLBACK_EVENT_HANDLER(EVENT_SUSPEND,0,0);
  8854  002FF0  0E00               	movlw	0
  8855  002FF2  6E38               	movwf	USER_USB_CALLBACK_EVENT_HANDLER@event+1,c
  8856  002FF4  0E75               	movlw	117
  8857  002FF6  6E37               	movwf	USER_USB_CALLBACK_EVENT_HANDLER@event,c
  8858  002FF8  0E00               	movlw	0
  8859  002FFA  6E39               	movwf	USER_USB_CALLBACK_EVENT_HANDLER@pdata,c
  8860  002FFC  0E00               	movlw	0
  8861  002FFE  6E3A               	movwf	USER_USB_CALLBACK_EVENT_HANDLER@pdata+1,c
  8862  003000  0E00               	movlw	0
  8863  003002  6E3C               	movwf	USER_USB_CALLBACK_EVENT_HANDLER@size+1,c
  8864  003004  0E00               	movlw	0
  8865  003006  6E3B               	movwf	USER_USB_CALLBACK_EVENT_HANDLER@size,c
  8866  003008  EC03  F015         	call	_USER_USB_CALLBACK_EVENT_HANDLER	;wreg free
  8867  00300C  0012               	return		;funcret
  8868  00300E                     __end_of_USBSuspend:
  8869                           	opt stack 0
  8870                           pclatu	equ	0xFFB
  8871                           pclath	equ	0xFFA
  8872                           tblptru	equ	0xFF8
  8873                           tblptrh	equ	0xFF7
  8874                           tblptrl	equ	0xFF6
  8875                           tablat	equ	0xFF5
  8876                           prodh	equ	0xFF4
  8877                           prodl	equ	0xFF3
  8878                           intcon	equ	0xFF2
  8879                           postinc0	equ	0xFEE
  8880                           fsr0h	equ	0xFEA
  8881                           fsr0l	equ	0xFE9
  8882                           wreg	equ	0xFE8
  8883                           fsr1h	equ	0xFE2
  8884                           fsr1l	equ	0xFE1
  8885                           indf2	equ	0xFDF
  8886                           postinc2	equ	0xFDE
  8887                           postdec2	equ	0xFDD
  8888                           plusw2	equ	0xFDB
  8889                           fsr2h	equ	0xFDA
  8890                           fsr2l	equ	0xFD9
  8891                           status	equ	0xFD8
  8892                           
  8893 ;; *************** function _USBStallHandler *****************
  8894 ;; Defined at:
  8895 ;;		line 2220 in file "../../../../../../microchip/mla/v2015_08_10/framework/usb/src/usb_device.c"
  8896 ;; Parameters:    Size  Location     Type
  8897 ;;		None
  8898 ;; Auto vars:     Size  Location     Type
  8899 ;;		None
  8900 ;; Return value:  Size  Location     Type
  8901 ;;		None               void
  8902 ;; Registers used:
  8903 ;;		wreg, fsr2l, fsr2h, status,2, status,0
  8904 ;; Tracked objects:
  8905 ;;		On entry : 0/0
  8906 ;;		On exit  : 0/0
  8907 ;;		Unchanged: 0/0
  8908 ;; Data sizes:     COMRAM   BANK0   BANK1   BANK2   BANK3   BANK4   BANK5   BANK6   BANK7
  8909 ;;      Params:         0       0       0       0       0       0       0       0       0
  8910 ;;      Locals:         0       0       0       0       0       0       0       0       0
  8911 ;;      Temps:          1       0       0       0       0       0       0       0       0
  8912 ;;      Totals:         1       0       0       0       0       0       0       0       0
  8913 ;;Total ram usage:        1 bytes
  8914 ;; Hardware stack levels used:    1
  8915 ;; This function calls:
  8916 ;;		Nothing
  8917 ;; This function is called by:
  8918 ;;		_USBDeviceTasks
  8919 ;; This function uses a non-reentrant model
  8920 ;;
  8921                           
  8922                           	psect	text42
  8923  002D7E                     __ptext42:
  8924                           	opt stack 0
  8925  002D7E                     _USBStallHandler:
  8926                           	opt stack 22
  8927                           
  8928                           ;usb_device.c: 2232: if(UEP0bits.EPSTALL == 1)
  8929                           
  8930                           ;incstack = 0
  8931  002D7E  A06A               	btfss	3946,0,c	;volatile
  8932  002D80  D01E               	goto	i2l596
  8933                           
  8934                           ;usb_device.c: 2233: {
  8935                           ;usb_device.c: 2235: if((pBDTEntryEP0OutCurrent->STAT.Val == 0x80) && (pBDTEntryIn[0]->S
      +                          TAT.Val == (0x80|0x04)))
  8936  002D82  C013  FFD9         	movff	_pBDTEntryEP0OutCurrent,fsr2l
  8937  002D86  C014  FFDA         	movff	_pBDTEntryEP0OutCurrent+1,fsr2h
  8938  002D8A  0E80               	movlw	128
  8939  002D8C  18DE               	xorwf	postinc2,w,c
  8940  002D8E  A4D8               	btfss	status,2,c
  8941  002D90  D015               	goto	i2l2909
  8942  002D92  C009  FFD9         	movff	_pBDTEntryIn,fsr2l
  8943  002D96  C00A  FFDA         	movff	_pBDTEntryIn+1,fsr2h
  8944  002D9A  0E84               	movlw	132
  8945  002D9C  18DE               	xorwf	postinc2,w,c
  8946  002D9E  A4D8               	btfss	status,2,c
  8947  002DA0  D00D               	goto	i2l2909
  8948                           
  8949                           ;usb_device.c: 2236: {
  8950                           ;usb_device.c: 2238: pBDTEntryEP0OutCurrent->STAT.Val = 0x00|(0x08 & 0x08)|0x04;
  8951  002DA2  C013  FFD9         	movff	_pBDTEntryEP0OutCurrent,fsr2l
  8952  002DA6  C014  FFDA         	movff	_pBDTEntryEP0OutCurrent+1,fsr2h
  8953  002DAA  0E0C               	movlw	12
  8954  002DAC  6EDF               	movwf	indf2,c
  8955                           
  8956                           ;usb_device.c: 2239: pBDTEntryEP0OutCurrent->STAT.Val |= 0x80;
  8957  002DAE  C013  FFD9         	movff	_pBDTEntryEP0OutCurrent,fsr2l
  8958  002DB2  C014  FFDA         	movff	_pBDTEntryEP0OutCurrent+1,fsr2h
  8959  002DB6  0E00               	movlw	0
  8960  002DB8  8EDB               	bsf	plusw2,7,c
  8961  002DBA  D000               	goto	i2l2909
  8962  002DBC                     i2l2909:
  8963                           
  8964                           ;usb_device.c: 2240: }
  8965                           ;usb_device.c: 2241: UEP0bits.EPSTALL = 0;
  8966  002DBC  906A               	bcf	3946,0,c	;volatile
  8967  002DBE                     i2l596:
  8968                           
  8969                           ;usb_device.c: 2242: }
  8970                           ;usb_device.c: 2244: (UIR &= 0xDF);
  8971  002DBE  9A65               	bcf	3941,5,c	;volatile
  8972  002DC0  0012               	return		;funcret
  8973  002DC2                     __end_of_USBStallHandler:
  8974                           	opt stack 0
  8975                           pclatu	equ	0xFFB
  8976                           pclath	equ	0xFFA
  8977                           tblptru	equ	0xFF8
  8978                           tblptrh	equ	0xFF7
  8979                           tblptrl	equ	0xFF6
  8980                           tablat	equ	0xFF5
  8981                           prodh	equ	0xFF4
  8982                           prodl	equ	0xFF3
  8983                           intcon	equ	0xFF2
  8984                           postinc0	equ	0xFEE
  8985                           fsr0h	equ	0xFEA
  8986                           fsr0l	equ	0xFE9
  8987                           wreg	equ	0xFE8
  8988                           fsr1h	equ	0xFE2
  8989                           fsr1l	equ	0xFE1
  8990                           indf2	equ	0xFDF
  8991                           postinc2	equ	0xFDE
  8992                           postdec2	equ	0xFDD
  8993                           plusw2	equ	0xFDB
  8994                           fsr2h	equ	0xFDA
  8995                           fsr2l	equ	0xFD9
  8996                           status	equ	0xFD8
  8997                           
  8998 ;; *************** function _USBIncrement1msInternalTimers *****************
  8999 ;; Defined at:
  9000 ;;		line 3042 in file "../../../../../../microchip/mla/v2015_08_10/framework/usb/src/usb_device.c"
  9001 ;; Parameters:    Size  Location     Type
  9002 ;;		None
  9003 ;; Auto vars:     Size  Location     Type
  9004 ;;		None
  9005 ;; Return value:  Size  Location     Type
  9006 ;;		None               void
  9007 ;; Registers used:
  9008 ;;		wreg, status,2, status,0
  9009 ;; Tracked objects:
  9010 ;;		On entry : 0/0
  9011 ;;		On exit  : 0/0
  9012 ;;		Unchanged: 0/0
  9013 ;; Data sizes:     COMRAM   BANK0   BANK1   BANK2   BANK3   BANK4   BANK5   BANK6   BANK7
  9014 ;;      Params:         0       0       0       0       0       0       0       0       0
  9015 ;;      Locals:         0       0       0       0       0       0       0       0       0
  9016 ;;      Temps:          0       0       0       0       0       0       0       0       0
  9017 ;;      Totals:         0       0       0       0       0       0       0       0       0
  9018 ;;Total ram usage:        0 bytes
  9019 ;; Hardware stack levels used:    1
  9020 ;; This function calls:
  9021 ;;		Nothing
  9022 ;; This function is called by:
  9023 ;;		_USBDeviceTasks
  9024 ;; This function uses a non-reentrant model
  9025 ;;
  9026                           
  9027                           	psect	text43
  9028  00310A                     __ptext43:
  9029                           	opt stack 0
  9030  00310A                     _USBIncrement1msInternalTimers:
  9031                           	opt stack 22
  9032                           
  9033                           ;usb_device.c: 3050: USB1msTickCount++;
  9034                           
  9035                           ;incstack = 0
  9036  00310A  0E01               	movlw	1
  9037  00310C  0100               	movlb	0	; () banked
  9038  00310E  27E2               	addwf	_USB1msTickCount& (0+255),f,b	;volatile
  9039  003110  0E00               	movlw	0
  9040  003112  23E3               	addwfc	(_USB1msTickCount+1)& (0+255),f,b	;volatile
  9041  003114  23E4               	addwfc	(_USB1msTickCount+2)& (0+255),f,b	;volatile
  9042  003116  23E5               	addwfc	(_USB1msTickCount+3)& (0+255),f,b	;volatile
  9043                           
  9044                           ; BSR set to: 0
  9045                           ;usb_device.c: 3051: if(USBBusIsSuspended == 0)
  9046  003118  5019               	movf	_USBBusIsSuspended,w,c	;volatile
  9047  00311A  A4D8               	btfss	status,2,c
  9048  00311C  0012               	return	
  9049                           
  9050                           ; BSR set to: 0
  9051                           ;usb_device.c: 3052: {
  9052                           ;usb_device.c: 3053: USBTicksSinceSuspendEnd++;
  9053  00311E  0100               	movlb	0	; () banked
  9054  003120  2BF4               	incf	_USBTicksSinceSuspendEnd& (0+255),f,b	;volatile
  9055                           
  9056                           ; BSR set to: 0
  9057                           ;usb_device.c: 3055: if(USBTicksSinceSuspendEnd == 0)
  9058  003122  0100               	movlb	0	; () banked
  9059  003124  51F4               	movf	_USBTicksSinceSuspendEnd& (0+255),w,b	;volatile
  9060  003126  A4D8               	btfss	status,2,c
  9061  003128  0012               	return	
  9062                           
  9063                           ; BSR set to: 0
  9064                           ;usb_device.c: 3056: {
  9065                           ;usb_device.c: 3057: USBTicksSinceSuspendEnd = 255;
  9066  00312A  0100               	movlb	0	; () banked
  9067  00312C  69F4               	setf	_USBTicksSinceSuspendEnd& (0+255),b	;volatile
  9068                           
  9069                           ; BSR set to: 0
  9070  00312E  0012               	return	
  9071                           
  9072                           ; BSR set to: 0
  9073                           
  9074                           ; BSR set to: 0
  9075  003130  0012               	return		;funcret
  9076  003132                     __end_of_USBIncrement1msInternalTimers:
  9077                           	opt stack 0
  9078                           pclatu	equ	0xFFB
  9079                           pclath	equ	0xFFA
  9080                           tblptru	equ	0xFF8
  9081                           tblptrh	equ	0xFF7
  9082                           tblptrl	equ	0xFF6
  9083                           tablat	equ	0xFF5
  9084                           prodh	equ	0xFF4
  9085                           prodl	equ	0xFF3
  9086                           intcon	equ	0xFF2
  9087                           postinc0	equ	0xFEE
  9088                           fsr0h	equ	0xFEA
  9089                           fsr0l	equ	0xFE9
  9090                           wreg	equ	0xFE8
  9091                           fsr1h	equ	0xFE2
  9092                           fsr1l	equ	0xFE1
  9093                           indf2	equ	0xFDF
  9094                           postinc2	equ	0xFDE
  9095                           postdec2	equ	0xFDD
  9096                           plusw2	equ	0xFDB
  9097                           fsr2h	equ	0xFDA
  9098                           fsr2l	equ	0xFD9
  9099                           status	equ	0xFD8
  9100                           
  9101 ;; *************** function _USBCtrlEPService *****************
  9102 ;; Defined at:
  9103 ;;		line 2390 in file "../../../../../../microchip/mla/v2015_08_10/framework/usb/src/usb_device.c"
  9104 ;; Parameters:    Size  Location     Type
  9105 ;;		None
  9106 ;; Auto vars:     Size  Location     Type
  9107 ;;		None
  9108 ;; Return value:  Size  Location     Type
  9109 ;;		None               void
  9110 ;; Registers used:
  9111 ;;		wreg, fsr1l, fsr1h, fsr2l, fsr2h, status,2, status,0, tblptrl, tblptrh, tblptru, prodl, prodh, cstack
  9112 ;; Tracked objects:
  9113 ;;		On entry : 0/0
  9114 ;;		On exit  : 0/0
  9115 ;;		Unchanged: 0/0
  9116 ;; Data sizes:     COMRAM   BANK0   BANK1   BANK2   BANK3   BANK4   BANK5   BANK6   BANK7
  9117 ;;      Params:         0       0       0       0       0       0       0       0       0
  9118 ;;      Locals:         0       0       0       0       0       0       0       0       0
  9119 ;;      Temps:          1       0       0       0       0       0       0       0       0
  9120 ;;      Totals:         1       0       0       0       0       0       0       0       0
  9121 ;;Total ram usage:        1 bytes
  9122 ;; Hardware stack levels used:    1
  9123 ;; Hardware stack levels required when called:    7
  9124 ;; This function calls:
  9125 ;;		_USBCtrlTrfInHandler
  9126 ;;		_USBCtrlTrfOutHandler
  9127 ;;		_USBCtrlTrfSetupHandler
  9128 ;;		_memcpy
  9129 ;; This function is called by:
  9130 ;;		_USBDeviceTasks
  9131 ;; This function uses a non-reentrant model
  9132 ;;
  9133                           
  9134                           	psect	text44
  9135  0027E6                     __ptext44:
  9136                           	opt stack 0
  9137  0027E6                     _USBCtrlEPService:
  9138                           	opt stack 15
  9139                           
  9140                           ;usb_device.c: 2396: USBStatusStageTimeoutCounter = (uint8_t)45;
  9141                           
  9142                           ; BSR set to: 0
  9143                           ;incstack = 0
  9144  0027E6  0E2D               	movlw	45
  9145  0027E8  6E1E               	movwf	_USBStatusStageTimeoutCounter,c	;volatile
  9146                           
  9147                           ;usb_device.c: 2400: if((USTATcopy.Val & ~0x02) == 0x00)
  9148  0027EA  C02A  F045         	movff	_USTATcopy,??_USBCtrlEPService	;volatile
  9149  0027EE  0EFD               	movlw	253
  9150  0027F0  1645               	andwf	??_USBCtrlEPService,f,c
  9151  0027F2  A4D8               	btfss	status,2,c
  9152  0027F4  D038               	goto	i2l4863
  9153                           
  9154                           ;usb_device.c: 2401: {
  9155                           ;usb_device.c: 2404: pBDTEntryEP0OutCurrent = (volatile BDT_ENTRY*)&BDT[(USTATcopy.Val &
      +                           0x7E)>>1];
  9156  0027F6  C02A  F045         	movff	_USTATcopy,??_USBCtrlEPService	;volatile
  9157  0027FA  90D8               	bcf	status,0,c
  9158  0027FC  3245               	rrcf	??_USBCtrlEPService,f,c
  9159  0027FE  0E3F               	movlw	63
  9160  002800  1645               	andwf	??_USBCtrlEPService,f,c
  9161  002802  5045               	movf	??_USBCtrlEPService,w,c
  9162  002804  0D04               	mullw	4
  9163  002806  0E00               	movlw	0
  9164  002808  24F3               	addwf	prodl,w,c
  9165  00280A  6E13               	movwf	_pBDTEntryEP0OutCurrent,c
  9166  00280C  0E04               	movlw	4
  9167  00280E  20F4               	addwfc	prodh,w,c
  9168  002810  6E14               	movwf	_pBDTEntryEP0OutCurrent+1,c
  9169                           
  9170                           ;usb_device.c: 2412: pBDTEntryEP0OutNext = pBDTEntryEP0OutCurrent;
  9171  002812  C013  F015         	movff	_pBDTEntryEP0OutCurrent,_pBDTEntryEP0OutNext
  9172  002816  C014  F016         	movff	_pBDTEntryEP0OutCurrent+1,_pBDTEntryEP0OutNext+1
  9173                           
  9174                           ;usb_device.c: 2414: ((uint8_t_VAL*)&pBDTEntryEP0OutNext)->Val ^= 0x0004;
  9175  00281A  0E04               	movlw	4
  9176  00281C  1A15               	xorwf	_pBDTEntryEP0OutNext,f,c
  9177                           
  9178                           ;usb_device.c: 2417: if(pBDTEntryEP0OutCurrent->STAT.PID == 0xD)
  9179  00281E  C013  FFD9         	movff	_pBDTEntryEP0OutCurrent,fsr2l
  9180  002822  C014  FFDA         	movff	_pBDTEntryEP0OutCurrent+1,fsr2h
  9181  002826  30DF               	rrcf	indf2,w,c
  9182  002828  32E8               	rrcf	wreg,f,c
  9183  00282A  0B0F               	andlw	15
  9184  00282C  0A0D               	xorlw	13
  9185  00282E  A4D8               	btfss	status,2,c
  9186  002830  D017               	goto	i2l4861
  9187                           
  9188                           ;usb_device.c: 2418: {
  9189                           ;usb_device.c: 2423: memcpy((uint8_t*)&SetupPkt, (uint8_t*)((void *)(pBDTEntryEP0OutCurr
      +                          ent->ADR)), 8);
  9190  002832  0E20               	movlw	32
  9191  002834  6E2B               	movwf	memcpy@d1,c
  9192  002836  0E04               	movlw	4
  9193  002838  6E2C               	movwf	memcpy@d1+1,c
  9194  00283A  EE20 F002          	lfsr	2,2
  9195  00283E  5013               	movf	_pBDTEntryEP0OutCurrent,w,c
  9196  002840  26D9               	addwf	fsr2l,f,c
  9197  002842  5014               	movf	_pBDTEntryEP0OutCurrent+1,w,c
  9198  002844  22DA               	addwfc	fsr2h,f,c
  9199  002846  CFDE F02D          	movff	postinc2,memcpy@s1
  9200  00284A  CFDD F02E          	movff	postdec2,memcpy@s1+1
  9201  00284E  0E00               	movlw	0
  9202  002850  6E30               	movwf	memcpy@n+1,c
  9203  002852  0E08               	movlw	8
  9204  002854  6E2F               	movwf	memcpy@n,c
  9205  002856  ECE1  F016         	call	_memcpy	;wreg free
  9206                           
  9207                           ;usb_device.c: 2426: USBCtrlTrfSetupHandler();
  9208  00285A  EC3C  F014         	call	_USBCtrlTrfSetupHandler	;wreg free
  9209                           
  9210                           ;usb_device.c: 2427: }
  9211  00285E  0012               	return	
  9212  002860                     i2l4861:
  9213                           
  9214                           ;usb_device.c: 2428: else
  9215                           ;usb_device.c: 2429: {
  9216                           ;usb_device.c: 2431: USBCtrlTrfOutHandler();
  9217  002860  ECED  F015         	call	_USBCtrlTrfOutHandler	;wreg free
  9218                           
  9219                           ;usb_device.c: 2432: }
  9220                           ;usb_device.c: 2433: }
  9221  002864  0012               	return	
  9222  002866                     i2l4863:
  9223                           
  9224                           ;usb_device.c: 2434: else if((USTATcopy.Val & ~0x02) == 0x04)
  9225  002866  502A               	movf	_USTATcopy,w,c	;volatile
  9226  002868  0BFD               	andlw	253
  9227  00286A  0A04               	xorlw	4
  9228  00286C  A4D8               	btfss	status,2,c
  9229  00286E  0012               	return	
  9230                           
  9231                           ;usb_device.c: 2435: {
  9232                           ;usb_device.c: 2438: USBCtrlTrfInHandler();
  9233  002870  ECF6  F011         	call	_USBCtrlTrfInHandler	;wreg free
  9234  002874  0012               	return	
  9235  002876  0012               	return		;funcret
  9236  002878                     __end_of_USBCtrlEPService:
  9237                           	opt stack 0
  9238                           pclatu	equ	0xFFB
  9239                           pclath	equ	0xFFA
  9240                           tblptru	equ	0xFF8
  9241                           tblptrh	equ	0xFF7
  9242                           tblptrl	equ	0xFF6
  9243                           tablat	equ	0xFF5
  9244                           prodh	equ	0xFF4
  9245                           prodl	equ	0xFF3
  9246                           intcon	equ	0xFF2
  9247                           postinc0	equ	0xFEE
  9248                           fsr0h	equ	0xFEA
  9249                           fsr0l	equ	0xFE9
  9250                           wreg	equ	0xFE8
  9251                           fsr1h	equ	0xFE2
  9252                           fsr1l	equ	0xFE1
  9253                           indf2	equ	0xFDF
  9254                           postinc2	equ	0xFDE
  9255                           postdec2	equ	0xFDD
  9256                           plusw2	equ	0xFDB
  9257                           fsr2h	equ	0xFDA
  9258                           fsr2l	equ	0xFD9
  9259                           status	equ	0xFD8
  9260                           
  9261 ;; *************** function _memcpy *****************
  9262 ;; Defined at:
  9263 ;;		line 11 in file "C:\Program Files (x86)\Microchip\xc8\v1.34\sources\common\memcpy.c"
  9264 ;; Parameters:    Size  Location     Type
  9265 ;;  d1              2    0[COMRAM] PTR void 
  9266 ;;		 -> SetupPkt(8), 
  9267 ;;  s1              2    2[COMRAM] PTR const void 
  9268 ;;		 -> RAM(2047), CtrlTrfData(8), SetupPkt(8), ToSendDataBuffer(64), 
  9269 ;;		 -> ReceivedDataBuffer(64), 
  9270 ;;  n               2    4[COMRAM] unsigned int 
  9271 ;; Auto vars:     Size  Location     Type
  9272 ;;  s               2    8[COMRAM] PTR const unsigned char 
  9273 ;;		 -> RAM(2047), CtrlTrfData(8), SetupPkt(8), ToSendDataBuffer(64), 
  9274 ;;		 -> ReceivedDataBuffer(64), 
  9275 ;;  d               2    6[COMRAM] PTR unsigned char 
  9276 ;;		 -> SetupPkt(8), 
  9277 ;; Return value:  Size  Location     Type
  9278 ;;                  2    0[COMRAM] PTR void 
  9279 ;; Registers used:
  9280 ;;		wreg, fsr1l, fsr1h, fsr2l, fsr2h, status,2, status,0
  9281 ;; Tracked objects:
  9282 ;;		On entry : 0/0
  9283 ;;		On exit  : 0/0
  9284 ;;		Unchanged: 0/0
  9285 ;; Data sizes:     COMRAM   BANK0   BANK1   BANK2   BANK3   BANK4   BANK5   BANK6   BANK7
  9286 ;;      Params:         6       0       0       0       0       0       0       0       0
  9287 ;;      Locals:         4       0       0       0       0       0       0       0       0
  9288 ;;      Temps:          0       0       0       0       0       0       0       0       0
  9289 ;;      Totals:        10       0       0       0       0       0       0       0       0
  9290 ;;Total ram usage:       10 bytes
  9291 ;; Hardware stack levels used:    1
  9292 ;; This function calls:
  9293 ;;		Nothing
  9294 ;; This function is called by:
  9295 ;;		_USBCtrlEPService
  9296 ;; This function uses a non-reentrant model
  9297 ;;
  9298                           
  9299                           	psect	text45
  9300  002DC2                     __ptext45:
  9301                           	opt stack 0
  9302  002DC2                     _memcpy:
  9303                           	opt stack 21
  9304                           
  9305                           ;incstack = 0
  9306  002DC2  C02D  F033         	movff	memcpy@s1,memcpy@s
  9307  002DC6  C02E  F034         	movff	memcpy@s1+1,memcpy@s+1
  9308  002DCA  C02B  F031         	movff	memcpy@d1,memcpy@d
  9309  002DCE  C02C  F032         	movff	memcpy@d1+1,memcpy@d+1
  9310  002DD2  D00F               	goto	i2l4527
  9311  002DD4                     i2l4521:
  9312  002DD4  C033  FFD9         	movff	memcpy@s,fsr2l
  9313  002DD8  C034  FFDA         	movff	memcpy@s+1,fsr2h
  9314  002DDC  C031  FFE1         	movff	memcpy@d,fsr1l
  9315  002DE0  C032  FFE2         	movff	memcpy@d+1,fsr1h
  9316  002DE4  CFDF FFE7          	movff	indf2,indf1
  9317  002DE8  4A33               	infsnz	memcpy@s,f,c
  9318  002DEA  2A34               	incf	memcpy@s+1,f,c
  9319  002DEC  4A31               	infsnz	memcpy@d,f,c
  9320  002DEE  2A32               	incf	memcpy@d+1,f,c
  9321  002DF0  D000               	goto	i2l4527
  9322  002DF2                     i2l4527:
  9323  002DF2  062F               	decf	memcpy@n,f,c
  9324  002DF4  A0D8               	btfss	status,0,c
  9325  002DF6  0630               	decf	memcpy@n+1,f,c
  9326  002DF8  282F               	incf	memcpy@n,w,c
  9327  002DFA  E1EC               	bnz	i2l4521
  9328  002DFC  2830               	incf	memcpy@n+1,w,c
  9329  002DFE  A4D8               	btfss	status,2,c
  9330  002E00  D7E9               	goto	i2l4521
  9331                           
  9332                           ;	Return value of _memcpy is never used
  9333  002E02  0012               	return		;funcret
  9334  002E04                     __end_of_memcpy:
  9335                           	opt stack 0
  9336                           pclatu	equ	0xFFB
  9337                           pclath	equ	0xFFA
  9338                           tblptru	equ	0xFF8
  9339                           tblptrh	equ	0xFF7
  9340                           tblptrl	equ	0xFF6
  9341                           tablat	equ	0xFF5
  9342                           prodh	equ	0xFF4
  9343                           prodl	equ	0xFF3
  9344                           intcon	equ	0xFF2
  9345                           postinc0	equ	0xFEE
  9346                           fsr0h	equ	0xFEA
  9347                           fsr0l	equ	0xFE9
  9348                           wreg	equ	0xFE8
  9349                           indf1	equ	0xFE7
  9350                           fsr1h	equ	0xFE2
  9351                           fsr1l	equ	0xFE1
  9352                           indf2	equ	0xFDF
  9353                           postinc2	equ	0xFDE
  9354                           postdec2	equ	0xFDD
  9355                           plusw2	equ	0xFDB
  9356                           fsr2h	equ	0xFDA
  9357                           fsr2l	equ	0xFD9
  9358                           status	equ	0xFD8
  9359                           
  9360 ;; *************** function _USBCtrlTrfSetupHandler *****************
  9361 ;; Defined at:
  9362 ;;		line 2483 in file "../../../../../../microchip/mla/v2015_08_10/framework/usb/src/usb_device.c"
  9363 ;; Parameters:    Size  Location     Type
  9364 ;;		None
  9365 ;; Auto vars:     Size  Location     Type
  9366 ;;		None
  9367 ;; Return value:  Size  Location     Type
  9368 ;;		None               void
  9369 ;; Registers used:
  9370 ;;		wreg, fsr1l, fsr1h, fsr2l, fsr2h, status,2, status,0, tblptrl, tblptrh, tblptru, prodl, prodh, cstack
  9371 ;; Tracked objects:
  9372 ;;		On entry : 0/0
  9373 ;;		On exit  : 0/0
  9374 ;;		Unchanged: 0/0
  9375 ;; Data sizes:     COMRAM   BANK0   BANK1   BANK2   BANK3   BANK4   BANK5   BANK6   BANK7
  9376 ;;      Params:         0       0       0       0       0       0       0       0       0
  9377 ;;      Locals:         0       0       0       0       0       0       0       0       0
  9378 ;;      Temps:          0       0       0       0       0       0       0       0       0
  9379 ;;      Totals:         0       0       0       0       0       0       0       0       0
  9380 ;;Total ram usage:        0 bytes
  9381 ;; Hardware stack levels used:    1
  9382 ;; Hardware stack levels required when called:    6
  9383 ;; This function calls:
  9384 ;;		_USBCheckStdRequest
  9385 ;;		_USBCtrlEPServiceComplete
  9386 ;;		_USER_USB_CALLBACK_EVENT_HANDLER
  9387 ;; This function is called by:
  9388 ;;		_USBCtrlEPService
  9389 ;; This function uses a non-reentrant model
  9390 ;;
  9391                           
  9392                           	psect	text46
  9393  002878                     __ptext46:
  9394                           	opt stack 0
  9395  002878                     _USBCtrlTrfSetupHandler:
  9396                           	opt stack 15
  9397                           
  9398                           ;usb_device.c: 2488: shortPacketStatus = 0;
  9399                           
  9400                           ;incstack = 0
  9401  002878  0E00               	movlw	0
  9402  00287A  6E21               	movwf	_shortPacketStatus,c	;volatile
  9403                           
  9404                           ;usb_device.c: 2489: USBDeferStatusStagePacket = 0;
  9405  00287C  0E00               	movlw	0
  9406  00287E  6E1A               	movwf	_USBDeferStatusStagePacket,c	;volatile
  9407                           
  9408                           ;usb_device.c: 2490: USBDeferINDataStagePackets = 0;
  9409  002880  0E00               	movlw	0
  9410  002882  0100               	movlb	0	; () banked
  9411  002884  6FF2               	movwf	_USBDeferINDataStagePackets& (0+255),b	;volatile
  9412                           
  9413                           ;usb_device.c: 2491: USBDeferOUTDataStagePackets = 0;
  9414  002886  0E00               	movlw	0
  9415  002888  0100               	movlb	0	; () banked
  9416  00288A  6FF3               	movwf	_USBDeferOUTDataStagePackets& (0+255),b	;volatile
  9417                           
  9418                           ;usb_device.c: 2492: BothEP0OutUOWNsSet = 0;
  9419  00288C  0E00               	movlw	0
  9420  00288E  6E17               	movwf	_BothEP0OutUOWNsSet,c	;volatile
  9421                           
  9422                           ;usb_device.c: 2493: controlTransferState = 0;
  9423  002890  0E00               	movlw	0
  9424  002892  6E1F               	movwf	_controlTransferState,c	;volatile
  9425                           
  9426                           ; BSR set to: 0
  9427                           ;usb_device.c: 2502: pBDTEntryIn[0]->STAT.Val &= ~(0x80);
  9428  002894  C009  FFD9         	movff	_pBDTEntryIn,fsr2l
  9429  002898  C00A  FFDA         	movff	_pBDTEntryIn+1,fsr2h
  9430  00289C  0E7F               	movlw	127
  9431  00289E  16DF               	andwf	indf2,f,c
  9432                           
  9433                           ; BSR set to: 0
  9434                           ;usb_device.c: 2503: ((uint8_t_VAL*)&pBDTEntryIn[0])->Val ^= 0x0004;
  9435  0028A0  0E04               	movlw	4
  9436  0028A2  1A09               	xorwf	_pBDTEntryIn,f,c
  9437                           
  9438                           ; BSR set to: 0
  9439                           ;usb_device.c: 2504: pBDTEntryIn[0]->STAT.Val &= ~(0x80);
  9440  0028A4  C009  FFD9         	movff	_pBDTEntryIn,fsr2l
  9441  0028A8  C00A  FFDA         	movff	_pBDTEntryIn+1,fsr2h
  9442  0028AC  0E7F               	movlw	127
  9443  0028AE  16DF               	andwf	indf2,f,c
  9444                           
  9445                           ; BSR set to: 0
  9446                           ;usb_device.c: 2505: ((uint8_t_VAL*)&pBDTEntryIn[0])->Val ^= 0x0004;
  9447  0028B0  0E04               	movlw	4
  9448  0028B2  1A09               	xorwf	_pBDTEntryIn,f,c
  9449                           
  9450                           ; BSR set to: 0
  9451                           ;usb_device.c: 2506: pBDTEntryEP0OutNext->STAT.Val &= ~(0x80);
  9452  0028B4  C015  FFD9         	movff	_pBDTEntryEP0OutNext,fsr2l
  9453  0028B8  C016  FFDA         	movff	_pBDTEntryEP0OutNext+1,fsr2h
  9454  0028BC  0E7F               	movlw	127
  9455  0028BE  16DF               	andwf	indf2,f,c
  9456                           
  9457                           ; BSR set to: 0
  9458                           ;usb_device.c: 2508: inPipes[0].info.Val = 0;
  9459  0028C0  0E00               	movlw	0
  9460  0028C2  6E25               	movwf	_inPipes+3,c	;volatile
  9461                           
  9462                           ; BSR set to: 0
  9463                           ;usb_device.c: 2509: inPipes[0].wCount.Val = 0;
  9464  0028C4  0E00               	movlw	0
  9465  0028C6  6E27               	movwf	_inPipes+5,c	;volatile
  9466  0028C8  0E00               	movlw	0
  9467  0028CA  6E26               	movwf	_inPipes+4,c	;volatile
  9468                           
  9469                           ; BSR set to: 0
  9470                           ;usb_device.c: 2510: outPipes[0].info.Val = 0;
  9471  0028CC  0E00               	movlw	0
  9472  0028CE  6E04               	movwf	_outPipes+3,c	;volatile
  9473                           
  9474                           ; BSR set to: 0
  9475                           ;usb_device.c: 2511: outPipes[0].wCount.Val = 0;
  9476  0028D0  0E00               	movlw	0
  9477  0028D2  6E06               	movwf	_outPipes+5,c	;volatile
  9478  0028D4  0E00               	movlw	0
  9479  0028D6  6E05               	movwf	_outPipes+4,c	;volatile
  9480                           
  9481                           ; BSR set to: 0
  9482                           ;usb_device.c: 2517: USBCheckStdRequest();
  9483  0028D8  EC0F  F00F         	call	_USBCheckStdRequest	;wreg free
  9484                           
  9485                           ;usb_device.c: 2518: USER_USB_CALLBACK_EVENT_HANDLER(EVENT_EP0_REQUEST,0,0);
  9486  0028DC  0E00               	movlw	0
  9487  0028DE  6E38               	movwf	USER_USB_CALLBACK_EVENT_HANDLER@event+1,c
  9488  0028E0  0E03               	movlw	3
  9489  0028E2  6E37               	movwf	USER_USB_CALLBACK_EVENT_HANDLER@event,c
  9490  0028E4  0E00               	movlw	0
  9491  0028E6  6E39               	movwf	USER_USB_CALLBACK_EVENT_HANDLER@pdata,c
  9492  0028E8  0E00               	movlw	0
  9493  0028EA  6E3A               	movwf	USER_USB_CALLBACK_EVENT_HANDLER@pdata+1,c
  9494  0028EC  0E00               	movlw	0
  9495  0028EE  6E3C               	movwf	USER_USB_CALLBACK_EVENT_HANDLER@size+1,c
  9496  0028F0  0E00               	movlw	0
  9497  0028F2  6E3B               	movwf	USER_USB_CALLBACK_EVENT_HANDLER@size,c
  9498  0028F4  EC03  F015         	call	_USER_USB_CALLBACK_EVENT_HANDLER	;wreg free
  9499                           
  9500                           ;usb_device.c: 2531: USBCtrlEPServiceComplete();
  9501  0028F8  ECA1  F00D         	call	_USBCtrlEPServiceComplete	;wreg free
  9502  0028FC  0012               	return		;funcret
  9503  0028FE                     __end_of_USBCtrlTrfSetupHandler:
  9504                           	opt stack 0
  9505                           pclatu	equ	0xFFB
  9506                           pclath	equ	0xFFA
  9507                           tblptru	equ	0xFF8
  9508                           tblptrh	equ	0xFF7
  9509                           tblptrl	equ	0xFF6
  9510                           tablat	equ	0xFF5
  9511                           prodh	equ	0xFF4
  9512                           prodl	equ	0xFF3
  9513                           intcon	equ	0xFF2
  9514                           postinc0	equ	0xFEE
  9515                           fsr0h	equ	0xFEA
  9516                           fsr0l	equ	0xFE9
  9517                           wreg	equ	0xFE8
  9518                           indf1	equ	0xFE7
  9519                           fsr1h	equ	0xFE2
  9520                           fsr1l	equ	0xFE1
  9521                           indf2	equ	0xFDF
  9522                           postinc2	equ	0xFDE
  9523                           postdec2	equ	0xFDD
  9524                           plusw2	equ	0xFDB
  9525                           fsr2h	equ	0xFDA
  9526                           fsr2l	equ	0xFD9
  9527                           status	equ	0xFD8
  9528                           
  9529 ;; *************** function _USBCtrlEPServiceComplete *****************
  9530 ;; Defined at:
  9531 ;;		line 1634 in file "../../../../../../microchip/mla/v2015_08_10/framework/usb/src/usb_device.c"
  9532 ;; Parameters:    Size  Location     Type
  9533 ;;		None
  9534 ;; Auto vars:     Size  Location     Type
  9535 ;;		None
  9536 ;; Return value:  Size  Location     Type
  9537 ;;		None               void
  9538 ;; Registers used:
  9539 ;;		wreg, fsr1l, fsr1h, fsr2l, fsr2h, status,2, status,0, tblptrl, tblptrh, tblptru, cstack
  9540 ;; Tracked objects:
  9541 ;;		On entry : 0/0
  9542 ;;		On exit  : 0/0
  9543 ;;		Unchanged: 0/0
  9544 ;; Data sizes:     COMRAM   BANK0   BANK1   BANK2   BANK3   BANK4   BANK5   BANK6   BANK7
  9545 ;;      Params:         0       0       0       0       0       0       0       0       0
  9546 ;;      Locals:         0       0       0       0       0       0       0       0       0
  9547 ;;      Temps:          0       0       0       0       0       0       0       0       0
  9548 ;;      Totals:         0       0       0       0       0       0       0       0       0
  9549 ;;Total ram usage:        0 bytes
  9550 ;; Hardware stack levels used:    1
  9551 ;; Hardware stack levels required when called:    2
  9552 ;; This function calls:
  9553 ;;		_USBCtrlEPAllowDataStage
  9554 ;;		_USBCtrlEPAllowStatusStage
  9555 ;; This function is called by:
  9556 ;;		_USBCtrlTrfSetupHandler
  9557 ;; This function uses a non-reentrant model
  9558 ;;
  9559                           
  9560                           	psect	text47
  9561  001B42                     __ptext47:
  9562                           	opt stack 0
  9563  001B42                     _USBCtrlEPServiceComplete:
  9564                           	opt stack 18
  9565                           
  9566                           ;usb_device.c: 1640: UCONbits.PKTDIS = 0;
  9567                           
  9568                           ;incstack = 0
  9569  001B42  9860               	bcf	3936,4,c	;volatile
  9570                           
  9571                           ;usb_device.c: 1646: if(inPipes[0].info.bits.busy == 0)
  9572  001B44  BE25               	btfsc	_inPipes+3,7,c	;volatile
  9573  001B46  D03B               	goto	i2l520
  9574                           
  9575                           ;usb_device.c: 1647: {
  9576                           ;usb_device.c: 1648: if(outPipes[0].info.bits.busy == 1)
  9577  001B48  AE04               	btfss	_outPipes+3,7,c	;volatile
  9578  001B4A  D00E               	goto	i2l4235
  9579                           
  9580                           ;usb_device.c: 1649: {
  9581                           ;usb_device.c: 1650: controlTransferState = 2;
  9582  001B4C  0E02               	movlw	2
  9583  001B4E  6E1F               	movwf	_controlTransferState,c	;volatile
  9584                           
  9585                           ;usb_device.c: 1661: if(USBDeferOUTDataStagePackets == 0)
  9586  001B50  0100               	movlb	0	; () banked
  9587  001B52  51F3               	movf	_USBDeferOUTDataStagePackets& (0+255),w,b	;volatile
  9588  001B54  A4D8               	btfss	status,2,c
  9589  001B56  D003               	goto	i2l4231
  9590                           
  9591                           ; BSR set to: 0
  9592                           ;usb_device.c: 1662: {
  9593                           ;usb_device.c: 1663: USBCtrlEPAllowDataStage();
  9594  001B58  EC58  F013         	call	_USBCtrlEPAllowDataStage	;wreg free
  9595  001B5C  D000               	goto	i2l4231
  9596  001B5E                     i2l4231:
  9597                           
  9598                           ;usb_device.c: 1664: }
  9599                           ;usb_device.c: 1668: USBStatusStageEnabledFlag2 = 0;
  9600  001B5E  0E00               	movlw	0
  9601  001B60  6E1D               	movwf	_USBStatusStageEnabledFlag2,c	;volatile
  9602                           
  9603                           ;usb_device.c: 1669: USBStatusStageEnabledFlag1 = 0;
  9604  001B62  0E00               	movlw	0
  9605  001B64  6E1C               	movwf	_USBStatusStageEnabledFlag1,c	;volatile
  9606                           
  9607                           ;usb_device.c: 1670: }
  9608  001B66  0012               	return	
  9609  001B68                     i2l4235:
  9610                           
  9611                           ;usb_device.c: 1671: else
  9612                           ;usb_device.c: 1672: {
  9613                           ;usb_device.c: 1677: pBDTEntryEP0OutNext->CNT = 8;
  9614  001B68  EE20 F001          	lfsr	2,1
  9615  001B6C  5015               	movf	_pBDTEntryEP0OutNext,w,c
  9616  001B6E  26D9               	addwf	fsr2l,f,c
  9617  001B70  5016               	movf	_pBDTEntryEP0OutNext+1,w,c
  9618  001B72  22DA               	addwfc	fsr2h,f,c
  9619  001B74  0E08               	movlw	8
  9620  001B76  6EDF               	movwf	indf2,c
  9621                           
  9622                           ;usb_device.c: 1678: pBDTEntryEP0OutNext->ADR = ((uint16_t)(&SetupPkt));
  9623  001B78  EE20 F002          	lfsr	2,2
  9624  001B7C  5015               	movf	_pBDTEntryEP0OutNext,w,c
  9625  001B7E  26D9               	addwf	fsr2l,f,c
  9626  001B80  5016               	movf	_pBDTEntryEP0OutNext+1,w,c
  9627  001B82  22DA               	addwfc	fsr2h,f,c
  9628  001B84  0E20               	movlw	32
  9629  001B86  6EDE               	movwf	postinc2,c
  9630  001B88  0E04               	movlw	4
  9631  001B8A  6EDD               	movwf	postdec2,c
  9632                           
  9633                           ;usb_device.c: 1679: pBDTEntryEP0OutNext->STAT.Val = 0x00|(0x08 & 0x08)|0x04;
  9634  001B8C  C015  FFD9         	movff	_pBDTEntryEP0OutNext,fsr2l
  9635  001B90  C016  FFDA         	movff	_pBDTEntryEP0OutNext+1,fsr2h
  9636  001B94  0E0C               	movlw	12
  9637  001B96  6EDF               	movwf	indf2,c
  9638                           
  9639                           ;usb_device.c: 1680: pBDTEntryEP0OutNext->STAT.Val |= 0x80;
  9640  001B98  C015  FFD9         	movff	_pBDTEntryEP0OutNext,fsr2l
  9641  001B9C  C016  FFDA         	movff	_pBDTEntryEP0OutNext+1,fsr2h
  9642  001BA0  0E00               	movlw	0
  9643  001BA2  8EDB               	bsf	plusw2,7,c
  9644                           
  9645                           ;usb_device.c: 1681: pBDTEntryIn[0]->STAT.Val = 0x04;
  9646  001BA4  C009  FFD9         	movff	_pBDTEntryIn,fsr2l
  9647  001BA8  C00A  FFDA         	movff	_pBDTEntryIn+1,fsr2h
  9648  001BAC  0E04               	movlw	4
  9649  001BAE  6EDF               	movwf	indf2,c
  9650                           
  9651                           ;usb_device.c: 1682: pBDTEntryIn[0]->STAT.Val |= 0x80;
  9652  001BB0  C009  FFD9         	movff	_pBDTEntryIn,fsr2l
  9653  001BB4  C00A  FFDA         	movff	_pBDTEntryIn+1,fsr2h
  9654  001BB8  0E00               	movlw	0
  9655  001BBA  8EDB               	bsf	plusw2,7,c
  9656                           
  9657                           ;usb_device.c: 1683: }
  9658                           ;usb_device.c: 1684: }
  9659  001BBC  0012               	return	
  9660  001BBE                     i2l520:
  9661                           
  9662                           ;usb_device.c: 1685: else
  9663                           ;usb_device.c: 1686: {
  9664                           ;usb_device.c: 1687: if(SetupPkt.DataDir == (0x80>>7))
  9665  001BBE  0104               	movlb	4	; () banked
  9666  001BC0  AF20               	btfss	32,7,b	;volatile
  9667  001BC2  D013               	goto	i2l4255
  9668                           
  9669                           ; BSR set to: 4
  9670                           ;usb_device.c: 1688: {
  9671                           ;usb_device.c: 1689: controlTransferState = 1;
  9672  001BC4  0E01               	movlw	1
  9673  001BC6  6E1F               	movwf	_controlTransferState,c	;volatile
  9674                           
  9675                           ;usb_device.c: 1703: if(USBDeferINDataStagePackets == 0)
  9676  001BC8  0100               	movlb	0	; () banked
  9677  001BCA  51F2               	movf	_USBDeferINDataStagePackets& (0+255),w,b	;volatile
  9678  001BCC  A4D8               	btfss	status,2,c
  9679  001BCE  D003               	goto	i2l4247
  9680                           
  9681                           ; BSR set to: 0
  9682                           ;usb_device.c: 1704: {
  9683                           ;usb_device.c: 1705: USBCtrlEPAllowDataStage();
  9684  001BD0  EC58  F013         	call	_USBCtrlEPAllowDataStage	;wreg free
  9685  001BD4  D000               	goto	i2l4247
  9686  001BD6                     i2l4247:
  9687                           
  9688                           ;usb_device.c: 1706: }
  9689                           ;usb_device.c: 1728: USBStatusStageEnabledFlag2 = 0;
  9690  001BD6  0E00               	movlw	0
  9691  001BD8  6E1D               	movwf	_USBStatusStageEnabledFlag2,c	;volatile
  9692                           
  9693                           ;usb_device.c: 1729: USBStatusStageEnabledFlag1 = 0;
  9694  001BDA  0E00               	movlw	0
  9695  001BDC  6E1C               	movwf	_USBStatusStageEnabledFlag1,c	;volatile
  9696                           
  9697                           ;usb_device.c: 1730: if(USBDeferStatusStagePacket == 0)
  9698  001BDE  501A               	movf	_USBDeferStatusStagePacket,w,c	;volatile
  9699  001BE0  A4D8               	btfss	status,2,c
  9700  001BE2  0012               	return	
  9701                           
  9702                           ;usb_device.c: 1731: {
  9703                           ;usb_device.c: 1732: USBCtrlEPAllowStatusStage();
  9704  001BE4  EC34  F011         	call	_USBCtrlEPAllowStatusStage	;wreg free
  9705                           
  9706                           ;usb_device.c: 1733: }
  9707                           ;usb_device.c: 1734: }
  9708  001BE8  0012               	return	
  9709  001BEA                     i2l4255:
  9710                           
  9711                           ;usb_device.c: 1735: else
  9712                           ;usb_device.c: 1736: {
  9713                           ;usb_device.c: 1747: controlTransferState = 2;
  9714  001BEA  0E02               	movlw	2
  9715  001BEC  6E1F               	movwf	_controlTransferState,c	;volatile
  9716                           
  9717                           ;usb_device.c: 1750: pBDTEntryEP0OutNext->CNT = 8;
  9718  001BEE  EE20 F001          	lfsr	2,1
  9719  001BF2  5015               	movf	_pBDTEntryEP0OutNext,w,c
  9720  001BF4  26D9               	addwf	fsr2l,f,c
  9721  001BF6  5016               	movf	_pBDTEntryEP0OutNext+1,w,c
  9722  001BF8  22DA               	addwfc	fsr2h,f,c
  9723  001BFA  0E08               	movlw	8
  9724  001BFC  6EDF               	movwf	indf2,c
  9725                           
  9726                           ;usb_device.c: 1751: pBDTEntryEP0OutNext->ADR = ((uint16_t)(&SetupPkt));
  9727  001BFE  EE20 F002          	lfsr	2,2
  9728  001C02  5015               	movf	_pBDTEntryEP0OutNext,w,c
  9729  001C04  26D9               	addwf	fsr2l,f,c
  9730  001C06  5016               	movf	_pBDTEntryEP0OutNext+1,w,c
  9731  001C08  22DA               	addwfc	fsr2h,f,c
  9732  001C0A  0E20               	movlw	32
  9733  001C0C  6EDE               	movwf	postinc2,c
  9734  001C0E  0E04               	movlw	4
  9735  001C10  6EDD               	movwf	postdec2,c
  9736                           
  9737                           ;usb_device.c: 1752: pBDTEntryEP0OutNext->STAT.Val = 0x04;
  9738  001C12  C015  FFD9         	movff	_pBDTEntryEP0OutNext,fsr2l
  9739  001C16  C016  FFDA         	movff	_pBDTEntryEP0OutNext+1,fsr2h
  9740  001C1A  0E04               	movlw	4
  9741  001C1C  6EDF               	movwf	indf2,c
  9742                           
  9743                           ;usb_device.c: 1753: pBDTEntryEP0OutNext->STAT.Val |= 0x80;
  9744  001C1E  C015  FFD9         	movff	_pBDTEntryEP0OutNext,fsr2l
  9745  001C22  C016  FFDA         	movff	_pBDTEntryEP0OutNext+1,fsr2h
  9746  001C26  0E00               	movlw	0
  9747  001C28  8EDB               	bsf	plusw2,7,c
  9748                           
  9749                           ;usb_device.c: 1756: USBStatusStageEnabledFlag2 = 0;
  9750  001C2A  0E00               	movlw	0
  9751  001C2C  6E1D               	movwf	_USBStatusStageEnabledFlag2,c	;volatile
  9752                           
  9753                           ;usb_device.c: 1757: USBStatusStageEnabledFlag1 = 0;
  9754  001C2E  0E00               	movlw	0
  9755  001C30  6E1C               	movwf	_USBStatusStageEnabledFlag1,c	;volatile
  9756                           
  9757                           ;usb_device.c: 1758: if(USBDeferStatusStagePacket == 0)
  9758  001C32  501A               	movf	_USBDeferStatusStagePacket,w,c	;volatile
  9759  001C34  A4D8               	btfss	status,2,c
  9760  001C36  0012               	return	
  9761                           
  9762                           ;usb_device.c: 1759: {
  9763                           ;usb_device.c: 1760: USBCtrlEPAllowStatusStage();
  9764  001C38  EC34  F011         	call	_USBCtrlEPAllowStatusStage	;wreg free
  9765  001C3C  0012               	return	
  9766  001C3E  0012               	return		;funcret
  9767  001C40                     __end_of_USBCtrlEPServiceComplete:
  9768                           	opt stack 0
  9769                           pclatu	equ	0xFFB
  9770                           pclath	equ	0xFFA
  9771                           tblptru	equ	0xFF8
  9772                           tblptrh	equ	0xFF7
  9773                           tblptrl	equ	0xFF6
  9774                           tablat	equ	0xFF5
  9775                           prodh	equ	0xFF4
  9776                           prodl	equ	0xFF3
  9777                           intcon	equ	0xFF2
  9778                           postinc0	equ	0xFEE
  9779                           fsr0h	equ	0xFEA
  9780                           fsr0l	equ	0xFE9
  9781                           wreg	equ	0xFE8
  9782                           indf1	equ	0xFE7
  9783                           fsr1h	equ	0xFE2
  9784                           fsr1l	equ	0xFE1
  9785                           indf2	equ	0xFDF
  9786                           postinc2	equ	0xFDE
  9787                           postdec2	equ	0xFDD
  9788                           plusw2	equ	0xFDB
  9789                           fsr2h	equ	0xFDA
  9790                           fsr2l	equ	0xFD9
  9791                           status	equ	0xFD8
  9792                           
  9793 ;; *************** function _USBCtrlEPAllowDataStage *****************
  9794 ;; Defined at:
  9795 ;;		line 1506 in file "../../../../../../microchip/mla/v2015_08_10/framework/usb/src/usb_device.c"
  9796 ;; Parameters:    Size  Location     Type
  9797 ;;		None
  9798 ;; Auto vars:     Size  Location     Type
  9799 ;;		None
  9800 ;; Return value:  Size  Location     Type
  9801 ;;		None               void
  9802 ;; Registers used:
  9803 ;;		wreg, fsr1l, fsr1h, fsr2l, fsr2h, status,2, status,0, tblptrl, tblptrh, tblptru, cstack
  9804 ;; Tracked objects:
  9805 ;;		On entry : 0/0
  9806 ;;		On exit  : 0/0
  9807 ;;		Unchanged: 0/0
  9808 ;; Data sizes:     COMRAM   BANK0   BANK1   BANK2   BANK3   BANK4   BANK5   BANK6   BANK7
  9809 ;;      Params:         0       0       0       0       0       0       0       0       0
  9810 ;;      Locals:         0       0       0       0       0       0       0       0       0
  9811 ;;      Temps:          0       0       0       0       0       0       0       0       0
  9812 ;;      Totals:         0       0       0       0       0       0       0       0       0
  9813 ;;Total ram usage:        0 bytes
  9814 ;; Hardware stack levels used:    1
  9815 ;; Hardware stack levels required when called:    1
  9816 ;; This function calls:
  9817 ;;		_USBCtrlTrfTxService
  9818 ;; This function is called by:
  9819 ;;		_USBCtrlEPServiceComplete
  9820 ;; This function uses a non-reentrant model
  9821 ;;
  9822                           
  9823                           	psect	text48
  9824  0026B0                     __ptext48:
  9825                           	opt stack 0
  9826  0026B0                     _USBCtrlEPAllowDataStage:
  9827                           	opt stack 18
  9828                           
  9829                           ;usb_device.c: 1508: USBDeferINDataStagePackets = 0;
  9830                           
  9831                           ;incstack = 0
  9832  0026B0  0E00               	movlw	0
  9833  0026B2  0100               	movlb	0	; () banked
  9834  0026B4  6FF2               	movwf	_USBDeferINDataStagePackets& (0+255),b	;volatile
  9835                           
  9836                           ;usb_device.c: 1509: USBDeferOUTDataStagePackets = 0;
  9837  0026B6  0E00               	movlw	0
  9838  0026B8  0100               	movlb	0	; () banked
  9839  0026BA  6FF3               	movwf	_USBDeferOUTDataStagePackets& (0+255),b	;volatile
  9840                           
  9841                           ; BSR set to: 0
  9842                           ;usb_device.c: 1511: if(controlTransferState == 2)
  9843  0026BC  0E02               	movlw	2
  9844  0026BE  181F               	xorwf	_controlTransferState,w,c	;volatile
  9845  0026C0  A4D8               	btfss	status,2,c
  9846  0026C2  D01F               	goto	i2l3793
  9847                           
  9848                           ; BSR set to: 0
  9849                           ;usb_device.c: 1512: {
  9850                           ;usb_device.c: 1514: pBDTEntryEP0OutNext->CNT = 8;
  9851  0026C4  EE20 F001          	lfsr	2,1
  9852  0026C8  5015               	movf	_pBDTEntryEP0OutNext,w,c
  9853  0026CA  26D9               	addwf	fsr2l,f,c
  9854  0026CC  5016               	movf	_pBDTEntryEP0OutNext+1,w,c
  9855  0026CE  22DA               	addwfc	fsr2h,f,c
  9856  0026D0  0E08               	movlw	8
  9857  0026D2  6EDF               	movwf	indf2,c
  9858                           
  9859                           ;usb_device.c: 1515: pBDTEntryEP0OutNext->ADR = ((uint16_t)(&CtrlTrfData));
  9860  0026D4  EE20 F002          	lfsr	2,2
  9861  0026D8  5015               	movf	_pBDTEntryEP0OutNext,w,c
  9862  0026DA  26D9               	addwf	fsr2l,f,c
  9863  0026DC  5016               	movf	_pBDTEntryEP0OutNext+1,w,c
  9864  0026DE  22DA               	addwfc	fsr2h,f,c
  9865  0026E0  0E28               	movlw	40
  9866  0026E2  6EDE               	movwf	postinc2,c
  9867  0026E4  0E04               	movlw	4
  9868  0026E6  6EDD               	movwf	postdec2,c
  9869                           
  9870                           ; BSR set to: 0
  9871                           ;usb_device.c: 1516: pBDTEntryEP0OutNext->STAT.Val = 0x40|(0x08 & 0x08);
  9872  0026E8  C015  FFD9         	movff	_pBDTEntryEP0OutNext,fsr2l
  9873  0026EC  C016  FFDA         	movff	_pBDTEntryEP0OutNext+1,fsr2h
  9874  0026F0  0E48               	movlw	72
  9875  0026F2  6EDF               	movwf	indf2,c
  9876                           
  9877                           ; BSR set to: 0
  9878                           ;usb_device.c: 1517: pBDTEntryEP0OutNext->STAT.Val |= 0x80;
  9879  0026F4  C015  FFD9         	movff	_pBDTEntryEP0OutNext,fsr2l
  9880  0026F8  C016  FFDA         	movff	_pBDTEntryEP0OutNext+1,fsr2h
  9881  0026FC  0E00               	movlw	0
  9882  0026FE  8EDB               	bsf	plusw2,7,c
  9883                           
  9884                           ;usb_device.c: 1518: }
  9885  002700  0012               	return	
  9886  002702                     i2l3793:
  9887                           
  9888                           ; BSR set to: 0
  9889                           ;usb_device.c: 1519: else
  9890                           ;usb_device.c: 1520: {
  9891                           ;usb_device.c: 1523: if(SetupPkt.wLength < inPipes[0].wCount.Val)
  9892  002702  5026               	movf	_inPipes+4,w,c	;volatile
  9893  002704  0104               	movlb	4	; () banked
  9894  002706  5D26               	subwf	38,w,b	;volatile
  9895  002708  5027               	movf	_inPipes+5,w,c	;volatile
  9896  00270A  0104               	movlb	4	; () banked
  9897  00270C  5927               	subwfb	39,w,b	;volatile
  9898  00270E  B0D8               	btfsc	status,0,c
  9899  002710  D005               	goto	i2l3797
  9900                           
  9901                           ; BSR set to: 4
  9902                           ;usb_device.c: 1524: {
  9903                           ;usb_device.c: 1525: inPipes[0].wCount.Val = SetupPkt.wLength;
  9904  002712  C426 F026          	movff	1062,_inPipes+4	;volatile
  9905  002716  C427 F027          	movff	1063,_inPipes+5	;volatile
  9906  00271A  D000               	goto	i2l3797
  9907  00271C                     i2l3797:
  9908                           
  9909                           ; BSR set to: 4
  9910                           ;usb_device.c: 1526: }
  9911                           ;usb_device.c: 1527: USBCtrlTrfTxService();
  9912  00271C  EC5E  F010         	call	_USBCtrlTrfTxService	;wreg free
  9913                           
  9914                           ;usb_device.c: 1532: pBDTEntryIn[0]->ADR = ((uint16_t)(&CtrlTrfData));
  9915  002720  EE20 F002          	lfsr	2,2
  9916  002724  5009               	movf	_pBDTEntryIn,w,c
  9917  002726  26D9               	addwf	fsr2l,f,c
  9918  002728  500A               	movf	_pBDTEntryIn+1,w,c
  9919  00272A  22DA               	addwfc	fsr2h,f,c
  9920  00272C  0E28               	movlw	40
  9921  00272E  6EDE               	movwf	postinc2,c
  9922  002730  0E04               	movlw	4
  9923  002732  6EDD               	movwf	postdec2,c
  9924                           
  9925                           ;usb_device.c: 1533: pBDTEntryIn[0]->STAT.Val = 0x40|(0x08 & 0x08);
  9926  002734  C009  FFD9         	movff	_pBDTEntryIn,fsr2l
  9927  002738  C00A  FFDA         	movff	_pBDTEntryIn+1,fsr2h
  9928  00273C  0E48               	movlw	72
  9929  00273E  6EDF               	movwf	indf2,c
  9930                           
  9931                           ;usb_device.c: 1534: pBDTEntryIn[0]->STAT.Val |= 0x80;
  9932  002740  C009  FFD9         	movff	_pBDTEntryIn,fsr2l
  9933  002744  C00A  FFDA         	movff	_pBDTEntryIn+1,fsr2h
  9934  002748  0E00               	movlw	0
  9935  00274A  8EDB               	bsf	plusw2,7,c
  9936  00274C  0012               	return	
  9937  00274E  0012               	return		;funcret
  9938  002750                     __end_of_USBCtrlEPAllowDataStage:
  9939                           	opt stack 0
  9940                           pclatu	equ	0xFFB
  9941                           pclath	equ	0xFFA
  9942                           tblptru	equ	0xFF8
  9943                           tblptrh	equ	0xFF7
  9944                           tblptrl	equ	0xFF6
  9945                           tablat	equ	0xFF5
  9946                           prodh	equ	0xFF4
  9947                           prodl	equ	0xFF3
  9948                           intcon	equ	0xFF2
  9949                           postinc0	equ	0xFEE
  9950                           fsr0h	equ	0xFEA
  9951                           fsr0l	equ	0xFE9
  9952                           wreg	equ	0xFE8
  9953                           indf1	equ	0xFE7
  9954                           fsr1h	equ	0xFE2
  9955                           fsr1l	equ	0xFE1
  9956                           indf2	equ	0xFDF
  9957                           postinc2	equ	0xFDE
  9958                           postdec2	equ	0xFDD
  9959                           plusw2	equ	0xFDB
  9960                           fsr2h	equ	0xFDA
  9961                           fsr2l	equ	0xFD9
  9962                           status	equ	0xFD8
  9963                           
  9964 ;; *************** function _USBCheckStdRequest *****************
  9965 ;; Defined at:
  9966 ;;		line 2703 in file "../../../../../../microchip/mla/v2015_08_10/framework/usb/src/usb_device.c"
  9967 ;; Parameters:    Size  Location     Type
  9968 ;;		None
  9969 ;; Auto vars:     Size  Location     Type
  9970 ;;		None
  9971 ;; Return value:  Size  Location     Type
  9972 ;;		None               void
  9973 ;; Registers used:
  9974 ;;		wreg, fsr1l, fsr1h, fsr2l, fsr2h, status,2, status,0, tblptrl, tblptrh, tblptru, prodl, prodh, cstack
  9975 ;; Tracked objects:
  9976 ;;		On entry : 0/0
  9977 ;;		On exit  : 0/0
  9978 ;;		Unchanged: 0/0
  9979 ;; Data sizes:     COMRAM   BANK0   BANK1   BANK2   BANK3   BANK4   BANK5   BANK6   BANK7
  9980 ;;      Params:         0       0       0       0       0       0       0       0       0
  9981 ;;      Locals:         0       0       0       0       0       0       0       0       0
  9982 ;;      Temps:          0       0       0       0       0       0       0       0       0
  9983 ;;      Totals:         0       0       0       0       0       0       0       0       0
  9984 ;;Total ram usage:        0 bytes
  9985 ;; Hardware stack levels used:    1
  9986 ;; Hardware stack levels required when called:    5
  9987 ;; This function calls:
  9988 ;;		_USBStdFeatureReqHandler
  9989 ;;		_USBStdGetDscHandler
  9990 ;;		_USBStdGetStatusHandler
  9991 ;;		_USBStdSetCfgHandler
  9992 ;;		_USER_USB_CALLBACK_EVENT_HANDLER
  9993 ;; This function is called by:
  9994 ;;		_USBCtrlTrfSetupHandler
  9995 ;; This function uses a non-reentrant model
  9996 ;;
  9997                           
  9998                           	psect	text49
  9999  001E1E                     __ptext49:
 10000                           	opt stack 0
 10001  001E1E                     _USBCheckStdRequest:
 10002                           	opt stack 15
 10003                           
 10004                           ;usb_device.c: 2705: if(SetupPkt.RequestType != (0x00>>5)) return;
 10005                           
 10006                           ;incstack = 0
 10007  001E1E  0104               	movlb	4	; () banked
 10008  001E20  3920               	swapf	32,w,b	;volatile
 10009  001E22  32E8               	rrcf	wreg,f,c
 10010  001E24  0B03               	andlw	3
 10011  001E26  0900               	iorlw	0
 10012  001E28  A4D8               	btfss	status,2,c
 10013  001E2A  0012               	return	
 10014  001E2C  D046               	goto	i2l4353
 10015                           
 10016                           ; BSR set to: 4
 10017  001E2E  0012               	return	
 10018                           
 10019                           ; BSR set to: 4
 10020                           ;usb_device.c: 2707: switch(SetupPkt.bRequest)
 10021  001E30  D044               	goto	i2l4353
 10022  001E32                     i2l645:
 10023                           
 10024                           ; BSR set to: 4
 10025                           ;usb_device.c: 2710: inPipes[0].info.bits.busy = 1;
 10026  001E32  8E25               	bsf	_inPipes+3,7,c	;volatile
 10027                           
 10028                           ; BSR set to: 4
 10029                           ;usb_device.c: 2711: USBDeviceState = ADR_PENDING_STATE;
 10030  001E34  0E08               	movlw	8
 10031  001E36  6E1B               	movwf	_USBDeviceState,c	;volatile
 10032                           
 10033                           ;usb_device.c: 2713: break;
 10034  001E38  0012               	return	
 10035  001E3A                     i2l4323:
 10036                           
 10037                           ; BSR set to: 4
 10038                           ;usb_device.c: 2715: USBStdGetDscHandler();
 10039  001E3A  EC76  F00B         	call	_USBStdGetDscHandler	;wreg free
 10040                           
 10041                           ;usb_device.c: 2716: break;
 10042  001E3E  0012               	return	
 10043  001E40                     i2l4325:
 10044                           
 10045                           ;usb_device.c: 2718: USBStdSetCfgHandler();
 10046  001E40  ECEF  F00F         	call	_USBStdSetCfgHandler	;wreg free
 10047                           
 10048                           ;usb_device.c: 2719: break;
 10049  001E44  0012               	return	
 10050  001E46                     i2l4327:
 10051                           
 10052                           ;usb_device.c: 2721: inPipes[0].pSrc.bRam = (uint8_t*)&USBActiveConfiguration;
 10053  001E46  0E28               	movlw	low _USBActiveConfiguration
 10054  001E48  6E22               	movwf	_inPipes,c	;volatile
 10055  001E4A  0E00               	movlw	high _USBActiveConfiguration
 10056  001E4C  6E23               	movwf	_inPipes+1,c	;volatile
 10057                           
 10058                           ;usb_device.c: 2722: inPipes[0].info.bits.ctrl_trf_mem = 0x01;
 10059  001E4E  8025               	bsf	_inPipes+3,0,c	;volatile
 10060                           
 10061                           ;usb_device.c: 2723: inPipes[0].wCount.v[0] = 1;
 10062  001E50  0E01               	movlw	1
 10063  001E52  6E26               	movwf	_inPipes+4,c	;volatile
 10064                           
 10065                           ;usb_device.c: 2724: inPipes[0].info.bits.busy = 1;
 10066  001E54  8E25               	bsf	_inPipes+3,7,c	;volatile
 10067                           
 10068                           ;usb_device.c: 2725: break;
 10069  001E56  0012               	return	
 10070  001E58                     i2l4335:
 10071                           
 10072                           ;usb_device.c: 2727: USBStdGetStatusHandler();
 10073  001E58  EC55  F012         	call	_USBStdGetStatusHandler	;wreg free
 10074                           
 10075                           ;usb_device.c: 2728: break;
 10076  001E5C  0012               	return	
 10077                           
 10078                           ;usb_device.c: 2729: case 1:
 10079  001E5E  D000               	goto	i2l4337
 10080  001E60                     i2l4337:
 10081                           
 10082                           ;usb_device.c: 2730: case 3:
 10083                           ;usb_device.c: 2731: USBStdFeatureReqHandler();
 10084  001E60  ECB9  F001         	call	_USBStdFeatureReqHandler	;wreg free
 10085                           
 10086                           ;usb_device.c: 2732: break;
 10087  001E64  0012               	return	
 10088  001E66                     i2l4339:
 10089                           
 10090                           ;usb_device.c: 2734: inPipes[0].pSrc.bRam = (uint8_t*)&USBAlternateInterface[SetupPkt.bI
      +                          ntfID];
 10091  001E66  0104               	movlb	4	; () banked
 10092  001E68  5124               	movf	36,w,b	;volatile
 10093  001E6A  0D01               	mullw	1
 10094  001E6C  0E29               	movlw	low _USBAlternateInterface
 10095  001E6E  24F3               	addwf	prodl,w,c
 10096  001E70  6E22               	movwf	_inPipes,c	;volatile
 10097  001E72  0E00               	movlw	high _USBAlternateInterface
 10098  001E74  20F4               	addwfc	prodh,w,c
 10099  001E76  6E23               	movwf	_inPipes+1,c	;volatile
 10100                           
 10101                           ; BSR set to: 4
 10102                           ;usb_device.c: 2735: inPipes[0].info.bits.ctrl_trf_mem = 0x01;
 10103  001E78  8025               	bsf	_inPipes+3,0,c	;volatile
 10104                           
 10105                           ; BSR set to: 4
 10106                           ;usb_device.c: 2736: inPipes[0].wCount.v[0] = 1;
 10107  001E7A  0E01               	movlw	1
 10108  001E7C  6E26               	movwf	_inPipes+4,c	;volatile
 10109                           
 10110                           ; BSR set to: 4
 10111                           ;usb_device.c: 2737: inPipes[0].info.bits.busy = 1;
 10112  001E7E  8E25               	bsf	_inPipes+3,7,c	;volatile
 10113                           
 10114                           ;usb_device.c: 2738: break;
 10115  001E80  0012               	return	
 10116  001E82                     i2l654:
 10117                           
 10118                           ; BSR set to: 4
 10119                           ;usb_device.c: 2740: inPipes[0].info.bits.busy = 1;
 10120  001E82  8E25               	bsf	_inPipes+3,7,c	;volatile
 10121                           
 10122                           ; BSR set to: 4
 10123                           ;usb_device.c: 2741: USBAlternateInterface[SetupPkt.bIntfID] = SetupPkt.bAltID;
 10124  001E84  0104               	movlb	4	; () banked
 10125  001E86  5124               	movf	36,w,b	;volatile
 10126  001E88  0D01               	mullw	1
 10127  001E8A  0E29               	movlw	low _USBAlternateInterface
 10128  001E8C  24F3               	addwf	prodl,w,c
 10129  001E8E  6ED9               	movwf	fsr2l,c
 10130  001E90  0E00               	movlw	high _USBAlternateInterface
 10131  001E92  20F4               	addwfc	prodh,w,c
 10132  001E94  6EDA               	movwf	fsr2h,c
 10133  001E96  C422 FFDF          	movff	1058,indf2	;volatile
 10134                           
 10135                           ;usb_device.c: 2742: break;
 10136  001E9A  0012               	return	
 10137  001E9C                     i2l4349:
 10138                           
 10139                           ; BSR set to: 4
 10140                           ;usb_device.c: 2744: USER_USB_CALLBACK_EVENT_HANDLER(EVENT_SET_DESCRIPTOR,0,0);
 10141  001E9C  0E00               	movlw	0
 10142  001E9E  6E38               	movwf	USER_USB_CALLBACK_EVENT_HANDLER@event+1,c
 10143  001EA0  0E02               	movlw	2
 10144  001EA2  6E37               	movwf	USER_USB_CALLBACK_EVENT_HANDLER@event,c
 10145  001EA4  0E00               	movlw	0
 10146  001EA6  6E39               	movwf	USER_USB_CALLBACK_EVENT_HANDLER@pdata,c
 10147  001EA8  0E00               	movlw	0
 10148  001EAA  6E3A               	movwf	USER_USB_CALLBACK_EVENT_HANDLER@pdata+1,c
 10149  001EAC  0E00               	movlw	0
 10150  001EAE  6E3C               	movwf	USER_USB_CALLBACK_EVENT_HANDLER@size+1,c
 10151  001EB0  0E00               	movlw	0
 10152  001EB2  6E3B               	movwf	USER_USB_CALLBACK_EVENT_HANDLER@size,c
 10153  001EB4  EC03  F015         	call	_USER_USB_CALLBACK_EVENT_HANDLER	;wreg free
 10154                           
 10155                           ;usb_device.c: 2749: }
 10156                           
 10157                           ;usb_device.c: 2748: break;
 10158                           
 10159                           ;usb_device.c: 2747: default:
 10160                           
 10161                           ;usb_device.c: 2746: case 12:
 10162                           
 10163                           ;usb_device.c: 2745: break;
 10164  001EB8  0012               	return	
 10165  001EBA                     i2l4353:
 10166  001EBA  0104               	movlb	4	; () banked
 10167  001EBC  5121               	movf	33,w,b	;volatile
 10168                           
 10169                           ; Switch size 1, requested type "space"
 10170                           ; Number of cases is 11, Range of values is 0 to 12
 10171                           ; switch strategies available:
 10172                           ; Name         Instructions Cycles
 10173                           ; simple_byte           34    18 (average)
 10174                           ;	Chosen strategy is simple_byte
 10175  001EBE  0A00               	xorlw	0	; case 0
 10176  001EC0  B4D8               	btfsc	status,2,c
 10177  001EC2  D7CA               	goto	i2l4335
 10178  001EC4  0A01               	xorlw	1	; case 1
 10179  001EC6  B4D8               	btfsc	status,2,c
 10180  001EC8  D7CB               	goto	i2l4337
 10181  001ECA  0A02               	xorlw	2	; case 3
 10182  001ECC  B4D8               	btfsc	status,2,c
 10183  001ECE  D7C8               	goto	i2l4337
 10184  001ED0  0A06               	xorlw	6	; case 5
 10185  001ED2  B4D8               	btfsc	status,2,c
 10186  001ED4  D7AE               	goto	i2l645
 10187  001ED6  0A03               	xorlw	3	; case 6
 10188  001ED8  B4D8               	btfsc	status,2,c
 10189  001EDA  D7AF               	goto	i2l4323
 10190  001EDC  0A01               	xorlw	1	; case 7
 10191  001EDE  B4D8               	btfsc	status,2,c
 10192  001EE0  D7DD               	goto	i2l4349
 10193  001EE2  0A0F               	xorlw	15	; case 8
 10194  001EE4  B4D8               	btfsc	status,2,c
 10195  001EE6  D7AF               	goto	i2l4327
 10196  001EE8  0A01               	xorlw	1	; case 9
 10197  001EEA  B4D8               	btfsc	status,2,c
 10198  001EEC  D7A9               	goto	i2l4325
 10199  001EEE  0A03               	xorlw	3	; case 10
 10200  001EF0  B4D8               	btfsc	status,2,c
 10201  001EF2  D7B9               	goto	i2l4339
 10202  001EF4  0A01               	xorlw	1	; case 11
 10203  001EF6  B4D8               	btfsc	status,2,c
 10204  001EF8  D7C4               	goto	i2l654
 10205  001EFA  0A07               	xorlw	7	; case 12
 10206  001EFC  0012               	return	
 10207                           
 10208                           ; BSR set to: 4
 10209  001EFE  0012               	return		;funcret
 10210  001F00                     __end_of_USBCheckStdRequest:
 10211                           	opt stack 0
 10212                           pclatu	equ	0xFFB
 10213                           pclath	equ	0xFFA
 10214                           tblptru	equ	0xFF8
 10215                           tblptrh	equ	0xFF7
 10216                           tblptrl	equ	0xFF6
 10217                           tablat	equ	0xFF5
 10218                           prodh	equ	0xFF4
 10219                           prodl	equ	0xFF3
 10220                           intcon	equ	0xFF2
 10221                           postinc0	equ	0xFEE
 10222                           fsr0h	equ	0xFEA
 10223                           fsr0l	equ	0xFE9
 10224                           wreg	equ	0xFE8
 10225                           indf1	equ	0xFE7
 10226                           fsr1h	equ	0xFE2
 10227                           fsr1l	equ	0xFE1
 10228                           indf2	equ	0xFDF
 10229                           postinc2	equ	0xFDE
 10230                           postdec2	equ	0xFDD
 10231                           plusw2	equ	0xFDB
 10232                           fsr2h	equ	0xFDA
 10233                           fsr2l	equ	0xFD9
 10234                           status	equ	0xFD8
 10235                           
 10236 ;; *************** function _USBStdSetCfgHandler *****************
 10237 ;; Defined at:
 10238 ;;		line 1986 in file "../../../../../../microchip/mla/v2015_08_10/framework/usb/src/usb_device.c"
 10239 ;; Parameters:    Size  Location     Type
 10240 ;;		None
 10241 ;; Auto vars:     Size  Location     Type
 10242 ;;  i               1   20[COMRAM] unsigned char 
 10243 ;; Return value:  Size  Location     Type
 10244 ;;		None               void
 10245 ;; Registers used:
 10246 ;;		wreg, fsr2l, fsr2h, status,2, status,0, prodl, prodh, cstack
 10247 ;; Tracked objects:
 10248 ;;		On entry : 0/0
 10249 ;;		On exit  : 0/0
 10250 ;;		Unchanged: 0/0
 10251 ;; Data sizes:     COMRAM   BANK0   BANK1   BANK2   BANK3   BANK4   BANK5   BANK6   BANK7
 10252 ;;      Params:         0       0       0       0       0       0       0       0       0
 10253 ;;      Locals:         1       0       0       0       0       0       0       0       0
 10254 ;;      Temps:          0       0       0       0       0       0       0       0       0
 10255 ;;      Totals:         1       0       0       0       0       0       0       0       0
 10256 ;;Total ram usage:        1 bytes
 10257 ;; Hardware stack levels used:    1
 10258 ;; Hardware stack levels required when called:    4
 10259 ;; This function calls:
 10260 ;;		_USER_USB_CALLBACK_EVENT_HANDLER
 10261 ;;		i2_memset
 10262 ;; This function is called by:
 10263 ;;		_USBCheckStdRequest
 10264 ;; This function uses a non-reentrant model
 10265 ;;
 10266                           
 10267                           	psect	text50
 10268  001FDE                     __ptext50:
 10269                           	opt stack 0
 10270  001FDE                     _USBStdSetCfgHandler:
 10271                           	opt stack 15
 10272                           
 10273                           ;usb_device.c: 1988: uint8_t i;
 10274                           ;usb_device.c: 1991: inPipes[0].info.bits.busy = 1;
 10275                           
 10276                           ;incstack = 0
 10277  001FDE  8E25               	bsf	_inPipes+3,7,c	;volatile
 10278                           
 10279                           ;usb_device.c: 1994: memset((void*)&UEP1,0x00,(1));;
 10280  001FE0  0E6B               	movlw	107
 10281  001FE2  6E2B               	movwf	i2memset@p1,c
 10282  001FE4  0E0F               	movlw	15
 10283  001FE6  6E2C               	movwf	i2memset@p1+1,c
 10284  001FE8  0E00               	movlw	0
 10285  001FEA  6E2E               	movwf	i2memset@c+1,c
 10286  001FEC  0E00               	movlw	0
 10287  001FEE  6E2D               	movwf	i2memset@c,c
 10288  001FF0  0E00               	movlw	0
 10289  001FF2  6E30               	movwf	i2memset@n+1,c
 10290  001FF4  0E01               	movlw	1
 10291  001FF6  6E2F               	movwf	i2memset@n,c
 10292  001FF8  EC07  F018         	call	i2_memset	;wreg free
 10293                           
 10294                           ;usb_device.c: 1997: memset((void*)&BDT[0], 0x00, sizeof(BDT));
 10295  001FFC  0E00               	movlw	0
 10296  001FFE  6E2B               	movwf	i2memset@p1,c
 10297  002000  0E04               	movlw	4
 10298  002002  6E2C               	movwf	i2memset@p1+1,c
 10299  002004  0E00               	movlw	0
 10300  002006  6E2E               	movwf	i2memset@c+1,c
 10301  002008  0E00               	movlw	0
 10302  00200A  6E2D               	movwf	i2memset@c,c
 10303  00200C  0E00               	movlw	0
 10304  00200E  6E30               	movwf	i2memset@n+1,c
 10305  002010  0E20               	movlw	32
 10306  002012  6E2F               	movwf	i2memset@n,c
 10307  002014  EC07  F018         	call	i2_memset	;wreg free
 10308                           
 10309                           ;usb_device.c: 2000: UCONbits.PPBRST = 1;
 10310  002018  8C60               	bsf	3936,6,c	;volatile
 10311                           
 10312                           ;usb_device.c: 2005: for(i = 0; i < (uint8_t)(1+1u); i++)
 10313  00201A  0E00               	movlw	0
 10314  00201C  6E3F               	movwf	USBStdSetCfgHandler@i,c
 10315  00201E                     i2l3813:
 10316  00201E  0E01               	movlw	1
 10317  002020  643F               	cpfsgt	USBStdSetCfgHandler@i,c
 10318  002022  D001               	goto	i2l3817
 10319  002024  D016               	goto	i2l3823
 10320  002026                     i2l3817:
 10321                           
 10322                           ;usb_device.c: 2006: {
 10323                           ;usb_device.c: 2007: ep_data_in[i].Val = 0u;
 10324  002026  503F               	movf	USBStdSetCfgHandler@i,w,c
 10325  002028  0D01               	mullw	1
 10326  00202A  0E0F               	movlw	low _ep_data_in
 10327  00202C  24F3               	addwf	prodl,w,c
 10328  00202E  6ED9               	movwf	fsr2l,c
 10329  002030  0E00               	movlw	high _ep_data_in
 10330  002032  20F4               	addwfc	prodh,w,c
 10331  002034  6EDA               	movwf	fsr2h,c
 10332  002036  0E00               	movlw	0
 10333  002038  6EDF               	movwf	indf2,c
 10334                           
 10335                           ;usb_device.c: 2008: ep_data_out[i].Val = 0u;
 10336  00203A  503F               	movf	USBStdSetCfgHandler@i,w,c
 10337  00203C  0D01               	mullw	1
 10338  00203E  0E11               	movlw	low _ep_data_out
 10339  002040  24F3               	addwf	prodl,w,c
 10340  002042  6ED9               	movwf	fsr2l,c
 10341  002044  0E00               	movlw	high _ep_data_out
 10342  002046  20F4               	addwfc	prodh,w,c
 10343  002048  6EDA               	movwf	fsr2h,c
 10344  00204A  0E00               	movlw	0
 10345  00204C  6EDF               	movwf	indf2,c
 10346  00204E  2A3F               	incf	USBStdSetCfgHandler@i,f,c
 10347  002050  D7E6               	goto	i2l3813
 10348  002052                     i2l3823:
 10349                           
 10350                           ;usb_device.c: 2009: }
 10351                           ;usb_device.c: 2012: memset((void*)&USBAlternateInterface,0x00,1);
 10352  002052  0E29               	movlw	low _USBAlternateInterface
 10353  002054  6E2B               	movwf	i2memset@p1,c
 10354  002056  0E00               	movlw	high _USBAlternateInterface
 10355  002058  6E2C               	movwf	i2memset@p1+1,c
 10356  00205A  0E00               	movlw	0
 10357  00205C  6E2E               	movwf	i2memset@c+1,c
 10358  00205E  0E00               	movlw	0
 10359  002060  6E2D               	movwf	i2memset@c,c
 10360  002062  0E00               	movlw	0
 10361  002064  6E30               	movwf	i2memset@n+1,c
 10362  002066  0E01               	movlw	1
 10363  002068  6E2F               	movwf	i2memset@n,c
 10364  00206A  EC07  F018         	call	i2_memset	;wreg free
 10365                           
 10366                           ;usb_device.c: 2015: UCONbits.PPBRST = 0;
 10367  00206E  9C60               	bcf	3936,6,c	;volatile
 10368                           
 10369                           ;usb_device.c: 2017: pBDTEntryIn[0] = (volatile BDT_ENTRY*)&BDT[2];
 10370  002070  0E08               	movlw	8
 10371  002072  6E09               	movwf	_pBDTEntryIn,c
 10372  002074  0E04               	movlw	4
 10373  002076  6E0A               	movwf	_pBDTEntryIn+1,c
 10374                           
 10375                           ;usb_device.c: 2020: pBDTEntryEP0OutCurrent = (volatile BDT_ENTRY*)&BDT[0];
 10376  002078  0E00               	movlw	0
 10377  00207A  6E13               	movwf	_pBDTEntryEP0OutCurrent,c
 10378  00207C  0E04               	movlw	4
 10379  00207E  6E14               	movwf	_pBDTEntryEP0OutCurrent+1,c
 10380                           
 10381                           ;usb_device.c: 2021: pBDTEntryEP0OutNext = pBDTEntryEP0OutCurrent;
 10382  002080  C013  F015         	movff	_pBDTEntryEP0OutCurrent,_pBDTEntryEP0OutNext
 10383  002084  C014  F016         	movff	_pBDTEntryEP0OutCurrent+1,_pBDTEntryEP0OutNext+1
 10384                           
 10385                           ;usb_device.c: 2024: USBActiveConfiguration = SetupPkt.bConfigurationValue;
 10386  002088  C422 F028          	movff	1058,_USBActiveConfiguration	;volatile
 10387                           
 10388                           ;usb_device.c: 2027: if(USBActiveConfiguration == 0)
 10389  00208C  5028               	movf	_USBActiveConfiguration,w,c	;volatile
 10390  00208E  A4D8               	btfss	status,2,c
 10391  002090  D003               	goto	i2l3839
 10392                           
 10393                           ;usb_device.c: 2028: {
 10394                           ;usb_device.c: 2030: USBDeviceState = ADDRESS_STATE;
 10395  002092  0E10               	movlw	16
 10396  002094  6E1B               	movwf	_USBDeviceState,c	;volatile
 10397                           
 10398                           ;usb_device.c: 2031: }
 10399  002096  0012               	return	
 10400  002098                     i2l3839:
 10401                           
 10402                           ;usb_device.c: 2032: else
 10403                           ;usb_device.c: 2033: {
 10404                           ;usb_device.c: 2035: USER_USB_CALLBACK_EVENT_HANDLER(EVENT_CONFIGURED,(void*)&USBActiveC
      +                          onfiguration,1);
 10405  002098  0E00               	movlw	0
 10406  00209A  6E38               	movwf	USER_USB_CALLBACK_EVENT_HANDLER@event+1,c
 10407  00209C  0E01               	movlw	1
 10408  00209E  6E37               	movwf	USER_USB_CALLBACK_EVENT_HANDLER@event,c
 10409  0020A0  0E28               	movlw	low _USBActiveConfiguration
 10410  0020A2  6E39               	movwf	USER_USB_CALLBACK_EVENT_HANDLER@pdata,c
 10411  0020A4  0E00               	movlw	high _USBActiveConfiguration
 10412  0020A6  6E3A               	movwf	USER_USB_CALLBACK_EVENT_HANDLER@pdata+1,c
 10413  0020A8  0E00               	movlw	0
 10414  0020AA  6E3C               	movwf	USER_USB_CALLBACK_EVENT_HANDLER@size+1,c
 10415  0020AC  0E01               	movlw	1
 10416  0020AE  6E3B               	movwf	USER_USB_CALLBACK_EVENT_HANDLER@size,c
 10417  0020B0  EC03  F015         	call	_USER_USB_CALLBACK_EVENT_HANDLER	;wreg free
 10418                           
 10419                           ;usb_device.c: 2040: USBDeviceState = CONFIGURED_STATE;
 10420  0020B4  0E20               	movlw	32
 10421  0020B6  6E1B               	movwf	_USBDeviceState,c	;volatile
 10422  0020B8  0012               	return	
 10423  0020BA  0012               	return		;funcret
 10424  0020BC                     __end_of_USBStdSetCfgHandler:
 10425                           	opt stack 0
 10426                           pclatu	equ	0xFFB
 10427                           pclath	equ	0xFFA
 10428                           tblptru	equ	0xFF8
 10429                           tblptrh	equ	0xFF7
 10430                           tblptrl	equ	0xFF6
 10431                           tablat	equ	0xFF5
 10432                           prodh	equ	0xFF4
 10433                           prodl	equ	0xFF3
 10434                           intcon	equ	0xFF2
 10435                           postinc0	equ	0xFEE
 10436                           fsr0h	equ	0xFEA
 10437                           fsr0l	equ	0xFE9
 10438                           wreg	equ	0xFE8
 10439                           indf1	equ	0xFE7
 10440                           fsr1h	equ	0xFE2
 10441                           fsr1l	equ	0xFE1
 10442                           indf2	equ	0xFDF
 10443                           postinc2	equ	0xFDE
 10444                           postdec2	equ	0xFDD
 10445                           plusw2	equ	0xFDB
 10446                           fsr2h	equ	0xFDA
 10447                           fsr2l	equ	0xFD9
 10448                           status	equ	0xFD8
 10449                           
 10450 ;; *************** function i2_memset *****************
 10451 ;; Defined at:
 10452 ;;		line 8 in file "C:\Program Files (x86)\Microchip\xc8\v1.34\sources\common\memset.c"
 10453 ;; Parameters:    Size  Location     Type
 10454 ;;  p1              2    0[COMRAM] PTR void 
 10455 ;;		 -> USBAlternateInterface(1), BDT(32), UEP1(1), 
 10456 ;;  c               2    2[COMRAM] int 
 10457 ;;  n               2    4[COMRAM] unsigned int 
 10458 ;; Auto vars:     Size  Location     Type
 10459 ;;  memset          2    6[COMRAM] PTR unsigned char 
 10460 ;;		 -> USBAlternateInterface(1), BDT(32), UEP1(1), 
 10461 ;; Return value:  Size  Location     Type
 10462 ;;                  2    0[COMRAM] PTR void 
 10463 ;; Registers used:
 10464 ;;		wreg, fsr2l, fsr2h, status,2, status,0
 10465 ;; Tracked objects:
 10466 ;;		On entry : 0/0
 10467 ;;		On exit  : 0/0
 10468 ;;		Unchanged: 0/0
 10469 ;; Data sizes:     COMRAM   BANK0   BANK1   BANK2   BANK3   BANK4   BANK5   BANK6   BANK7
 10470 ;;      Params:         6       0       0       0       0       0       0       0       0
 10471 ;;      Locals:         2       0       0       0       0       0       0       0       0
 10472 ;;      Temps:          0       0       0       0       0       0       0       0       0
 10473 ;;      Totals:         8       0       0       0       0       0       0       0       0
 10474 ;;Total ram usage:        8 bytes
 10475 ;; Hardware stack levels used:    1
 10476 ;; This function calls:
 10477 ;;		Nothing
 10478 ;; This function is called by:
 10479 ;;		_USBStdSetCfgHandler
 10480 ;;		i2_USBDeviceInit
 10481 ;; This function uses a non-reentrant model
 10482 ;;
 10483                           
 10484                           	psect	text51
 10485  00300E                     __ptext51:
 10486                           	opt stack 0
 10487  00300E                     i2_memset:
 10488                           	opt stack 21
 10489                           
 10490                           ;incstack = 0
 10491  00300E  C02B  F031         	movff	i2memset@p1,i2memset@p
 10492  003012  C02C  F032         	movff	i2memset@p1+1,i2memset@p+1
 10493  003016  D009               	goto	i2l3747
 10494  003018                     i2l3743:
 10495  003018  C031  FFD9         	movff	i2memset@p,fsr2l
 10496  00301C  C032  FFDA         	movff	i2memset@p+1,fsr2h
 10497  003020  C02D  FFDF         	movff	i2memset@c,indf2
 10498  003024  4A31               	infsnz	i2memset@p,f,c
 10499  003026  2A32               	incf	i2memset@p+1,f,c
 10500  003028  D000               	goto	i2l3747
 10501  00302A                     i2l3747:
 10502  00302A  062F               	decf	i2memset@n,f,c
 10503  00302C  A0D8               	btfss	status,0,c
 10504  00302E  0630               	decf	i2memset@n+1,f,c
 10505  003030  282F               	incf	i2memset@n,w,c
 10506  003032  E1F2               	bnz	i2l3743
 10507  003034  2830               	incf	i2memset@n+1,w,c
 10508  003036  A4D8               	btfss	status,2,c
 10509  003038  D7EF               	goto	i2l3743
 10510                           
 10511                           ;	Return value of i2_memset is never used
 10512  00303A  0012               	return		;funcret
 10513  00303C                     __end_ofi2_memset:
 10514                           	opt stack 0
 10515                           pclatu	equ	0xFFB
 10516                           pclath	equ	0xFFA
 10517                           tblptru	equ	0xFF8
 10518                           tblptrh	equ	0xFF7
 10519                           tblptrl	equ	0xFF6
 10520                           tablat	equ	0xFF5
 10521                           prodh	equ	0xFF4
 10522                           prodl	equ	0xFF3
 10523                           intcon	equ	0xFF2
 10524                           postinc0	equ	0xFEE
 10525                           fsr0h	equ	0xFEA
 10526                           fsr0l	equ	0xFE9
 10527                           wreg	equ	0xFE8
 10528                           indf1	equ	0xFE7
 10529                           fsr1h	equ	0xFE2
 10530                           fsr1l	equ	0xFE1
 10531                           indf2	equ	0xFDF
 10532                           postinc2	equ	0xFDE
 10533                           postdec2	equ	0xFDD
 10534                           plusw2	equ	0xFDB
 10535                           fsr2h	equ	0xFDA
 10536                           fsr2l	equ	0xFD9
 10537                           status	equ	0xFD8
 10538                           
 10539 ;; *************** function _USBStdGetStatusHandler *****************
 10540 ;; Defined at:
 10541 ;;		line 2147 in file "../../../../../../microchip/mla/v2015_08_10/framework/usb/src/usb_device.c"
 10542 ;; Parameters:    Size  Location     Type
 10543 ;;		None
 10544 ;; Auto vars:     Size  Location     Type
 10545 ;;  p               2    1[COMRAM] PTR struct __BDT
 10546 ;;		 -> BDT(32), NULL(0), 
 10547 ;; Return value:  Size  Location     Type
 10548 ;;		None               void
 10549 ;; Registers used:
 10550 ;;		wreg, fsr2l, fsr2h, status,2, status,0, prodl, prodh
 10551 ;; Tracked objects:
 10552 ;;		On entry : 0/0
 10553 ;;		On exit  : 0/0
 10554 ;;		Unchanged: 0/0
 10555 ;; Data sizes:     COMRAM   BANK0   BANK1   BANK2   BANK3   BANK4   BANK5   BANK6   BANK7
 10556 ;;      Params:         0       0       0       0       0       0       0       0       0
 10557 ;;      Locals:         2       0       0       0       0       0       0       0       0
 10558 ;;      Temps:          1       0       0       0       0       0       0       0       0
 10559 ;;      Totals:         3       0       0       0       0       0       0       0       0
 10560 ;;Total ram usage:        3 bytes
 10561 ;; Hardware stack levels used:    1
 10562 ;; This function calls:
 10563 ;;		Nothing
 10564 ;; This function is called by:
 10565 ;;		_USBCheckStdRequest
 10566 ;; This function uses a non-reentrant model
 10567 ;;
 10568                           
 10569                           	psect	text52
 10570  0024AA                     __ptext52:
 10571                           	opt stack 0
 10572  0024AA                     _USBStdGetStatusHandler:
 10573                           	opt stack 19
 10574                           
 10575                           ;usb_device.c: 2149: CtrlTrfData[0] = 0;
 10576                           
 10577                           ;incstack = 0
 10578  0024AA  0E00               	movlw	0
 10579  0024AC  0104               	movlb	4	; () banked
 10580  0024AE  6F28               	movwf	40,b	;volatile
 10581                           
 10582                           ;usb_device.c: 2150: CtrlTrfData[1] = 0;
 10583  0024B0  0E00               	movlw	0
 10584  0024B2  0104               	movlb	4	; () banked
 10585  0024B4  6F29               	movwf	41,b	;volatile
 10586                           
 10587                           ;usb_device.c: 2152: switch(SetupPkt.Recipient)
 10588  0024B6  D03D               	goto	i2l3895
 10589  0024B8                     i2l583:
 10590                           
 10591                           ; BSR set to: 4
 10592                           ;usb_device.c: 2155: inPipes[0].info.bits.busy = 1;
 10593  0024B8  8E25               	bsf	_inPipes+3,7,c	;volatile
 10594                           
 10595                           ;usb_device.c: 2160: if(0 == 1)
 10596  0024BA  D003               	goto	i2l3879
 10597                           
 10598                           ; BSR set to: 4
 10599                           ;usb_device.c: 2161: {
 10600                           ;usb_device.c: 2162: CtrlTrfData[0]|=0x01;
 10601  0024BC  0104               	movlb	4	; () banked
 10602  0024BE  8128               	bsf	40,0,b	;volatile
 10603  0024C0  D000               	goto	i2l3879
 10604  0024C2                     i2l3879:
 10605                           
 10606                           ; BSR set to: 4
 10607                           ;usb_device.c: 2163: }
 10608                           ;usb_device.c: 2165: if(RemoteWakeup == 1)
 10609  0024C2  0418               	decf	_RemoteWakeup,w,c	;volatile
 10610  0024C4  A4D8               	btfss	status,2,c
 10611  0024C6  D041               	goto	i2l586
 10612                           
 10613                           ; BSR set to: 4
 10614                           ;usb_device.c: 2166: {
 10615                           ;usb_device.c: 2167: CtrlTrfData[0]|=0x02;
 10616  0024C8  0104               	movlb	4	; () banked
 10617  0024CA  8328               	bsf	40,1,b	;volatile
 10618                           
 10619                           ; BSR set to: 4
 10620                           ;usb_device.c: 2168: }
 10621                           ;usb_device.c: 2169: break;
 10622  0024CC  D03E               	goto	i2l586
 10623  0024CE                     i2l587:
 10624                           
 10625                           ; BSR set to: 4
 10626                           ;usb_device.c: 2171: inPipes[0].info.bits.busy = 1;
 10627  0024CE  8E25               	bsf	_inPipes+3,7,c	;volatile
 10628                           
 10629                           ;usb_device.c: 2172: break;
 10630  0024D0  D03C               	goto	i2l586
 10631  0024D2                     i2l588:
 10632                           
 10633                           ; BSR set to: 4
 10634                           ;usb_device.c: 2174: inPipes[0].info.bits.busy = 1;
 10635  0024D2  8E25               	bsf	_inPipes+3,7,c	;volatile
 10636                           
 10637                           ;usb_device.c: 2178: {
 10638                           ;usb_device.c: 2179: BDT_ENTRY *p;
 10639                           ;usb_device.c: 2181: if(SetupPkt.EPDir == 0)
 10640  0024D4  0104               	movlb	4	; () banked
 10641  0024D6  BF24               	btfsc	36,7,b	;volatile
 10642  0024D8  D00B               	goto	i2l3885
 10643                           
 10644                           ; BSR set to: 4
 10645                           ;usb_device.c: 2182: {
 10646                           ;usb_device.c: 2183: p = (BDT_ENTRY*)pBDTEntryOut[SetupPkt.EPNum];
 10647  0024DA  0104               	movlb	4	; () banked
 10648  0024DC  5124               	movf	36,w,b	;volatile
 10649  0024DE  0B0F               	andlw	15
 10650  0024E0  6E2B               	movwf	??_USBStdGetStatusHandler& (0+255),c
 10651  0024E2  502B               	movf	??_USBStdGetStatusHandler,w,c
 10652  0024E4  0D02               	mullw	2
 10653  0024E6  0EE6               	movlw	low _pBDTEntryOut
 10654  0024E8  24F3               	addwf	prodl,w,c
 10655  0024EA  6ED9               	movwf	fsr2l,c
 10656  0024EC  0E00               	movlw	high _pBDTEntryOut
 10657  0024EE  D00A               	goto	L9
 10658  0024F0                     i2l3885:
 10659                           
 10660                           ; BSR set to: 4
 10661                           ;usb_device.c: 2185: else
 10662                           ;usb_device.c: 2186: {
 10663                           ;usb_device.c: 2187: p = (BDT_ENTRY*)pBDTEntryIn[SetupPkt.EPNum];
 10664  0024F0  0104               	movlb	4	; () banked
 10665  0024F2  5124               	movf	36,w,b	;volatile
 10666  0024F4  0B0F               	andlw	15
 10667  0024F6  6E2B               	movwf	??_USBStdGetStatusHandler& (0+255),c
 10668  0024F8  502B               	movf	??_USBStdGetStatusHandler,w,c
 10669  0024FA  0D02               	mullw	2
 10670  0024FC  0E09               	movlw	low _pBDTEntryIn
 10671  0024FE  24F3               	addwf	prodl,w,c
 10672  002500  6ED9               	movwf	fsr2l,c
 10673  002502  0E00               	movlw	high _pBDTEntryIn
 10674  002504                     L9:
 10675  002504  20F4               	addwfc	prodh,w,c
 10676  002506  6EDA               	movwf	fsr2h,c
 10677  002508  CFDE F02C          	movff	postinc2,USBStdGetStatusHandler@p
 10678  00250C  CFDD F02D          	movff	postdec2,USBStdGetStatusHandler@p+1
 10679  002510  D000               	goto	i2l3887
 10680  002512                     i2l3887:
 10681                           
 10682                           ; BSR set to: 4
 10683                           ;usb_device.c: 2188: }
 10684                           ;usb_device.c: 2190: if((p->STAT.UOWN == 1) && (p->STAT.BSTALL == 1))
 10685  002512  C02C  FFD9         	movff	USBStdGetStatusHandler@p,fsr2l
 10686  002516  C02D  FFDA         	movff	USBStdGetStatusHandler@p+1,fsr2h
 10687  00251A  AEDF               	btfss	indf2,7,c
 10688  00251C  D016               	goto	i2l586
 10689                           
 10690                           ; BSR set to: 4
 10691  00251E  C02C  FFD9         	movff	USBStdGetStatusHandler@p,fsr2l
 10692  002522  C02D  FFDA         	movff	USBStdGetStatusHandler@p+1,fsr2h
 10693  002526  A4DF               	btfss	indf2,2,c
 10694  002528  D010               	goto	i2l586
 10695                           
 10696                           ; BSR set to: 4
 10697                           ;usb_device.c: 2191: CtrlTrfData[0]=0x01;
 10698  00252A  0E01               	movlw	1
 10699  00252C  0104               	movlb	4	; () banked
 10700  00252E  6F28               	movwf	40,b	;volatile
 10701                           
 10702                           ; BSR set to: 4
 10703                           ;usb_device.c: 2193: }
 10704                           ;usb_device.c: 2194: }
 10705                           
 10706                           ; BSR set to: 4
 10707                           ;usb_device.c: 2192: break;
 10708  002530  D00C               	goto	i2l586
 10709  002532                     i2l3895:
 10710                           
 10711                           ; BSR set to: 4
 10712  002532  0104               	movlb	4	; () banked
 10713  002534  5120               	movf	32,w,b	;volatile
 10714  002536  0B1F               	andlw	31
 10715                           
 10716                           ; Switch size 1, requested type "space"
 10717                           ; Number of cases is 3, Range of values is 0 to 2
 10718                           ; switch strategies available:
 10719                           ; Name         Instructions Cycles
 10720                           ; simple_byte           10     6 (average)
 10721                           ;	Chosen strategy is simple_byte
 10722  002538  0A00               	xorlw	0	; case 0
 10723  00253A  B4D8               	btfsc	status,2,c
 10724  00253C  D7BD               	goto	i2l583
 10725  00253E  0A01               	xorlw	1	; case 1
 10726  002540  B4D8               	btfsc	status,2,c
 10727  002542  D7C5               	goto	i2l587
 10728  002544  0A03               	xorlw	3	; case 2
 10729  002546  B4D8               	btfsc	status,2,c
 10730  002548  D7C4               	goto	i2l588
 10731  00254A                     i2l586:
 10732                           
 10733                           ; BSR set to: 4
 10734                           ;usb_device.c: 2196: if(inPipes[0].info.bits.busy == 1)
 10735  00254A  AE25               	btfss	_inPipes+3,7,c	;volatile
 10736  00254C  0012               	return	
 10737                           
 10738                           ; BSR set to: 4
 10739                           ;usb_device.c: 2197: {
 10740                           ;usb_device.c: 2198: inPipes[0].pSrc.bRam = (uint8_t*)&CtrlTrfData;
 10741  00254E  0E28               	movlw	40
 10742  002550  6E22               	movwf	_inPipes,c	;volatile
 10743  002552  0E04               	movlw	4
 10744  002554  6E23               	movwf	_inPipes+1,c	;volatile
 10745                           
 10746                           ; BSR set to: 4
 10747                           ;usb_device.c: 2199: inPipes[0].info.bits.ctrl_trf_mem = 0x01;
 10748  002556  8025               	bsf	_inPipes+3,0,c	;volatile
 10749                           
 10750                           ; BSR set to: 4
 10751                           ;usb_device.c: 2200: inPipes[0].wCount.v[0] = 2;
 10752  002558  0E02               	movlw	2
 10753  00255A  6E26               	movwf	_inPipes+4,c	;volatile
 10754  00255C  0012               	return	
 10755                           
 10756                           ; BSR set to: 4
 10757                           
 10758                           ; BSR set to: 4
 10759  00255E  0012               	return		;funcret
 10760  002560                     __end_of_USBStdGetStatusHandler:
 10761                           	opt stack 0
 10762                           pclatu	equ	0xFFB
 10763                           pclath	equ	0xFFA
 10764                           tblptru	equ	0xFF8
 10765                           tblptrh	equ	0xFF7
 10766                           tblptrl	equ	0xFF6
 10767                           tablat	equ	0xFF5
 10768                           prodh	equ	0xFF4
 10769                           prodl	equ	0xFF3
 10770                           intcon	equ	0xFF2
 10771                           postinc0	equ	0xFEE
 10772                           fsr0h	equ	0xFEA
 10773                           fsr0l	equ	0xFE9
 10774                           wreg	equ	0xFE8
 10775                           indf1	equ	0xFE7
 10776                           fsr1h	equ	0xFE2
 10777                           fsr1l	equ	0xFE1
 10778                           indf2	equ	0xFDF
 10779                           postinc2	equ	0xFDE
 10780                           postdec2	equ	0xFDD
 10781                           plusw2	equ	0xFDB
 10782                           fsr2h	equ	0xFDA
 10783                           fsr2l	equ	0xFD9
 10784                           status	equ	0xFD8
 10785                           
 10786 ;; *************** function _USBStdGetDscHandler *****************
 10787 ;; Defined at:
 10788 ;;		line 2061 in file "../../../../../../microchip/mla/v2015_08_10/framework/usb/src/usb_device.c"
 10789 ;; Parameters:    Size  Location     Type
 10790 ;;		None
 10791 ;; Auto vars:     Size  Location     Type
 10792 ;;		None
 10793 ;; Return value:  Size  Location     Type
 10794 ;;		None               void
 10795 ;; Registers used:
 10796 ;;		wreg, fsr1l, fsr1h, status,2, status,0, tblptrl, tblptrh, tblptru, prodl, prodh
 10797 ;; Tracked objects:
 10798 ;;		On entry : 0/0
 10799 ;;		On exit  : 0/0
 10800 ;;		Unchanged: 0/0
 10801 ;; Data sizes:     COMRAM   BANK0   BANK1   BANK2   BANK3   BANK4   BANK5   BANK6   BANK7
 10802 ;;      Params:         0       0       0       0       0       0       0       0       0
 10803 ;;      Locals:         0       0       0       0       0       0       0       0       0
 10804 ;;      Temps:          2       0       0       0       0       0       0       0       0
 10805 ;;      Totals:         2       0       0       0       0       0       0       0       0
 10806 ;;Total ram usage:        2 bytes
 10807 ;; Hardware stack levels used:    1
 10808 ;; This function calls:
 10809 ;;		Nothing
 10810 ;; This function is called by:
 10811 ;;		_USBCheckStdRequest
 10812 ;; This function uses a non-reentrant model
 10813 ;;
 10814                           
 10815                           	psect	text53
 10816  0016EC                     __ptext53:
 10817                           	opt stack 0
 10818  0016EC                     _USBStdGetDscHandler:
 10819                           	opt stack 19
 10820                           
 10821                           ;usb_device.c: 2063: if(SetupPkt.bmRequestType == 0x80)
 10822                           
 10823                           ; BSR set to: 4
 10824                           ;incstack = 0
 10825  0016EC  0E80               	movlw	128
 10826  0016EE  0104               	movlb	4	; () banked
 10827  0016F0  1920               	xorwf	32,w,b	;volatile
 10828  0016F2  A4D8               	btfss	status,2,c
 10829  0016F4  0012               	return	
 10830                           
 10831                           ; BSR set to: 4
 10832                           ;usb_device.c: 2064: {
 10833                           ;usb_device.c: 2065: inPipes[0].info.Val = 0x00 | 0x80 | 0x40;
 10834  0016F6  0EC0               	movlw	192
 10835  0016F8  6E25               	movwf	_inPipes+3,c	;volatile
 10836                           
 10837                           ;usb_device.c: 2067: switch(SetupPkt.bDescriptorType)
 10838  0016FA  D07C               	goto	i2l3873
 10839  0016FC                     i2l3847:
 10840                           
 10841                           ; BSR set to: 4
 10842                           ;usb_device.c: 2073: inPipes[0].pSrc.bRom = (const uint8_t*)&device_dsc;
 10843  0016FC  0EE8               	movlw	low _device_dsc
 10844  0016FE  6E22               	movwf	_inPipes,c	;volatile
 10845  001700  0E7F               	movlw	high _device_dsc
 10846  001702  6E23               	movwf	_inPipes+1,c	;volatile
 10847                           
 10848                           ; BSR set to: 4
 10849                           ;usb_device.c: 2075: inPipes[0].wCount.Val = sizeof(device_dsc);
 10850  001704  0E00               	movlw	0
 10851  001706  6E27               	movwf	_inPipes+5,c	;volatile
 10852  001708  0E12               	movlw	18
 10853  00170A  6E26               	movwf	_inPipes+4,c	;volatile
 10854                           
 10855                           ;usb_device.c: 2076: break;
 10856  00170C  0012               	return	
 10857  00170E                     i2l3851:
 10858                           
 10859                           ; BSR set to: 4
 10860                           ;usb_device.c: 2081: if(SetupPkt.bDscIndex < 1)
 10861  00170E  0104               	movlb	4	; () banked
 10862  001710  5122               	movf	34,w,b	;volatile
 10863  001712  A4D8               	btfss	status,2,c
 10864  001714  D03E               	goto	i2l3859
 10865                           
 10866                           ; BSR set to: 4
 10867                           ;usb_device.c: 2082: {
 10868                           ;usb_device.c: 2086: inPipes[0].pSrc.bRom = *(USB_CD_Ptr+SetupPkt.bDscIndex);
 10869  001716  0104               	movlb	4	; () banked
 10870  001718  5122               	movf	34,w,b	;volatile
 10871  00171A  0D02               	mullw	2
 10872  00171C  0E05               	movlw	low _USB_CD_Ptr
 10873  00171E  24F3               	addwf	prodl,w,c
 10874  001720  6EF6               	movwf	tblptrl,c
 10875  001722  0E7F               	movlw	high _USB_CD_Ptr
 10876  001724  20F4               	addwfc	prodh,w,c
 10877  001726  6EF7               	movwf	tblptrh,c
 10878  001728                     	if	0	;There are less than 3 active tblptr bytes
 10879  001728                     	endif
 10880  001728  0009               	tblrd		*+
 10881  00172A  CFF5 F022          	movff	tablat,_inPipes	;volatile
 10882  00172E  000A               	tblrd		*-
 10883  001730  CFF5 F023          	movff	tablat,_inPipes+1	;volatile
 10884                           
 10885                           ; BSR set to: 4
 10886                           ;usb_device.c: 2092: inPipes[0].wCount.byte.LB = *(inPipes[0].pSrc.bRom+2);
 10887  001734  0E02               	movlw	2
 10888  001736  2422               	addwf	_inPipes,w,c	;volatile
 10889  001738  6E2B               	movwf	??_USBStdGetDscHandler& (0+255),c
 10890  00173A  0E00               	movlw	0
 10891  00173C  2023               	addwfc	_inPipes+1,w,c	;volatile
 10892  00173E  6E2C               	movwf	(??_USBStdGetDscHandler+1)& (0+255),c
 10893  001740  C02B  FFF6         	movff	??_USBStdGetDscHandler,tblptrl
 10894  001744  C02C  FFF7         	movff	??_USBStdGetDscHandler+1,tblptrh
 10895  001748  6AF8               	clrf	tblptru,c
 10896  00174A  0E07               	movlw	(high __ramtop+-1)
 10897  00174C  64F7               	cpfsgt	tblptrh,c
 10898  00174E  D003               	bra	i2u298_47
 10899  001750  0008               	tblrd		*
 10900  001752  50F5               	movf	tablat,w,c
 10901  001754  D005               	bra	i2u298_40
 10902  001756                     i2u298_47:
 10903  001756  CFF6 FFE1          	movff	tblptrl,fsr1l
 10904  00175A  CFF7 FFE2          	movff	tblptrh,fsr1h
 10905  00175E  50E7               	movf	indf1,w,c
 10906  001760                     i2u298_40:
 10907  001760  6E26               	movwf	_inPipes+4,c	;volatile
 10908                           
 10909                           ;usb_device.c: 2093: inPipes[0].wCount.byte.HB = *(inPipes[0].pSrc.bRom+3);
 10910  001762  0E03               	movlw	3
 10911  001764  2422               	addwf	_inPipes,w,c	;volatile
 10912  001766  6E2B               	movwf	??_USBStdGetDscHandler& (0+255),c
 10913  001768  0E00               	movlw	0
 10914  00176A  2023               	addwfc	_inPipes+1,w,c	;volatile
 10915  00176C  6E2C               	movwf	(??_USBStdGetDscHandler+1)& (0+255),c
 10916  00176E  C02B  FFF6         	movff	??_USBStdGetDscHandler,tblptrl
 10917  001772  C02C  FFF7         	movff	??_USBStdGetDscHandler+1,tblptrh
 10918  001776  6AF8               	clrf	tblptru,c
 10919  001778  0E07               	movlw	(high __ramtop+-1)
 10920  00177A  64F7               	cpfsgt	tblptrh,c
 10921  00177C  D003               	bra	i2u299_47
 10922  00177E  0008               	tblrd		*
 10923  001780  50F5               	movf	tablat,w,c
 10924  001782  D005               	bra	i2u299_40
 10925  001784                     i2u299_47:
 10926  001784  CFF6 FFE1          	movff	tblptrl,fsr1l
 10927  001788  CFF7 FFE2          	movff	tblptrh,fsr1h
 10928  00178C  50E7               	movf	indf1,w,c
 10929  00178E                     i2u299_40:
 10930  00178E  6E27               	movwf	_inPipes+5,c	;volatile
 10931                           
 10932                           ;usb_device.c: 2094: }
 10933  001790  0012               	return	
 10934  001792                     i2l3859:
 10935                           
 10936                           ;usb_device.c: 2095: else
 10937                           ;usb_device.c: 2096: {
 10938                           ;usb_device.c: 2097: inPipes[0].info.Val = 0;
 10939  001792  0E00               	movlw	0
 10940  001794  6E25               	movwf	_inPipes+3,c	;volatile
 10941                           
 10942                           ;usb_device.c: 2098: }
 10943                           ;usb_device.c: 2099: break;
 10944  001796  0012               	return	
 10945  001798                     i2l3861:
 10946                           
 10947                           ;usb_device.c: 2104: if(SetupPkt.bDscIndex<3)
 10948  001798  0E03               	movlw	3
 10949  00179A  0104               	movlb	4	; () banked
 10950  00179C  6122               	cpfslt	34,b	;volatile
 10951  00179E  D024               	goto	i2l3867
 10952                           
 10953                           ; BSR set to: 4
 10954                           ;usb_device.c: 2105: {
 10955                           ;usb_device.c: 2107: inPipes[0].pSrc.bRom = *(USB_SD_Ptr+SetupPkt.bDscIndex);
 10956  0017A0  0104               	movlb	4	; () banked
 10957  0017A2  5122               	movf	34,w,b	;volatile
 10958  0017A4  0D02               	mullw	2
 10959  0017A6  0EFF               	movlw	low _USB_SD_Ptr
 10960  0017A8  24F3               	addwf	prodl,w,c
 10961  0017AA  6EF6               	movwf	tblptrl,c
 10962  0017AC  0E7E               	movlw	high _USB_SD_Ptr
 10963  0017AE  20F4               	addwfc	prodh,w,c
 10964  0017B0  6EF7               	movwf	tblptrh,c
 10965  0017B2                     	if	0	;There are less than 3 active tblptr bytes
 10966  0017B2                     	endif
 10967  0017B2  0009               	tblrd		*+
 10968  0017B4  CFF5 F022          	movff	tablat,_inPipes	;volatile
 10969  0017B8  000A               	tblrd		*-
 10970  0017BA  CFF5 F023          	movff	tablat,_inPipes+1	;volatile
 10971                           
 10972                           ; BSR set to: 4
 10973                           ;usb_device.c: 2109: inPipes[0].wCount.Val = *inPipes[0].pSrc.bRom;
 10974  0017BE  C022  FFF6         	movff	_inPipes,tblptrl	;volatile
 10975  0017C2  C023  FFF7         	movff	_inPipes+1,tblptrh	;volatile
 10976  0017C6  6AF8               	clrf	tblptru,c
 10977  0017C8  0E07               	movlw	(high __ramtop+-1)
 10978  0017CA  64F7               	cpfsgt	tblptrh,c
 10979  0017CC  D003               	bra	i2u301_47
 10980  0017CE  0008               	tblrd		*
 10981  0017D0  50F5               	movf	tablat,w,c
 10982  0017D2  D005               	bra	i2u301_40
 10983  0017D4                     i2u301_47:
 10984  0017D4  CFF6 FFE1          	movff	tblptrl,fsr1l
 10985  0017D8  CFF7 FFE2          	movff	tblptrh,fsr1h
 10986  0017DC  50E7               	movf	indf1,w,c
 10987  0017DE                     i2u301_40:
 10988  0017DE  6E2B               	movwf	??_USBStdGetDscHandler& (0+255),c
 10989  0017E0  502B               	movf	??_USBStdGetDscHandler,w,c
 10990  0017E2  6E26               	movwf	_inPipes+4,c	;volatile
 10991  0017E4  6A27               	clrf	_inPipes+5,c	;volatile
 10992                           
 10993                           ;usb_device.c: 2110: }
 10994  0017E6  0012               	return	
 10995  0017E8                     i2l3867:
 10996                           
 10997                           ;usb_device.c: 2120: else
 10998                           ;usb_device.c: 2121: {
 10999                           ;usb_device.c: 2122: inPipes[0].info.Val = 0;
 11000  0017E8  0E00               	movlw	0
 11001  0017EA  6E25               	movwf	_inPipes+3,c	;volatile
 11002                           
 11003                           ;usb_device.c: 2123: }
 11004                           ;usb_device.c: 2124: break;
 11005  0017EC  0012               	return	
 11006  0017EE                     i2l3869:
 11007                           
 11008                           ;usb_device.c: 2126: inPipes[0].info.Val = 0;
 11009  0017EE  0E00               	movlw	0
 11010  0017F0  6E25               	movwf	_inPipes+3,c	;volatile
 11011                           
 11012                           ;usb_device.c: 2128: }
 11013                           
 11014                           ;usb_device.c: 2127: break;
 11015  0017F2  0012               	return	
 11016  0017F4                     i2l3873:
 11017  0017F4  0104               	movlb	4	; () banked
 11018  0017F6  5123               	movf	35,w,b	;volatile
 11019                           
 11020                           ; Switch size 1, requested type "space"
 11021                           ; Number of cases is 3, Range of values is 1 to 3
 11022                           ; switch strategies available:
 11023                           ; Name         Instructions Cycles
 11024                           ; simple_byte           10     6 (average)
 11025                           ;	Chosen strategy is simple_byte
 11026  0017F8  0A01               	xorlw	1	; case 1
 11027  0017FA  B4D8               	btfsc	status,2,c
 11028  0017FC  D77F               	goto	i2l3847
 11029  0017FE  0A03               	xorlw	3	; case 2
 11030  001800  B4D8               	btfsc	status,2,c
 11031  001802  D785               	goto	i2l3851
 11032  001804  0A01               	xorlw	1	; case 3
 11033  001806  B4D8               	btfsc	status,2,c
 11034  001808  D7C7               	goto	i2l3861
 11035  00180A  D7F1               	goto	i2l3869
 11036                           
 11037                           ; BSR set to: 4
 11038  00180C  0012               	return	
 11039                           
 11040                           ; BSR set to: 4
 11041  00180E  0012               	return		;funcret
 11042  001810                     __end_of_USBStdGetDscHandler:
 11043                           	opt stack 0
 11044                           pclatu	equ	0xFFB
 11045                           pclath	equ	0xFFA
 11046                           tblptru	equ	0xFF8
 11047                           tblptrh	equ	0xFF7
 11048                           tblptrl	equ	0xFF6
 11049                           tablat	equ	0xFF5
 11050                           prodh	equ	0xFF4
 11051                           prodl	equ	0xFF3
 11052                           intcon	equ	0xFF2
 11053                           postinc0	equ	0xFEE
 11054                           fsr0h	equ	0xFEA
 11055                           fsr0l	equ	0xFE9
 11056                           wreg	equ	0xFE8
 11057                           indf1	equ	0xFE7
 11058                           fsr1h	equ	0xFE2
 11059                           fsr1l	equ	0xFE1
 11060                           indf2	equ	0xFDF
 11061                           postinc2	equ	0xFDE
 11062                           postdec2	equ	0xFDD
 11063                           plusw2	equ	0xFDB
 11064                           fsr2h	equ	0xFDA
 11065                           fsr2l	equ	0xFD9
 11066                           status	equ	0xFD8
 11067                           
 11068 ;; *************** function _USBStdFeatureReqHandler *****************
 11069 ;; Defined at:
 11070 ;;		line 2771 in file "../../../../../../microchip/mla/v2015_08_10/framework/usb/src/usb_device.c"
 11071 ;; Parameters:    Size  Location     Type
 11072 ;;		None
 11073 ;; Auto vars:     Size  Location     Type
 11074 ;;  p               2   24[COMRAM] PTR struct __BDT
 11075 ;;		 -> BDT(32), NULL(0), 
 11076 ;;  pUEP            2   21[COMRAM] PTR unsigned char 
 11077 ;;		 -> UEP0(1), 
 11078 ;;  current_ep_d    1   23[COMRAM] struct .
 11079 ;; Return value:  Size  Location     Type
 11080 ;;		None               void
 11081 ;; Registers used:
 11082 ;;		wreg, fsr2l, fsr2h, status,2, status,0, prodl, prodh, cstack
 11083 ;; Tracked objects:
 11084 ;;		On entry : 0/0
 11085 ;;		On exit  : 0/0
 11086 ;;		Unchanged: 0/0
 11087 ;; Data sizes:     COMRAM   BANK0   BANK1   BANK2   BANK3   BANK4   BANK5   BANK6   BANK7
 11088 ;;      Params:         0       0       0       0       0       0       0       0       0
 11089 ;;      Locals:         5       0       0       0       0       0       0       0       0
 11090 ;;      Temps:          1       0       0       0       0       0       0       0       0
 11091 ;;      Totals:         6       0       0       0       0       0       0       0       0
 11092 ;;Total ram usage:        6 bytes
 11093 ;; Hardware stack levels used:    1
 11094 ;; Hardware stack levels required when called:    4
 11095 ;; This function calls:
 11096 ;;		_USER_USB_CALLBACK_EVENT_HANDLER
 11097 ;; This function is called by:
 11098 ;;		_USBCheckStdRequest
 11099 ;; This function uses a non-reentrant model
 11100 ;;
 11101                           
 11102                           	psect	text54
 11103  000372                     __ptext54:
 11104                           	opt stack 0
 11105  000372                     _USBStdFeatureReqHandler:
 11106                           	opt stack 15
 11107                           
 11108                           ;usb_device.c: 2773: BDT_ENTRY *p;
 11109                           ;usb_device.c: 2774: EP_STATUS current_ep_data;
 11110                           ;usb_device.c: 2778: unsigned char* pUEP;
 11111                           ;usb_device.c: 2816: if((SetupPkt.bFeature == 1)&&
 11112                           ;usb_device.c: 2817: (SetupPkt.Recipient == (0x00)))
 11113                           
 11114                           ;incstack = 0
 11115  000372  0104               	movlb	4	; () banked
 11116  000374  0522               	decf	34,w,b	;volatile
 11117  000376  A4D8               	btfss	status,2,c
 11118  000378  D011               	goto	i2l660
 11119                           
 11120                           ; BSR set to: 4
 11121  00037A  0104               	movlb	4	; () banked
 11122  00037C  5120               	movf	32,w,b	;volatile
 11123  00037E  0B1F               	andlw	31
 11124  000380  0900               	iorlw	0
 11125  000382  A4D8               	btfss	status,2,c
 11126  000384  D00B               	goto	i2l660
 11127                           
 11128                           ; BSR set to: 4
 11129                           ;usb_device.c: 2818: {
 11130                           ;usb_device.c: 2819: inPipes[0].info.bits.busy = 1;
 11131  000386  8E25               	bsf	_inPipes+3,7,c	;volatile
 11132                           
 11133                           ; BSR set to: 4
 11134                           ;usb_device.c: 2820: if(SetupPkt.bRequest == 3)
 11135  000388  0E03               	movlw	3
 11136  00038A  0104               	movlb	4	; () banked
 11137  00038C  1921               	xorwf	33,w,b	;volatile
 11138  00038E  A4D8               	btfss	status,2,c
 11139  000390  D002               	goto	i2l3913
 11140                           
 11141                           ; BSR set to: 4
 11142                           ;usb_device.c: 2821: RemoteWakeup = 1;
 11143  000392  0E01               	movlw	1
 11144  000394  D001               	goto	L10
 11145  000396                     i2l3913:
 11146                           
 11147                           ; BSR set to: 4
 11148                           ;usb_device.c: 2822: else
 11149                           ;usb_device.c: 2823: RemoteWakeup = 0;
 11150  000396  0E00               	movlw	0
 11151  000398                     L10:
 11152  000398  6E18               	movwf	_RemoteWakeup,c	;volatile
 11153  00039A  D000               	goto	i2l660
 11154  00039C                     i2l660:
 11155                           
 11156                           ; BSR set to: 4
 11157                           ;usb_device.c: 2824: }
 11158                           ;usb_device.c: 2827: if((SetupPkt.bFeature == 0)&&
 11159                           ;usb_device.c: 2828: (SetupPkt.Recipient == (0x02))&&
 11160                           ;usb_device.c: 2829: (SetupPkt.EPNum != 0) && (SetupPkt.EPNum <= 1)&&
 11161                           ;usb_device.c: 2830: (USBDeviceState == CONFIGURED_STATE))
 11162  00039C  0104               	movlb	4	; () banked
 11163  00039E  5122               	movf	34,w,b	;volatile
 11164  0003A0  A4D8               	btfss	status,2,c
 11165  0003A2  0012               	return	
 11166                           
 11167                           ; BSR set to: 4
 11168  0003A4  0104               	movlb	4	; () banked
 11169  0003A6  5120               	movf	32,w,b	;volatile
 11170  0003A8  0B1F               	andlw	31
 11171  0003AA  0A02               	xorlw	2
 11172  0003AC  A4D8               	btfss	status,2,c
 11173  0003AE  0012               	return	
 11174                           
 11175                           ; BSR set to: 4
 11176  0003B0  0104               	movlb	4	; () banked
 11177  0003B2  5124               	movf	36,w,b	;volatile
 11178  0003B4  0B0F               	andlw	15
 11179  0003B6  0900               	iorlw	0
 11180  0003B8  B4D8               	btfsc	status,2,c
 11181  0003BA  0012               	return	
 11182                           
 11183                           ; BSR set to: 4
 11184  0003BC  0104               	movlb	4	; () banked
 11185  0003BE  5124               	movf	36,w,b	;volatile
 11186  0003C0  0B0F               	andlw	15
 11187  0003C2  6E3F               	movwf	??_USBStdFeatureReqHandler& (0+255),c
 11188  0003C4  0E02               	movlw	2
 11189  0003C6  603F               	cpfslt	??_USBStdFeatureReqHandler,c
 11190  0003C8  0012               	return	
 11191                           
 11192                           ; BSR set to: 4
 11193  0003CA  0E20               	movlw	32
 11194  0003CC  181B               	xorwf	_USBDeviceState,w,c	;volatile
 11195  0003CE  A4D8               	btfss	status,2,c
 11196  0003D0  0012               	return	
 11197                           
 11198                           ; BSR set to: 4
 11199                           ;usb_device.c: 2831: {
 11200                           ;usb_device.c: 2834: inPipes[0].info.bits.busy = 1;
 11201  0003D2  8E25               	bsf	_inPipes+3,7,c	;volatile
 11202                           
 11203                           ;usb_device.c: 2837: if(SetupPkt.EPDir == 0)
 11204  0003D4  0104               	movlb	4	; () banked
 11205  0003D6  BF24               	btfsc	36,7,b	;volatile
 11206  0003D8  D01B               	goto	i2l3927
 11207                           
 11208                           ; BSR set to: 4
 11209                           ;usb_device.c: 2838: {
 11210                           ;usb_device.c: 2839: p = (BDT_ENTRY*)pBDTEntryOut[SetupPkt.EPNum];
 11211  0003DA  0104               	movlb	4	; () banked
 11212  0003DC  5124               	movf	36,w,b	;volatile
 11213  0003DE  0B0F               	andlw	15
 11214  0003E0  6E3F               	movwf	??_USBStdFeatureReqHandler& (0+255),c
 11215  0003E2  503F               	movf	??_USBStdFeatureReqHandler,w,c
 11216  0003E4  0D02               	mullw	2
 11217  0003E6  0EE6               	movlw	low _pBDTEntryOut
 11218  0003E8  24F3               	addwf	prodl,w,c
 11219  0003EA  6ED9               	movwf	fsr2l,c
 11220  0003EC  0E00               	movlw	high _pBDTEntryOut
 11221  0003EE  20F4               	addwfc	prodh,w,c
 11222  0003F0  6EDA               	movwf	fsr2h,c
 11223  0003F2  CFDE F043          	movff	postinc2,USBStdFeatureReqHandler@p
 11224  0003F6  CFDD F044          	movff	postdec2,USBStdFeatureReqHandler@p+1
 11225                           
 11226                           ;usb_device.c: 2840: current_ep_data.Val = ep_data_out[SetupPkt.EPNum].Val;
 11227  0003FA  0104               	movlb	4	; () banked
 11228  0003FC  5124               	movf	36,w,b	;volatile
 11229  0003FE  0B0F               	andlw	15
 11230  000400  6E3F               	movwf	??_USBStdFeatureReqHandler& (0+255),c
 11231  000402  503F               	movf	??_USBStdFeatureReqHandler,w,c
 11232  000404  0D01               	mullw	1
 11233  000406  0E11               	movlw	low _ep_data_out
 11234  000408  24F3               	addwf	prodl,w,c
 11235  00040A  6ED9               	movwf	fsr2l,c
 11236  00040C  0E00               	movlw	high _ep_data_out
 11237  00040E  D01A               	goto	L11
 11238  000410                     i2l3927:
 11239                           
 11240                           ; BSR set to: 4
 11241                           ;usb_device.c: 2842: else
 11242                           ;usb_device.c: 2843: {
 11243                           ;usb_device.c: 2844: p = (BDT_ENTRY*)pBDTEntryIn[SetupPkt.EPNum];
 11244  000410  0104               	movlb	4	; () banked
 11245  000412  5124               	movf	36,w,b	;volatile
 11246  000414  0B0F               	andlw	15
 11247  000416  6E3F               	movwf	??_USBStdFeatureReqHandler& (0+255),c
 11248  000418  503F               	movf	??_USBStdFeatureReqHandler,w,c
 11249  00041A  0D02               	mullw	2
 11250  00041C  0E09               	movlw	low _pBDTEntryIn
 11251  00041E  24F3               	addwf	prodl,w,c
 11252  000420  6ED9               	movwf	fsr2l,c
 11253  000422  0E00               	movlw	high _pBDTEntryIn
 11254  000424  20F4               	addwfc	prodh,w,c
 11255  000426  6EDA               	movwf	fsr2h,c
 11256  000428  CFDE F043          	movff	postinc2,USBStdFeatureReqHandler@p
 11257  00042C  CFDD F044          	movff	postdec2,USBStdFeatureReqHandler@p+1
 11258                           
 11259                           ;usb_device.c: 2845: current_ep_data.Val = ep_data_in[SetupPkt.EPNum].Val;
 11260  000430  0104               	movlb	4	; () banked
 11261  000432  5124               	movf	36,w,b	;volatile
 11262  000434  0B0F               	andlw	15
 11263  000436  6E3F               	movwf	??_USBStdFeatureReqHandler& (0+255),c
 11264  000438  503F               	movf	??_USBStdFeatureReqHandler,w,c
 11265  00043A  0D01               	mullw	1
 11266  00043C  0E0F               	movlw	low _ep_data_in
 11267  00043E  24F3               	addwf	prodl,w,c
 11268  000440  6ED9               	movwf	fsr2l,c
 11269  000442  0E00               	movlw	high _ep_data_in
 11270  000444                     L11:
 11271  000444  20F4               	addwfc	prodh,w,c
 11272  000446  6EDA               	movwf	fsr2h,c
 11273  000448  50DF               	movf	indf2,w,c
 11274  00044A  6E42               	movwf	USBStdFeatureReqHandler@current_ep_data,c
 11275  00044C  D000               	goto	i2l3929
 11276  00044E                     i2l3929:
 11277                           
 11278                           ; BSR set to: 4
 11279                           ;usb_device.c: 2846: }
 11280                           ;usb_device.c: 2852: if(current_ep_data.bits.ping_pong_state == 0)
 11281  00044E  B042               	btfsc	USBStdFeatureReqHandler@current_ep_data,0,c
 11282  000450  D002               	goto	i2l3933
 11283                           
 11284                           ; BSR set to: 4
 11285                           ;usb_device.c: 2853: {
 11286                           ;usb_device.c: 2854: {((uint8_t_VAL*)&p)->Val &= ~0x0004;};
 11287  000452  9443               	bcf	USBStdFeatureReqHandler@p,2,c
 11288                           
 11289                           ;usb_device.c: 2855: }
 11290  000454  D002               	goto	i2l3935
 11291  000456                     i2l3933:
 11292                           
 11293                           ; BSR set to: 4
 11294                           ;usb_device.c: 2856: else
 11295                           ;usb_device.c: 2857: {
 11296                           ;usb_device.c: 2858: {((uint8_t_VAL*)&p)->Val |= 0x0004;};
 11297  000456  8443               	bsf	USBStdFeatureReqHandler@p,2,c
 11298  000458  D000               	goto	i2l3935
 11299  00045A                     i2l3935:
 11300                           
 11301                           ; BSR set to: 4
 11302                           ;usb_device.c: 2859: }
 11303                           ;usb_device.c: 2864: if(SetupPkt.EPDir == 0)
 11304  00045A  0104               	movlb	4	; () banked
 11305  00045C  BF24               	btfsc	36,7,b	;volatile
 11306  00045E  D00B               	goto	i2l3939
 11307                           
 11308                           ; BSR set to: 4
 11309                           ;usb_device.c: 2865: {
 11310                           ;usb_device.c: 2866: pBDTEntryOut[SetupPkt.EPNum] = (volatile BDT_ENTRY *)p;
 11311  000460  0104               	movlb	4	; () banked
 11312  000462  5124               	movf	36,w,b	;volatile
 11313  000464  0B0F               	andlw	15
 11314  000466  6E3F               	movwf	??_USBStdFeatureReqHandler& (0+255),c
 11315  000468  503F               	movf	??_USBStdFeatureReqHandler,w,c
 11316  00046A  0D02               	mullw	2
 11317  00046C  0EE6               	movlw	low _pBDTEntryOut
 11318  00046E  24F3               	addwf	prodl,w,c
 11319  000470  6ED9               	movwf	fsr2l,c
 11320  000472  0E00               	movlw	high _pBDTEntryOut
 11321  000474  D00A               	goto	L12
 11322  000476                     i2l3939:
 11323                           
 11324                           ; BSR set to: 4
 11325                           ;usb_device.c: 2868: else
 11326                           ;usb_device.c: 2869: {
 11327                           ;usb_device.c: 2870: pBDTEntryIn[SetupPkt.EPNum] = (volatile BDT_ENTRY *)p;
 11328  000476  0104               	movlb	4	; () banked
 11329  000478  5124               	movf	36,w,b	;volatile
 11330  00047A  0B0F               	andlw	15
 11331  00047C  6E3F               	movwf	??_USBStdFeatureReqHandler& (0+255),c
 11332  00047E  503F               	movf	??_USBStdFeatureReqHandler,w,c
 11333  000480  0D02               	mullw	2
 11334  000482  0E09               	movlw	low _pBDTEntryIn
 11335  000484  24F3               	addwf	prodl,w,c
 11336  000486  6ED9               	movwf	fsr2l,c
 11337  000488  0E00               	movlw	high _pBDTEntryIn
 11338  00048A                     L12:
 11339  00048A  20F4               	addwfc	prodh,w,c
 11340  00048C  6EDA               	movwf	fsr2h,c
 11341  00048E  C043  FFDE         	movff	USBStdFeatureReqHandler@p,postinc2
 11342  000492  C044  FFDD         	movff	USBStdFeatureReqHandler@p+1,postdec2
 11343  000496  D000               	goto	i2l3941
 11344  000498                     i2l3941:
 11345                           
 11346                           ; BSR set to: 4
 11347                           ;usb_device.c: 2871: }
 11348                           ;usb_device.c: 2874: if(SetupPkt.bRequest == 3)
 11349  000498  0E03               	movlw	3
 11350  00049A  0104               	movlb	4	; () banked
 11351  00049C  1921               	xorwf	33,w,b	;volatile
 11352  00049E  A4D8               	btfss	status,2,c
 11353  0004A0  D02F               	goto	i2l3955
 11354                           
 11355                           ; BSR set to: 4
 11356                           ;usb_device.c: 2875: {
 11357                           ;usb_device.c: 2876: if(p->STAT.UOWN == 1)
 11358  0004A2  C043  FFD9         	movff	USBStdFeatureReqHandler@p,fsr2l
 11359  0004A6  C044  FFDA         	movff	USBStdFeatureReqHandler@p+1,fsr2h
 11360  0004AA  AEDF               	btfss	indf2,7,c
 11361  0004AC  D01C               	goto	i2l3951
 11362                           
 11363                           ; BSR set to: 4
 11364                           ;usb_device.c: 2877: {
 11365                           ;usb_device.c: 2880: if(SetupPkt.EPDir == 0)
 11366  0004AE  0104               	movlb	4	; () banked
 11367  0004B0  BF24               	btfsc	36,7,b	;volatile
 11368  0004B2  D00B               	goto	i2l3949
 11369                           
 11370                           ; BSR set to: 4
 11371                           ;usb_device.c: 2881: {
 11372                           ;usb_device.c: 2882: ep_data_out[SetupPkt.EPNum].bits.transfer_terminated = 1;
 11373  0004B4  0104               	movlb	4	; () banked
 11374  0004B6  5124               	movf	36,w,b	;volatile
 11375  0004B8  0B0F               	andlw	15
 11376  0004BA  6E3F               	movwf	??_USBStdFeatureReqHandler& (0+255),c
 11377  0004BC  503F               	movf	??_USBStdFeatureReqHandler,w,c
 11378  0004BE  0D01               	mullw	1
 11379  0004C0  0E11               	movlw	low _ep_data_out
 11380  0004C2  24F3               	addwf	prodl,w,c
 11381  0004C4  6ED9               	movwf	fsr2l,c
 11382  0004C6  0E00               	movlw	high _ep_data_out
 11383  0004C8  D00A               	goto	L13
 11384  0004CA                     i2l3949:
 11385                           
 11386                           ; BSR set to: 4
 11387                           ;usb_device.c: 2884: else
 11388                           ;usb_device.c: 2885: {
 11389                           ;usb_device.c: 2886: ep_data_in[SetupPkt.EPNum].bits.transfer_terminated = 1;
 11390  0004CA  0104               	movlb	4	; () banked
 11391  0004CC  5124               	movf	36,w,b	;volatile
 11392  0004CE  0B0F               	andlw	15
 11393  0004D0  6E3F               	movwf	??_USBStdFeatureReqHandler& (0+255),c
 11394  0004D2  503F               	movf	??_USBStdFeatureReqHandler,w,c
 11395  0004D4  0D01               	mullw	1
 11396  0004D6  0E0F               	movlw	low _ep_data_in
 11397  0004D8  24F3               	addwf	prodl,w,c
 11398  0004DA  6ED9               	movwf	fsr2l,c
 11399  0004DC  0E00               	movlw	high _ep_data_in
 11400  0004DE                     L13:
 11401  0004DE  20F4               	addwfc	prodh,w,c
 11402  0004E0  6EDA               	movwf	fsr2h,c
 11403  0004E2  82DF               	bsf	indf2,1,c
 11404                           
 11405                           ; BSR set to: 4
 11406  0004E4  D000               	goto	i2l3951
 11407  0004E6                     i2l3951:
 11408                           
 11409                           ; BSR set to: 4
 11410                           ;usb_device.c: 2887: }
 11411                           ;usb_device.c: 2888: }
 11412                           ;usb_device.c: 2891: p->STAT.Val |= 0x04;
 11413  0004E6  C043  FFD9         	movff	USBStdFeatureReqHandler@p,fsr2l
 11414  0004EA  C044  FFDA         	movff	USBStdFeatureReqHandler@p+1,fsr2h
 11415  0004EE  0E00               	movlw	0
 11416  0004F0  84DB               	bsf	plusw2,2,c
 11417                           
 11418                           ; BSR set to: 4
 11419                           ;usb_device.c: 2892: p->STAT.Val |= 0x80;
 11420  0004F2  C043  FFD9         	movff	USBStdFeatureReqHandler@p,fsr2l
 11421  0004F6  C044  FFDA         	movff	USBStdFeatureReqHandler@p+1,fsr2h
 11422  0004FA  0E00               	movlw	0
 11423  0004FC  8EDB               	bsf	plusw2,7,c
 11424                           
 11425                           ;usb_device.c: 2893: }
 11426  0004FE  0012               	return	
 11427  000500                     i2l3955:
 11428                           
 11429                           ; BSR set to: 4
 11430                           ;usb_device.c: 2894: else
 11431                           ;usb_device.c: 2895: {
 11432                           ;usb_device.c: 2899: {((uint8_t_VAL*)&p)->Val ^= 0x0004;};
 11433  000500  0E04               	movlw	4
 11434  000502  1A43               	xorwf	USBStdFeatureReqHandler@p,f,c
 11435                           
 11436                           ; BSR set to: 4
 11437                           ;usb_device.c: 2901: if(p->STAT.UOWN == 1)
 11438  000504  C043  FFD9         	movff	USBStdFeatureReqHandler@p,fsr2l
 11439  000508  C044  FFDA         	movff	USBStdFeatureReqHandler@p+1,fsr2h
 11440  00050C  AEDF               	btfss	indf2,7,c
 11441  00050E  D01B               	goto	i2l3965
 11442                           
 11443                           ; BSR set to: 4
 11444                           ;usb_device.c: 2902: {
 11445                           ;usb_device.c: 2905: p->STAT.Val &= (~0x80);
 11446  000510  C043  FFD9         	movff	USBStdFeatureReqHandler@p,fsr2l
 11447  000514  C044  FFDA         	movff	USBStdFeatureReqHandler@p+1,fsr2h
 11448  000518  0E7F               	movlw	127
 11449  00051A  16DF               	andwf	indf2,f,c
 11450                           
 11451                           ; BSR set to: 4
 11452                           ;usb_device.c: 2906: p->STAT.Val |= 0x40;
 11453  00051C  C043  FFD9         	movff	USBStdFeatureReqHandler@p,fsr2l
 11454  000520  C044  FFDA         	movff	USBStdFeatureReqHandler@p+1,fsr2h
 11455  000524  0E00               	movlw	0
 11456  000526  8CDB               	bsf	plusw2,6,c
 11457                           
 11458                           ; BSR set to: 4
 11459                           ;usb_device.c: 2907: USER_USB_CALLBACK_EVENT_HANDLER(EVENT_TRANSFER_TERMINATED,p,sizeof(
      +                          p));
 11460  000528  0E00               	movlw	0
 11461  00052A  6E38               	movwf	USER_USB_CALLBACK_EVENT_HANDLER@event+1,c
 11462  00052C  0E05               	movlw	5
 11463  00052E  6E37               	movwf	USER_USB_CALLBACK_EVENT_HANDLER@event,c
 11464  000530  C043  F039         	movff	USBStdFeatureReqHandler@p,USER_USB_CALLBACK_EVENT_HANDLER@pdata
 11465  000534  C044  F03A         	movff	USBStdFeatureReqHandler@p+1,USER_USB_CALLBACK_EVENT_HANDLER@pdata+1
 11466  000538  0E00               	movlw	0
 11467  00053A  6E3C               	movwf	USER_USB_CALLBACK_EVENT_HANDLER@size+1,c
 11468  00053C  0E02               	movlw	2
 11469  00053E  6E3B               	movwf	USER_USB_CALLBACK_EVENT_HANDLER@size,c
 11470  000540  EC03  F015         	call	_USER_USB_CALLBACK_EVENT_HANDLER	;wreg free
 11471                           
 11472                           ;usb_device.c: 2908: }
 11473  000544  D007               	goto	i2l3967
 11474  000546                     i2l3965:
 11475                           
 11476                           ;usb_device.c: 2909: else
 11477                           ;usb_device.c: 2910: {
 11478                           ;usb_device.c: 2912: p->STAT.Val |= 0x40;
 11479  000546  C043  FFD9         	movff	USBStdFeatureReqHandler@p,fsr2l
 11480  00054A  C044  FFDA         	movff	USBStdFeatureReqHandler@p+1,fsr2h
 11481  00054E  0E00               	movlw	0
 11482  000550  8CDB               	bsf	plusw2,6,c
 11483  000552  D000               	goto	i2l3967
 11484  000554                     i2l3967:
 11485                           
 11486                           ;usb_device.c: 2913: }
 11487                           ;usb_device.c: 2917: {((uint8_t_VAL*)&p)->Val ^= 0x0004;};
 11488  000554  0E04               	movlw	4
 11489  000556  1A43               	xorwf	USBStdFeatureReqHandler@p,f,c
 11490                           
 11491                           ;usb_device.c: 2923: if((current_ep_data.bits.transfer_terminated != 0) || (p->STAT.UOWN
      +                           == 1))
 11492  000558  B242               	btfsc	USBStdFeatureReqHandler@current_ep_data,1,c
 11493  00055A  D006               	goto	i2l679
 11494  00055C  C043  FFD9         	movff	USBStdFeatureReqHandler@p,fsr2l
 11495  000560  C044  FFDA         	movff	USBStdFeatureReqHandler@p+1,fsr2h
 11496  000564  AEDF               	btfss	indf2,7,c
 11497  000566  D031               	goto	i2l3981
 11498  000568                     i2l679:
 11499                           
 11500                           ;usb_device.c: 2924: {
 11501                           ;usb_device.c: 2925: if(SetupPkt.EPDir == 0)
 11502  000568  0104               	movlb	4	; () banked
 11503  00056A  BF24               	btfsc	36,7,b	;volatile
 11504  00056C  D00B               	goto	i2l3975
 11505                           
 11506                           ; BSR set to: 4
 11507                           ;usb_device.c: 2926: {
 11508                           ;usb_device.c: 2927: ep_data_out[SetupPkt.EPNum].bits.transfer_terminated = 0;
 11509  00056E  0104               	movlb	4	; () banked
 11510  000570  5124               	movf	36,w,b	;volatile
 11511  000572  0B0F               	andlw	15
 11512  000574  6E3F               	movwf	??_USBStdFeatureReqHandler& (0+255),c
 11513  000576  503F               	movf	??_USBStdFeatureReqHandler,w,c
 11514  000578  0D01               	mullw	1
 11515  00057A  0E11               	movlw	low _ep_data_out
 11516  00057C  24F3               	addwf	prodl,w,c
 11517  00057E  6ED9               	movwf	fsr2l,c
 11518  000580  0E00               	movlw	high _ep_data_out
 11519  000582  D00A               	goto	L14
 11520  000584                     i2l3975:
 11521                           
 11522                           ; BSR set to: 4
 11523                           ;usb_device.c: 2929: else
 11524                           ;usb_device.c: 2930: {
 11525                           ;usb_device.c: 2931: ep_data_in[SetupPkt.EPNum].bits.transfer_terminated = 0;
 11526  000584  0104               	movlb	4	; () banked
 11527  000586  5124               	movf	36,w,b	;volatile
 11528  000588  0B0F               	andlw	15
 11529  00058A  6E3F               	movwf	??_USBStdFeatureReqHandler& (0+255),c
 11530  00058C  503F               	movf	??_USBStdFeatureReqHandler,w,c
 11531  00058E  0D01               	mullw	1
 11532  000590  0E0F               	movlw	low _ep_data_in
 11533  000592  24F3               	addwf	prodl,w,c
 11534  000594  6ED9               	movwf	fsr2l,c
 11535  000596  0E00               	movlw	high _ep_data_in
 11536  000598                     L14:
 11537  000598  20F4               	addwfc	prodh,w,c
 11538  00059A  6EDA               	movwf	fsr2h,c
 11539  00059C  92DF               	bcf	indf2,1,c
 11540  00059E  D000               	goto	i2l3977
 11541  0005A0                     i2l3977:
 11542                           
 11543                           ; BSR set to: 4
 11544                           ;usb_device.c: 2932: }
 11545                           ;usb_device.c: 2934: p->STAT.Val &= ~(0x80 | 0x40 | 0x04);
 11546  0005A0  C043  FFD9         	movff	USBStdFeatureReqHandler@p,fsr2l
 11547  0005A4  C044  FFDA         	movff	USBStdFeatureReqHandler@p+1,fsr2h
 11548  0005A8  0E3B               	movlw	59
 11549  0005AA  16DF               	andwf	indf2,f,c
 11550                           
 11551                           ; BSR set to: 4
 11552                           ;usb_device.c: 2937: USER_USB_CALLBACK_EVENT_HANDLER(EVENT_TRANSFER_TERMINATED,p,sizeof(
      +                          p));
 11553  0005AC  0E00               	movlw	0
 11554  0005AE  6E38               	movwf	USER_USB_CALLBACK_EVENT_HANDLER@event+1,c
 11555  0005B0  0E05               	movlw	5
 11556  0005B2  6E37               	movwf	USER_USB_CALLBACK_EVENT_HANDLER@event,c
 11557  0005B4  C043  F039         	movff	USBStdFeatureReqHandler@p,USER_USB_CALLBACK_EVENT_HANDLER@pdata
 11558  0005B8  C044  F03A         	movff	USBStdFeatureReqHandler@p+1,USER_USB_CALLBACK_EVENT_HANDLER@pdata+1
 11559  0005BC  0E00               	movlw	0
 11560  0005BE  6E3C               	movwf	USER_USB_CALLBACK_EVENT_HANDLER@size+1,c
 11561  0005C0  0E02               	movlw	2
 11562  0005C2  6E3B               	movwf	USER_USB_CALLBACK_EVENT_HANDLER@size,c
 11563  0005C4  EC03  F015         	call	_USER_USB_CALLBACK_EVENT_HANDLER	;wreg free
 11564                           
 11565                           ;usb_device.c: 2938: }
 11566  0005C8  D007               	goto	i2l3983
 11567  0005CA                     i2l3981:
 11568                           
 11569                           ;usb_device.c: 2939: else
 11570                           ;usb_device.c: 2940: {
 11571                           ;usb_device.c: 2942: p->STAT.Val &= ~(0x80 | 0x40 | 0x04);
 11572  0005CA  C043  FFD9         	movff	USBStdFeatureReqHandler@p,fsr2l
 11573  0005CE  C044  FFDA         	movff	USBStdFeatureReqHandler@p+1,fsr2h
 11574  0005D2  0E3B               	movlw	59
 11575  0005D4  16DF               	andwf	indf2,f,c
 11576  0005D6  D000               	goto	i2l3983
 11577  0005D8                     i2l3983:
 11578                           
 11579                           ;usb_device.c: 2943: }
 11580                           ;usb_device.c: 2990: pUEP = (unsigned char*)(&UEP0+SetupPkt.EPNum);
 11581  0005D8  0104               	movlb	4	; () banked
 11582  0005DA  5124               	movf	36,w,b	;volatile
 11583  0005DC  0B0F               	andlw	15
 11584  0005DE  6E3F               	movwf	??_USBStdFeatureReqHandler& (0+255),c
 11585  0005E0  503F               	movf	??_USBStdFeatureReqHandler,w,c
 11586  0005E2  0D01               	mullw	1
 11587  0005E4  0E6A               	movlw	106
 11588  0005E6  24F3               	addwf	prodl,w,c
 11589  0005E8  6E40               	movwf	USBStdFeatureReqHandler@pUEP,c
 11590  0005EA  0E0F               	movlw	15
 11591  0005EC  20F4               	addwfc	prodh,w,c
 11592  0005EE  6E41               	movwf	USBStdFeatureReqHandler@pUEP+1,c
 11593                           
 11594                           ; BSR set to: 4
 11595                           ;usb_device.c: 2994: *pUEP &= ~0x0001;
 11596  0005F0  C040  FFD9         	movff	USBStdFeatureReqHandler@pUEP,fsr2l
 11597  0005F4  C041  FFDA         	movff	USBStdFeatureReqHandler@pUEP+1,fsr2h
 11598  0005F8  0EFE               	movlw	254
 11599  0005FA  16DF               	andwf	indf2,f,c
 11600                           
 11601                           ; BSR set to: 4
 11602  0005FC  0012               	return	
 11603                           
 11604                           ; BSR set to: 4
 11605                           
 11606                           ; BSR set to: 4
 11607  0005FE  0012               	return		;funcret
 11608  000600                     __end_of_USBStdFeatureReqHandler:
 11609                           	opt stack 0
 11610                           pclatu	equ	0xFFB
 11611                           pclath	equ	0xFFA
 11612                           tblptru	equ	0xFF8
 11613                           tblptrh	equ	0xFF7
 11614                           tblptrl	equ	0xFF6
 11615                           tablat	equ	0xFF5
 11616                           prodh	equ	0xFF4
 11617                           prodl	equ	0xFF3
 11618                           intcon	equ	0xFF2
 11619                           postinc0	equ	0xFEE
 11620                           fsr0h	equ	0xFEA
 11621                           fsr0l	equ	0xFE9
 11622                           wreg	equ	0xFE8
 11623                           indf1	equ	0xFE7
 11624                           fsr1h	equ	0xFE2
 11625                           fsr1l	equ	0xFE1
 11626                           indf2	equ	0xFDF
 11627                           postinc2	equ	0xFDE
 11628                           postdec2	equ	0xFDD
 11629                           plusw2	equ	0xFDB
 11630                           fsr2h	equ	0xFDA
 11631                           fsr2l	equ	0xFD9
 11632                           status	equ	0xFD8
 11633                           
 11634 ;; *************** function _USER_USB_CALLBACK_EVENT_HANDLER *****************
 11635 ;; Defined at:
 11636 ;;		line 109 in file "../src/main.c"
 11637 ;; Parameters:    Size  Location     Type
 11638 ;;  event           2   12[COMRAM] enum E6925
 11639 ;;  pdata           2   14[COMRAM] PTR void 
 11640 ;;		 -> USTATcopy(1), USBActiveConfiguration(1), BDT(32), NULL(0), 
 11641 ;;  size            2   16[COMRAM] unsigned int 
 11642 ;; Auto vars:     Size  Location     Type
 11643 ;;		None
 11644 ;; Return value:  Size  Location     Type
 11645 ;;                  1    wreg      unsigned char 
 11646 ;; Registers used:
 11647 ;;		wreg, fsr2l, fsr2h, status,2, status,0, prodl, prodh, cstack
 11648 ;; Tracked objects:
 11649 ;;		On entry : 0/0
 11650 ;;		On exit  : 0/0
 11651 ;;		Unchanged: 0/0
 11652 ;; Data sizes:     COMRAM   BANK0   BANK1   BANK2   BANK3   BANK4   BANK5   BANK6   BANK7
 11653 ;;      Params:         6       0       0       0       0       0       0       0       0
 11654 ;;      Locals:         0       0       0       0       0       0       0       0       0
 11655 ;;      Temps:          2       0       0       0       0       0       0       0       0
 11656 ;;      Totals:         8       0       0       0       0       0       0       0       0
 11657 ;;Total ram usage:        8 bytes
 11658 ;; Hardware stack levels used:    1
 11659 ;; Hardware stack levels required when called:    3
 11660 ;; This function calls:
 11661 ;;		_APP_DeviceCustomHIDInitialize
 11662 ;;		_APP_LEDUpdateUSBStatus
 11663 ;;		_USBCheckHIDRequest
 11664 ;;		i2_SYSTEM_Initialize
 11665 ;; This function is called by:
 11666 ;;		_USBDeviceTasks
 11667 ;;		_USBStdSetCfgHandler
 11668 ;;		_USBSuspend
 11669 ;;		_USBWakeFromSuspend
 11670 ;;		_USBCtrlTrfSetupHandler
 11671 ;;		_USBCheckStdRequest
 11672 ;;		_USBStdFeatureReqHandler
 11673 ;; This function uses a non-reentrant model
 11674 ;;
 11675                           
 11676                           	psect	text55
 11677  002A06                     __ptext55:
 11678                           	opt stack 0
 11679  002A06                     _USER_USB_CALLBACK_EVENT_HANDLER:
 11680                           	opt stack 19
 11681                           
 11682                           ;main.c: 111: switch((int)event)
 11683                           
 11684                           ; BSR set to: 4
 11685                           ;incstack = 0
 11686  002A06  D016               	goto	i2l3651
 11687                           
 11688                           ;main.c: 114: break;
 11689                           
 11690                           ;main.c: 112: {
 11691                           ;main.c: 113: case EVENT_TRANSFER:
 11692  002A08  0012               	return	
 11693  002A0A                     i2l3639:
 11694                           
 11695                           ;main.c: 119: APP_LEDUpdateUSBStatus();
 11696  002A0A  EC7F  F014         	call	_APP_LEDUpdateUSBStatus	;wreg free
 11697                           
 11698                           ;main.c: 120: break;
 11699  002A0E  0012               	return	
 11700  002A10                     i2l3641:
 11701                           
 11702                           ;main.c: 124: APP_LEDUpdateUSBStatus();
 11703  002A10  EC7F  F014         	call	_APP_LEDUpdateUSBStatus	;wreg free
 11704                           
 11705                           ;main.c: 132: SYSTEM_Initialize(SYSTEM_STATE_USB_SUSPEND);
 11706  002A14  0E01               	movlw	1
 11707  002A16  EC1C  F016         	call	i2_SYSTEM_Initialize
 11708                           
 11709                           ;main.c: 133: break;
 11710  002A1A  0012               	return	
 11711  002A1C                     i2l3643:
 11712                           
 11713                           ;main.c: 137: APP_LEDUpdateUSBStatus();
 11714  002A1C  EC7F  F014         	call	_APP_LEDUpdateUSBStatus	;wreg free
 11715                           
 11716                           ;main.c: 143: SYSTEM_Initialize(SYSTEM_STATE_USB_RESUME);
 11717  002A20  0E02               	movlw	2
 11718  002A22  EC1C  F016         	call	i2_SYSTEM_Initialize
 11719                           
 11720                           ;main.c: 144: break;
 11721  002A26  0012               	return	
 11722  002A28                     i2l3645:
 11723                           
 11724                           ;main.c: 149: APP_DeviceCustomHIDInitialize();
 11725  002A28  EC74  F017         	call	_APP_DeviceCustomHIDInitialize	;wreg free
 11726                           
 11727                           ;main.c: 153: break;
 11728                           
 11729                           ;main.c: 152: case EVENT_SET_DESCRIPTOR:
 11730                           
 11731                           ;main.c: 150: break;
 11732  002A2C  0012               	return	
 11733  002A2E                     i2l3647:
 11734                           
 11735                           ;main.c: 158: USBCheckHIDRequest();
 11736  002A2E  EC20  F00E         	call	_USBCheckHIDRequest	;wreg free
 11737                           
 11738                           ;main.c: 169: }
 11739                           
 11740                           ;main.c: 168: break;
 11741                           
 11742                           ;main.c: 167: default:
 11743                           
 11744                           ;main.c: 165: break;
 11745                           
 11746                           ;main.c: 164: case EVENT_TRANSFER_TERMINATED:
 11747                           
 11748                           ;main.c: 162: break;
 11749                           
 11750                           ;main.c: 161: case EVENT_BUS_ERROR:
 11751                           
 11752                           ;main.c: 159: break;
 11753  002A32  0012               	return	
 11754  002A34                     i2l3651:
 11755  002A34  C037  F03D         	movff	USER_USB_CALLBACK_EVENT_HANDLER@event,??_USER_USB_CALLBACK_EVENT_HANDLER
 11756  002A38  C038  F03E         	movff	USER_USB_CALLBACK_EVENT_HANDLER@event+1,??_USER_USB_CALLBACK_EVENT_HANDLER+1
 11757                           
 11758                           ; Switch on 2 bytes has been partitioned into a top level switch of size 1, and 2 sub-sw
      +                          itches
 11759                           ; Switch size 1, requested type "space"
 11760                           ; Number of cases is 2, Range of values is 0 to 127
 11761                           ; switch strategies available:
 11762                           ; Name         Instructions Cycles
 11763                           ; simple_byte            7     4 (average)
 11764                           ;	Chosen strategy is simple_byte
 11765  002A3C  503E               	movf	??_USER_USB_CALLBACK_EVENT_HANDLER+1,w,c
 11766  002A3E  0A00               	xorlw	0	; case 0
 11767  002A40  B4D8               	btfsc	status,2,c
 11768  002A42  D004               	goto	i2l6097
 11769  002A44  0A7F               	xorlw	127	; case 127
 11770  002A46  A4D8               	btfss	status,2,c
 11771  002A48  0012               	return	
 11772  002A4A  D01A               	goto	i2l6099
 11773  002A4C                     i2l6097:
 11774                           
 11775                           ; Switch size 1, requested type "space"
 11776                           ; Number of cases is 8, Range of values is 1 to 117
 11777                           ; switch strategies available:
 11778                           ; Name         Instructions Cycles
 11779                           ; simple_byte           25    13 (average)
 11780                           ;	Chosen strategy is simple_byte
 11781  002A4C  503D               	movf	??_USER_USB_CALLBACK_EVENT_HANDLER,w,c
 11782  002A4E  0A01               	xorlw	1	; case 1
 11783  002A50  B4D8               	btfsc	status,2,c
 11784  002A52  D7EA               	goto	i2l3645
 11785  002A54  0A03               	xorlw	3	; case 2
 11786  002A56  B4D8               	btfsc	status,2,c
 11787  002A58  0012               	return	
 11788  002A5A  0A01               	xorlw	1	; case 3
 11789  002A5C  B4D8               	btfsc	status,2,c
 11790  002A5E  D7E7               	goto	i2l3647
 11791  002A60  0A06               	xorlw	6	; case 5
 11792  002A62  B4D8               	btfsc	status,2,c
 11793  002A64  0012               	return	
 11794  002A66  0A77               	xorlw	119	; case 114
 11795  002A68  B4D8               	btfsc	status,2,c
 11796  002A6A  0012               	return	
 11797  002A6C  0A01               	xorlw	1	; case 115
 11798  002A6E  B4D8               	btfsc	status,2,c
 11799  002A70  D7CC               	goto	i2l3639
 11800  002A72  0A07               	xorlw	7	; case 116
 11801  002A74  B4D8               	btfsc	status,2,c
 11802  002A76  D7D2               	goto	i2l3643
 11803  002A78  0A01               	xorlw	1	; case 117
 11804  002A7A  A4D8               	btfss	status,2,c
 11805  002A7C  0012               	return	
 11806  002A7E  D7C8               	goto	i2l3641
 11807  002A80                     i2l6099:
 11808                           
 11809                           ; Switch size 1, requested type "space"
 11810                           ; Number of cases is 1, Range of values is 255 to 255
 11811                           ; switch strategies available:
 11812                           ; Name         Instructions Cycles
 11813                           ; simple_byte            4     3 (average)
 11814                           ;	Chosen strategy is simple_byte
 11815  002A80  503D               	movf	??_USER_USB_CALLBACK_EVENT_HANDLER,w,c
 11816  002A82  0AFF               	xorlw	255	; case 255
 11817  002A84  0012               	return	
 11818                           
 11819                           ;main.c: 170: return 1;
 11820                           ;	Return value of _USER_USB_CALLBACK_EVENT_HANDLER is never used
 11821  002A86  0012               	return		;funcret
 11822  002A88                     __end_of_USER_USB_CALLBACK_EVENT_HANDLER:
 11823                           	opt stack 0
 11824                           pclatu	equ	0xFFB
 11825                           pclath	equ	0xFFA
 11826                           tblptru	equ	0xFF8
 11827                           tblptrh	equ	0xFF7
 11828                           tblptrl	equ	0xFF6
 11829                           tablat	equ	0xFF5
 11830                           prodh	equ	0xFF4
 11831                           prodl	equ	0xFF3
 11832                           intcon	equ	0xFF2
 11833                           postinc0	equ	0xFEE
 11834                           fsr0h	equ	0xFEA
 11835                           fsr0l	equ	0xFE9
 11836                           wreg	equ	0xFE8
 11837                           indf1	equ	0xFE7
 11838                           fsr1h	equ	0xFE2
 11839                           fsr1l	equ	0xFE1
 11840                           indf2	equ	0xFDF
 11841                           postinc2	equ	0xFDE
 11842                           postdec2	equ	0xFDD
 11843                           plusw2	equ	0xFDB
 11844                           fsr2h	equ	0xFDA
 11845                           fsr2l	equ	0xFD9
 11846                           status	equ	0xFD8
 11847                           
 11848 ;; *************** function i2_SYSTEM_Initialize *****************
 11849 ;; Defined at:
 11850 ;;		line 88 in file "../src/system_config/pic18f45k50/system.c"
 11851 ;; Parameters:    Size  Location     Type
 11852 ;;  state           1    wreg     enum E6716
 11853 ;; Auto vars:     Size  Location     Type
 11854 ;;  state           1    1[COMRAM] enum E6716
 11855 ;; Return value:  Size  Location     Type
 11856 ;;		None               void
 11857 ;; Registers used:
 11858 ;;		wreg, status,2, status,0, cstack
 11859 ;; Tracked objects:
 11860 ;;		On entry : 0/0
 11861 ;;		On exit  : 0/0
 11862 ;;		Unchanged: 0/0
 11863 ;; Data sizes:     COMRAM   BANK0   BANK1   BANK2   BANK3   BANK4   BANK5   BANK6   BANK7
 11864 ;;      Params:         0       0       0       0       0       0       0       0       0
 11865 ;;      Locals:         1       0       0       0       0       0       0       0       0
 11866 ;;      Temps:          0       0       0       0       0       0       0       0       0
 11867 ;;      Totals:         1       0       0       0       0       0       0       0       0
 11868 ;;Total ram usage:        1 bytes
 11869 ;; Hardware stack levels used:    1
 11870 ;; Hardware stack levels required when called:    1
 11871 ;; This function calls:
 11872 ;;		i2_ADC_Enable
 11873 ;;		i2_ADC_SetConfiguration
 11874 ;;		i2_BUTTON_Enable
 11875 ;;		i2_LED_Enable
 11876 ;; This function is called by:
 11877 ;;		_USER_USB_CALLBACK_EVENT_HANDLER
 11878 ;; This function uses a non-reentrant model
 11879 ;;
 11880                           
 11881                           	psect	text56
 11882  002C38                     __ptext56:
 11883                           	opt stack 0
 11884  002C38                     i2_SYSTEM_Initialize:
 11885                           	opt stack 20
 11886                           
 11887                           ;incstack = 0
 11888                           ;i2SYSTEM_Initialize@state stored from wreg
 11889  002C38  6E2C               	movwf	i2SYSTEM_Initialize@state,c
 11890                           
 11891                           ;system.c: 90: switch(state)
 11892  002C3A  D021               	goto	i2l3635
 11893  002C3C                     i2l3615:
 11894                           
 11895                           ;system.c: 97: OSCTUNE = 0x80;
 11896  002C3C  0E80               	movlw	128
 11897  002C3E  6E9B               	movwf	3995,c	;volatile
 11898                           
 11899                           ;system.c: 98: OSCCON = 0x70;
 11900  002C40  0E70               	movlw	112
 11901  002C42  6ED3               	movwf	4051,c	;volatile
 11902                           
 11903                           ;system.c: 99: OSCCON2 = 0x10;
 11904  002C44  0E10               	movlw	16
 11905  002C46  6ED2               	movwf	4050,c	;volatile
 11906                           
 11907                           ;system.c: 100: while(OSCCON2bits.PLLRDY != 1);
 11908  002C48  D000               	goto	i2l150
 11909  002C4A                     i2l150:
 11910  002C4A  AED2               	btfss	4050,7,c	;volatile
 11911  002C4C  D7FE               	goto	i2l150
 11912                           
 11913                           ;system.c: 101: ACTCON = 0x90;
 11914  002C4E  0E90               	movlw	144
 11915  002C50  6EB5               	movwf	4021,c	;volatile
 11916                           
 11917                           ;system.c: 104: LED_Enable(LED_NONE);
 11918  002C52  0E00               	movlw	0
 11919  002C54  EC1E  F018         	call	i2_LED_Enable
 11920                           
 11921                           ;system.c: 105: LED_Enable(LED_D1);
 11922  002C58  0E01               	movlw	1
 11923  002C5A  EC1E  F018         	call	i2_LED_Enable
 11924                           
 11925                           ;system.c: 106: LED_Enable(LED_D2);
 11926  002C5E  0E02               	movlw	2
 11927  002C60  EC1E  F018         	call	i2_LED_Enable
 11928                           
 11929                           ;system.c: 107: BUTTON_Enable(BUTTON_S2);
 11930  002C64  0E01               	movlw	1
 11931  002C66  EC12  F019         	call	i2_BUTTON_Enable
 11932                           
 11933                           ;system.c: 109: ADC_SetConfiguration(ADC_CONFIGURATION_DEFAULT);
 11934  002C6A  0E00               	movlw	0
 11935  002C6C  EC21  F019         	call	i2_ADC_SetConfiguration
 11936                           
 11937                           ;system.c: 110: ADC_Enable(ADC_CHANNEL_0);
 11938  002C70  0E00               	movlw	0
 11939  002C72  ECF2  F018         	call	i2_ADC_Enable
 11940                           
 11941                           ;system.c: 111: ADC_Enable(ADC_CHANNEL_1);
 11942  002C76  0E01               	movlw	1
 11943  002C78  ECF2  F018         	call	i2_ADC_Enable
 11944                           
 11945                           ;system.c: 119: }
 11946                           
 11947                           ;system.c: 118: break;
 11948                           
 11949                           ;system.c: 117: case SYSTEM_STATE_USB_RESUME:
 11950                           
 11951                           ;system.c: 115: break;
 11952                           
 11953                           ;system.c: 114: case SYSTEM_STATE_USB_SUSPEND:
 11954                           
 11955                           ;system.c: 112: break;
 11956  002C7C  0012               	return	
 11957  002C7E                     i2l3635:
 11958  002C7E  502C               	movf	i2SYSTEM_Initialize@state,w,c
 11959                           
 11960                           ; Switch size 1, requested type "space"
 11961                           ; Number of cases is 3, Range of values is 0 to 2
 11962                           ; switch strategies available:
 11963                           ; Name         Instructions Cycles
 11964                           ; simple_byte           10     6 (average)
 11965                           ;	Chosen strategy is simple_byte
 11966  002C80  0A00               	xorlw	0	; case 0
 11967  002C82  B4D8               	btfsc	status,2,c
 11968  002C84  D7DB               	goto	i2l3615
 11969  002C86  0A01               	xorlw	1	; case 1
 11970  002C88  B4D8               	btfsc	status,2,c
 11971  002C8A  0012               	return	
 11972  002C8C  0A03               	xorlw	3	; case 2
 11973  002C8E  0012               	return	
 11974  002C90  0012               	return		;funcret
 11975  002C92                     __end_ofi2_SYSTEM_Initialize:
 11976                           	opt stack 0
 11977                           pclatu	equ	0xFFB
 11978                           pclath	equ	0xFFA
 11979                           tblptru	equ	0xFF8
 11980                           tblptrh	equ	0xFF7
 11981                           tblptrl	equ	0xFF6
 11982                           tablat	equ	0xFF5
 11983                           prodh	equ	0xFF4
 11984                           prodl	equ	0xFF3
 11985                           intcon	equ	0xFF2
 11986                           postinc0	equ	0xFEE
 11987                           fsr0h	equ	0xFEA
 11988                           fsr0l	equ	0xFE9
 11989                           wreg	equ	0xFE8
 11990                           indf1	equ	0xFE7
 11991                           fsr1h	equ	0xFE2
 11992                           fsr1l	equ	0xFE1
 11993                           indf2	equ	0xFDF
 11994                           postinc2	equ	0xFDE
 11995                           postdec2	equ	0xFDD
 11996                           plusw2	equ	0xFDB
 11997                           fsr2h	equ	0xFDA
 11998                           fsr2l	equ	0xFD9
 11999                           status	equ	0xFD8
 12000                           
 12001 ;; *************** function i2_LED_Enable *****************
 12002 ;; Defined at:
 12003 ;;		line 227 in file "../bsp_pic18f45k50/leds.c"
 12004 ;; Parameters:    Size  Location     Type
 12005 ;;  led             1    wreg     enum E2
 12006 ;; Auto vars:     Size  Location     Type
 12007 ;;  led             1    0[COMRAM] enum E2
 12008 ;; Return value:  Size  Location     Type
 12009 ;;		None               void
 12010 ;; Registers used:
 12011 ;;		wreg, status,2, status,0
 12012 ;; Tracked objects:
 12013 ;;		On entry : 0/0
 12014 ;;		On exit  : 0/0
 12015 ;;		Unchanged: 0/0
 12016 ;; Data sizes:     COMRAM   BANK0   BANK1   BANK2   BANK3   BANK4   BANK5   BANK6   BANK7
 12017 ;;      Params:         0       0       0       0       0       0       0       0       0
 12018 ;;      Locals:         1       0       0       0       0       0       0       0       0
 12019 ;;      Temps:          0       0       0       0       0       0       0       0       0
 12020 ;;      Totals:         1       0       0       0       0       0       0       0       0
 12021 ;;Total ram usage:        1 bytes
 12022 ;; Hardware stack levels used:    1
 12023 ;; This function calls:
 12024 ;;		Nothing
 12025 ;; This function is called by:
 12026 ;;		i2_SYSTEM_Initialize
 12027 ;; This function uses a non-reentrant model
 12028 ;;
 12029                           
 12030                           	psect	text57
 12031  00303C                     __ptext57:
 12032                           	opt stack 0
 12033  00303C                     i2_LED_Enable:
 12034                           	opt stack 20
 12035                           
 12036                           ;incstack = 0
 12037                           ;i2LED_Enable@led stored from wreg
 12038  00303C  6E2B               	movwf	i2LED_Enable@led,c
 12039                           
 12040                           ;leds.c: 229: switch(led)
 12041  00303E  D008               	goto	i2l3481
 12042  003040                     i2l121:
 12043                           
 12044                           ;leds.c: 232: TRISCbits.TRISC2 = 0;
 12045  003040  9494               	bcf	3988,2,c	;volatile
 12046                           
 12047                           ;leds.c: 233: ANSELCbits.ANSC2 = 0;
 12048  003042  010F               	movlb	15	; () banked
 12049  003044  955D               	bcf	93,2,b	;volatile
 12050                           
 12051                           ;leds.c: 234: break;
 12052  003046  0012               	return	
 12053  003048                     i2l123:
 12054                           
 12055                           ;leds.c: 237: TRISCbits.TRISC0 = 0;
 12056  003048  9094               	bcf	3988,0,c	;volatile
 12057                           
 12058                           ;leds.c: 238: ANSELCbits.ANSC2 = 0;
 12059  00304A  010F               	movlb	15	; () banked
 12060  00304C  955D               	bcf	93,2,b	;volatile
 12061                           
 12062                           ; BSR set to: 15
 12063                           ;leds.c: 253: }
 12064                           
 12065                           ; BSR set to: 15
 12066                           ;leds.c: 252: break;
 12067                           
 12068                           ;leds.c: 251: case LED_NONE:
 12069                           
 12070                           ;leds.c: 239: break;
 12071  00304E  0012               	return	
 12072  003050                     i2l3481:
 12073  003050  502B               	movf	i2LED_Enable@led,w,c
 12074                           
 12075                           ; Switch size 1, requested type "space"
 12076                           ; Number of cases is 3, Range of values is 0 to 2
 12077                           ; switch strategies available:
 12078                           ; Name         Instructions Cycles
 12079                           ; simple_byte           10     6 (average)
 12080                           ;	Chosen strategy is simple_byte
 12081  003052  0A00               	xorlw	0	; case 0
 12082  003054  B4D8               	btfsc	status,2,c
 12083  003056  0012               	return	
 12084  003058  0A01               	xorlw	1	; case 1
 12085  00305A  B4D8               	btfsc	status,2,c
 12086  00305C  D7F1               	goto	i2l121
 12087  00305E  0A03               	xorlw	3	; case 2
 12088  003060  A4D8               	btfss	status,2,c
 12089  003062  0012               	return	
 12090  003064  D7F1               	goto	i2l123
 12091  003066  0012               	return		;funcret
 12092  003068                     __end_ofi2_LED_Enable:
 12093                           	opt stack 0
 12094                           pclatu	equ	0xFFB
 12095                           pclath	equ	0xFFA
 12096                           tblptru	equ	0xFF8
 12097                           tblptrh	equ	0xFF7
 12098                           tblptrl	equ	0xFF6
 12099                           tablat	equ	0xFF5
 12100                           prodh	equ	0xFF4
 12101                           prodl	equ	0xFF3
 12102                           intcon	equ	0xFF2
 12103                           postinc0	equ	0xFEE
 12104                           fsr0h	equ	0xFEA
 12105                           fsr0l	equ	0xFE9
 12106                           wreg	equ	0xFE8
 12107                           indf1	equ	0xFE7
 12108                           fsr1h	equ	0xFE2
 12109                           fsr1l	equ	0xFE1
 12110                           indf2	equ	0xFDF
 12111                           postinc2	equ	0xFDE
 12112                           postdec2	equ	0xFDD
 12113                           plusw2	equ	0xFDB
 12114                           fsr2h	equ	0xFDA
 12115                           fsr2l	equ	0xFD9
 12116                           status	equ	0xFD8
 12117                           
 12118 ;; *************** function i2_BUTTON_Enable *****************
 12119 ;; Defined at:
 12120 ;;		line 96 in file "../bsp_pic18f45k50/buttons.c"
 12121 ;; Parameters:    Size  Location     Type
 12122 ;;  button          1    wreg     enum E6643
 12123 ;; Auto vars:     Size  Location     Type
 12124 ;;  button          1    0[COMRAM] enum E6643
 12125 ;; Return value:  Size  Location     Type
 12126 ;;		None               void
 12127 ;; Registers used:
 12128 ;;		wreg, status,2, status,0
 12129 ;; Tracked objects:
 12130 ;;		On entry : 0/0
 12131 ;;		On exit  : 0/0
 12132 ;;		Unchanged: 0/0
 12133 ;; Data sizes:     COMRAM   BANK0   BANK1   BANK2   BANK3   BANK4   BANK5   BANK6   BANK7
 12134 ;;      Params:         0       0       0       0       0       0       0       0       0
 12135 ;;      Locals:         1       0       0       0       0       0       0       0       0
 12136 ;;      Temps:          0       0       0       0       0       0       0       0       0
 12137 ;;      Totals:         1       0       0       0       0       0       0       0       0
 12138 ;;Total ram usage:        1 bytes
 12139 ;; Hardware stack levels used:    1
 12140 ;; This function calls:
 12141 ;;		Nothing
 12142 ;; This function is called by:
 12143 ;;		i2_SYSTEM_Initialize
 12144 ;; This function uses a non-reentrant model
 12145 ;;
 12146                           
 12147                           	psect	text58
 12148  003224                     __ptext58:
 12149                           	opt stack 0
 12150  003224                     i2_BUTTON_Enable:
 12151                           	opt stack 20
 12152                           
 12153                           ;incstack = 0
 12154                           ;i2BUTTON_Enable@button stored from wreg
 12155  003224  6E2B               	movwf	i2BUTTON_Enable@button,c
 12156                           
 12157                           ;buttons.c: 98: switch(button)
 12158  003226  D004               	goto	i2l3451
 12159  003228                     i2l17:
 12160                           
 12161                           ;buttons.c: 101: TRISDbits.TRISD3 = 1;
 12162  003228  8695               	bsf	3989,3,c	;volatile
 12163                           
 12164                           ;buttons.c: 102: ANSELDbits.ANSD3 = 0;
 12165  00322A  010F               	movlb	15	; () banked
 12166  00322C  975E               	bcf	94,3,b	;volatile
 12167                           
 12168                           ; BSR set to: 15
 12169                           ;buttons.c: 112: }
 12170                           
 12171                           ; BSR set to: 15
 12172                           ;buttons.c: 111: break;
 12173                           
 12174                           ;buttons.c: 110: case BUTTON_NONE:
 12175                           
 12176                           ;buttons.c: 103: break;
 12177  00322E  0012               	return	
 12178  003230                     i2l3451:
 12179  003230  502B               	movf	i2BUTTON_Enable@button,w,c
 12180                           
 12181                           ; Switch size 1, requested type "space"
 12182                           ; Number of cases is 2, Range of values is 0 to 1
 12183                           ; switch strategies available:
 12184                           ; Name         Instructions Cycles
 12185                           ; simple_byte            7     4 (average)
 12186                           ;	Chosen strategy is simple_byte
 12187  003232  0A00               	xorlw	0	; case 0
 12188  003234  B4D8               	btfsc	status,2,c
 12189  003236  0012               	return	
 12190  003238  0A01               	xorlw	1	; case 1
 12191  00323A  A4D8               	btfss	status,2,c
 12192  00323C  0012               	return	
 12193  00323E  D7F4               	goto	i2l17
 12194  003240  0012               	return		;funcret
 12195  003242                     __end_ofi2_BUTTON_Enable:
 12196                           	opt stack 0
 12197                           pclatu	equ	0xFFB
 12198                           pclath	equ	0xFFA
 12199                           tblptru	equ	0xFF8
 12200                           tblptrh	equ	0xFF7
 12201                           tblptrl	equ	0xFF6
 12202                           tablat	equ	0xFF5
 12203                           prodh	equ	0xFF4
 12204                           prodl	equ	0xFF3
 12205                           intcon	equ	0xFF2
 12206                           postinc0	equ	0xFEE
 12207                           fsr0h	equ	0xFEA
 12208                           fsr0l	equ	0xFE9
 12209                           wreg	equ	0xFE8
 12210                           indf1	equ	0xFE7
 12211                           fsr1h	equ	0xFE2
 12212                           fsr1l	equ	0xFE1
 12213                           indf2	equ	0xFDF
 12214                           postinc2	equ	0xFDE
 12215                           postdec2	equ	0xFDD
 12216                           plusw2	equ	0xFDB
 12217                           fsr2h	equ	0xFDA
 12218                           fsr2l	equ	0xFD9
 12219                           status	equ	0xFD8
 12220                           
 12221 ;; *************** function i2_ADC_SetConfiguration *****************
 12222 ;; Defined at:
 12223 ;;		line 166 in file "../bsp_pic18f45k50/adc.c"
 12224 ;; Parameters:    Size  Location     Type
 12225 ;;  configuratio    1    wreg     enum E34
 12226 ;; Auto vars:     Size  Location     Type
 12227 ;;  configuratio    1    0[COMRAM] enum E34
 12228 ;; Return value:  Size  Location     Type
 12229 ;;                  1    wreg      unsigned char 
 12230 ;; Registers used:
 12231 ;;		wreg, status,2
 12232 ;; Tracked objects:
 12233 ;;		On entry : 0/0
 12234 ;;		On exit  : 0/0
 12235 ;;		Unchanged: 0/0
 12236 ;; Data sizes:     COMRAM   BANK0   BANK1   BANK2   BANK3   BANK4   BANK5   BANK6   BANK7
 12237 ;;      Params:         0       0       0       0       0       0       0       0       0
 12238 ;;      Locals:         1       0       0       0       0       0       0       0       0
 12239 ;;      Temps:          0       0       0       0       0       0       0       0       0
 12240 ;;      Totals:         1       0       0       0       0       0       0       0       0
 12241 ;;Total ram usage:        1 bytes
 12242 ;; Hardware stack levels used:    1
 12243 ;; This function calls:
 12244 ;;		Nothing
 12245 ;; This function is called by:
 12246 ;;		i2_SYSTEM_Initialize
 12247 ;; This function uses a non-reentrant model
 12248 ;;
 12249                           
 12250                           	psect	text59
 12251  003242                     __ptext59:
 12252                           	opt stack 0
 12253  003242                     i2_ADC_SetConfiguration:
 12254                           	opt stack 20
 12255                           
 12256                           ;incstack = 0
 12257                           ;i2ADC_SetConfiguration@configuration stored from wreg
 12258  003242  6E2B               	movwf	i2ADC_SetConfiguration@configuration,c
 12259                           
 12260                           ;adc.c: 168: if(configuration == ADC_CONFIGURATION_DEFAULT)
 12261  003244  502B               	movf	i2ADC_SetConfiguration@configuration,w,c
 12262  003246  A4D8               	btfss	status,2,c
 12263  003248  0012               	return	
 12264                           
 12265                           ;adc.c: 169: {
 12266                           ;adc.c: 170: ADCON1=0;
 12267  00324A  0E00               	movlw	0
 12268  00324C  6EC1               	movwf	4033,c	;volatile
 12269                           
 12270                           ;adc.c: 171: ADCON2=0xBE;
 12271  00324E  0EBE               	movlw	190
 12272  003250  6EC0               	movwf	4032,c	;volatile
 12273                           
 12274                           ;adc.c: 172: ADCON0=0x01;
 12275  003252  0E01               	movlw	1
 12276  003254  6EC2               	movwf	4034,c	;volatile
 12277                           
 12278                           ;adc.c: 174: return 1;
 12279                           ;	Return value of i2_ADC_SetConfiguration is never used
 12280  003256  0012               	return	
 12281                           
 12282                           ;adc.c: 175: }
 12283                           ;adc.c: 177: return 0;
 12284                           ;	Return value of i2_ADC_SetConfiguration is never used
 12285  003258  0012               	return		;funcret
 12286  00325A                     __end_ofi2_ADC_SetConfiguration:
 12287                           	opt stack 0
 12288                           pclatu	equ	0xFFB
 12289                           pclath	equ	0xFFA
 12290                           tblptru	equ	0xFF8
 12291                           tblptrh	equ	0xFF7
 12292                           tblptrl	equ	0xFF6
 12293                           tablat	equ	0xFF5
 12294                           prodh	equ	0xFF4
 12295                           prodl	equ	0xFF3
 12296                           intcon	equ	0xFF2
 12297                           postinc0	equ	0xFEE
 12298                           fsr0h	equ	0xFEA
 12299                           fsr0l	equ	0xFE9
 12300                           wreg	equ	0xFE8
 12301                           indf1	equ	0xFE7
 12302                           fsr1h	equ	0xFE2
 12303                           fsr1l	equ	0xFE1
 12304                           indf2	equ	0xFDF
 12305                           postinc2	equ	0xFDE
 12306                           postdec2	equ	0xFDD
 12307                           plusw2	equ	0xFDB
 12308                           fsr2h	equ	0xFDA
 12309                           fsr2l	equ	0xFD9
 12310                           status	equ	0xFD8
 12311                           
 12312 ;; *************** function i2_ADC_Enable *****************
 12313 ;; Defined at:
 12314 ;;		line 137 in file "../bsp_pic18f45k50/adc.c"
 12315 ;; Parameters:    Size  Location     Type
 12316 ;;  channel         1    wreg     enum E30
 12317 ;; Auto vars:     Size  Location     Type
 12318 ;;  channel         1    0[COMRAM] enum E30
 12319 ;; Return value:  Size  Location     Type
 12320 ;;                  1    wreg      unsigned char 
 12321 ;; Registers used:
 12322 ;;		wreg, status,2, status,0
 12323 ;; Tracked objects:
 12324 ;;		On entry : 0/0
 12325 ;;		On exit  : 0/0
 12326 ;;		Unchanged: 0/0
 12327 ;; Data sizes:     COMRAM   BANK0   BANK1   BANK2   BANK3   BANK4   BANK5   BANK6   BANK7
 12328 ;;      Params:         0       0       0       0       0       0       0       0       0
 12329 ;;      Locals:         1       0       0       0       0       0       0       0       0
 12330 ;;      Temps:          0       0       0       0       0       0       0       0       0
 12331 ;;      Totals:         1       0       0       0       0       0       0       0       0
 12332 ;;Total ram usage:        1 bytes
 12333 ;; Hardware stack levels used:    1
 12334 ;; This function calls:
 12335 ;;		Nothing
 12336 ;; This function is called by:
 12337 ;;		i2_SYSTEM_Initialize
 12338 ;; This function uses a non-reentrant model
 12339 ;;
 12340                           
 12341                           	psect	text60
 12342  0031E4                     __ptext60:
 12343                           	opt stack 0
 12344  0031E4                     i2_ADC_Enable:
 12345                           	opt stack 20
 12346                           
 12347                           ;incstack = 0
 12348                           ;i2ADC_Enable@channel stored from wreg
 12349  0031E4  6E2B               	movwf	i2ADC_Enable@channel,c
 12350                           
 12351                           ;adc.c: 139: switch(channel)
 12352  0031E6  D006               	goto	i2l3457
 12353  0031E8                     i2l68:
 12354                           
 12355                           ;adc.c: 142: TRISAbits.TRISA0 = 1;
 12356  0031E8  8092               	bsf	3986,0,c	;volatile
 12357                           
 12358                           ;adc.c: 143: ANSELAbits.ANSA0 = 1;
 12359  0031EA  010F               	movlb	15	; () banked
 12360  0031EC  815B               	bsf	91,0,b	;volatile
 12361                           
 12362                           ;adc.c: 144: return 1;
 12363                           ;	Return value of i2_ADC_Enable is never used
 12364  0031EE  0012               	return	
 12365  0031F0                     i2l70:
 12366                           
 12367                           ;adc.c: 147: TRISCbits.TRISC0 = 0;
 12368  0031F0  9094               	bcf	3988,0,c	;volatile
 12369                           
 12370                           ;adc.c: 151: }
 12371                           
 12372                           ;adc.c: 150: return 0;
 12373                           ;	Return value of i2_ADC_Enable is never used
 12374                           
 12375                           ;adc.c: 149: default:
 12376                           
 12377                           ;adc.c: 148: return 1;
 12378                           ;	Return value of i2_ADC_Enable is never used
 12379  0031F2  0012               	return	
 12380  0031F4                     i2l3457:
 12381  0031F4  502B               	movf	i2ADC_Enable@channel,w,c
 12382                           
 12383                           ; Switch size 1, requested type "space"
 12384                           ; Number of cases is 2, Range of values is 0 to 1
 12385                           ; switch strategies available:
 12386                           ; Name         Instructions Cycles
 12387                           ; simple_byte            7     4 (average)
 12388                           ;	Chosen strategy is simple_byte
 12389  0031F6  0A00               	xorlw	0	; case 0
 12390  0031F8  B4D8               	btfsc	status,2,c
 12391  0031FA  D7F6               	goto	i2l68
 12392  0031FC  0A01               	xorlw	1	; case 1
 12393  0031FE  A4D8               	btfss	status,2,c
 12394  003200  0012               	return	
 12395  003202  D7F6               	goto	i2l70
 12396  003204  0012               	return		;funcret
 12397  003206                     __end_ofi2_ADC_Enable:
 12398                           	opt stack 0
 12399                           pclatu	equ	0xFFB
 12400                           pclath	equ	0xFFA
 12401                           tblptru	equ	0xFF8
 12402                           tblptrh	equ	0xFF7
 12403                           tblptrl	equ	0xFF6
 12404                           tablat	equ	0xFF5
 12405                           prodh	equ	0xFF4
 12406                           prodl	equ	0xFF3
 12407                           intcon	equ	0xFF2
 12408                           postinc0	equ	0xFEE
 12409                           fsr0h	equ	0xFEA
 12410                           fsr0l	equ	0xFE9
 12411                           wreg	equ	0xFE8
 12412                           indf1	equ	0xFE7
 12413                           fsr1h	equ	0xFE2
 12414                           fsr1l	equ	0xFE1
 12415                           indf2	equ	0xFDF
 12416                           postinc2	equ	0xFDE
 12417                           postdec2	equ	0xFDD
 12418                           plusw2	equ	0xFDB
 12419                           fsr2h	equ	0xFDA
 12420                           fsr2l	equ	0xFD9
 12421                           status	equ	0xFD8
 12422                           
 12423 ;; *************** function _USBCheckHIDRequest *****************
 12424 ;; Defined at:
 12425 ;;		line 153 in file "../../../../../../microchip/mla/v2015_08_10/framework/usb/src/usb_device_hid.c"
 12426 ;; Parameters:    Size  Location     Type
 12427 ;;		None
 12428 ;; Auto vars:     Size  Location     Type
 12429 ;;		None
 12430 ;; Return value:  Size  Location     Type
 12431 ;;		None               void
 12432 ;; Registers used:
 12433 ;;		wreg, status,2, status,0
 12434 ;; Tracked objects:
 12435 ;;		On entry : 0/0
 12436 ;;		On exit  : 0/0
 12437 ;;		Unchanged: 0/0
 12438 ;; Data sizes:     COMRAM   BANK0   BANK1   BANK2   BANK3   BANK4   BANK5   BANK6   BANK7
 12439 ;;      Params:         0       0       0       0       0       0       0       0       0
 12440 ;;      Locals:         0       0       0       0       0       0       0       0       0
 12441 ;;      Temps:          0       0       0       0       0       0       0       0       0
 12442 ;;      Totals:         0       0       0       0       0       0       0       0       0
 12443 ;;Total ram usage:        0 bytes
 12444 ;; Hardware stack levels used:    1
 12445 ;; This function calls:
 12446 ;;		Nothing
 12447 ;; This function is called by:
 12448 ;;		_USER_USB_CALLBACK_EVENT_HANDLER
 12449 ;; This function uses a non-reentrant model
 12450 ;;
 12451                           
 12452                           	psect	text61
 12453  001C40                     __ptext61:
 12454                           	opt stack 0
 12455  001C40                     _USBCheckHIDRequest:
 12456                           	opt stack 21
 12457                           
 12458                           ;usb_device_hid.c: 155: if(SetupPkt.Recipient != (0x01)) return;
 12459                           
 12460                           ;incstack = 0
 12461  001C40  0104               	movlb	4	; () banked
 12462  001C42  5120               	movf	32,w,b	;volatile
 12463  001C44  0B1F               	andlw	31
 12464  001C46  06E8               	decf	wreg,f,c
 12465  001C48  A4D8               	btfss	status,2,c
 12466  001C4A  0012               	return	
 12467  001C4C  D001               	goto	i2l3559
 12468                           
 12469                           ; BSR set to: 4
 12470  001C4E  0012               	return	
 12471  001C50                     i2l3559:
 12472                           
 12473                           ; BSR set to: 4
 12474                           ;usb_device_hid.c: 156: if(SetupPkt.bIntfID != 0x00) return;
 12475  001C50  0104               	movlb	4	; () banked
 12476  001C52  5124               	movf	36,w,b	;volatile
 12477  001C54  A4D8               	btfss	status,2,c
 12478  001C56  0012               	return	
 12479  001C58  D001               	goto	i2l3563
 12480                           
 12481                           ; BSR set to: 4
 12482  001C5A  0012               	return	
 12483  001C5C                     i2l3563:
 12484                           
 12485                           ; BSR set to: 4
 12486                           ;usb_device_hid.c: 163: if(SetupPkt.bRequest == 6)
 12487  001C5C  0E06               	movlw	6
 12488  001C5E  0104               	movlb	4	; () banked
 12489  001C60  1921               	xorwf	33,w,b	;volatile
 12490  001C62  B4D8               	btfsc	status,2,c
 12491  001C64  D01A               	goto	i2l3583
 12492  001C66  D023               	goto	i2l3585
 12493                           
 12494                           ; BSR set to: 4
 12495                           ;usb_device_hid.c: 164: {
 12496                           ;usb_device_hid.c: 165: switch(SetupPkt.bDescriptorType)
 12497  001C68  D018               	goto	i2l3583
 12498  001C6A                     i2l3567:
 12499                           
 12500                           ; BSR set to: 4
 12501                           ;usb_device_hid.c: 168: if(USBActiveConfiguration == 1)
 12502  001C6A  0428               	decf	_USBActiveConfiguration,w,c	;volatile
 12503  001C6C  A4D8               	btfss	status,2,c
 12504  001C6E  D01F               	goto	i2l3585
 12505                           
 12506                           ; BSR set to: 4
 12507                           ;usb_device_hid.c: 169: {
 12508                           ;usb_device_hid.c: 170: { inPipes[0].pSrc.bRom = (const uint8_t*)&configDescriptor1 + 18
      +                          ; inPipes[0].wCount.Val = sizeof(USB_HID_DSC)+3; inPipes[0].info.Val = 0x40 | 0x80 | 0x0
      +                          0; };
 12509  001C70  0E7B               	movlw	low (_configDescriptor1+18)
 12510  001C72  6E22               	movwf	_inPipes,c	;volatile
 12511  001C74  0E7F               	movlw	high (_configDescriptor1+18)
 12512  001C76  6E23               	movwf	_inPipes+1,c	;volatile
 12513                           
 12514                           ; BSR set to: 4
 12515  001C78  0E00               	movlw	0
 12516  001C7A  6E27               	movwf	_inPipes+5,c	;volatile
 12517  001C7C  0E09               	movlw	9
 12518  001C7E  D00A               	goto	L15
 12519  001C80                     i2l3573:
 12520                           
 12521                           ; BSR set to: 4
 12522  001C80  0EC0               	movlw	192
 12523  001C82  6E25               	movwf	_inPipes+3,c	;volatile
 12524                           
 12525                           ; BSR set to: 4
 12526                           ;usb_device_hid.c: 174: }
 12527                           ;usb_device_hid.c: 175: break;
 12528  001C84  D014               	goto	i2l3585
 12529  001C86                     i2l3575:
 12530                           
 12531                           ; BSR set to: 4
 12532                           ;usb_device_hid.c: 178: {
 12533                           ;usb_device_hid.c: 179: { inPipes[0].pSrc.bRom = (const uint8_t*)&hid_rpt01; inPipes[0].
      +                          wCount.Val = 29; inPipes[0].info.Val = 0x40 | 0x80 | 0x00; };
 12534  001C86  0EB0               	movlw	low _hid_rpt01
 12535  001C88  6E22               	movwf	_inPipes,c	;volatile
 12536  001C8A  0E7F               	movlw	high _hid_rpt01
 12537  001C8C  6E23               	movwf	_inPipes+1,c	;volatile
 12538                           
 12539                           ; BSR set to: 4
 12540  001C8E  0E00               	movlw	0
 12541  001C90  6E27               	movwf	_inPipes+5,c	;volatile
 12542  001C92  0E1D               	movlw	29
 12543  001C94                     L15:
 12544  001C94  6E26               	movwf	_inPipes+4,c	;volatile
 12545  001C96  D7F4               	goto	i2l3573
 12546                           
 12547                           ; BSR set to: 4
 12548                           ;usb_device_hid.c: 198: }
 12549                           
 12550                           ; BSR set to: 4
 12551                           ;usb_device_hid.c: 197: break;
 12552                           
 12553                           ;usb_device_hid.c: 185: case 0x23:
 12554                           
 12555                           ;usb_device_hid.c: 183: }
 12556                           ;usb_device_hid.c: 184: break;
 12557                           
 12558                           ; BSR set to: 4
 12559  001C98  D00A               	goto	i2l3585
 12560  001C9A                     i2l3583:
 12561                           
 12562                           ; BSR set to: 4
 12563  001C9A  0104               	movlb	4	; () banked
 12564  001C9C  5123               	movf	35,w,b	;volatile
 12565                           
 12566                           ; Switch size 1, requested type "space"
 12567                           ; Number of cases is 3, Range of values is 33 to 35
 12568                           ; switch strategies available:
 12569                           ; Name         Instructions Cycles
 12570                           ; simple_byte           10     6 (average)
 12571                           ;	Chosen strategy is simple_byte
 12572  001C9E  0A21               	xorlw	33	; case 33
 12573  001CA0  B4D8               	btfsc	status,2,c
 12574  001CA2  D7E3               	goto	i2l3567
 12575  001CA4  0A03               	xorlw	3	; case 34
 12576  001CA6  B4D8               	btfsc	status,2,c
 12577  001CA8  D7EE               	goto	i2l3575
 12578  001CAA  0A01               	xorlw	1	; case 35
 12579                           
 12580                           ; BSR set to: 4
 12581  001CAC  D000               	goto	i2l3585
 12582  001CAE                     i2l3585:
 12583                           
 12584                           ; BSR set to: 4
 12585                           ;usb_device_hid.c: 199: }
 12586                           ;usb_device_hid.c: 201: if(SetupPkt.RequestType != (0x20>>5))
 12587  001CAE  0104               	movlb	4	; () banked
 12588  001CB0  3920               	swapf	32,w,b	;volatile
 12589  001CB2  32E8               	rrcf	wreg,f,c
 12590  001CB4  0B03               	andlw	3
 12591  001CB6  06E8               	decf	wreg,f,c
 12592  001CB8  A4D8               	btfss	status,2,c
 12593  001CBA  0012               	return	
 12594  001CBC  D023               	goto	i2l3611
 12595                           
 12596                           ; BSR set to: 4
 12597                           ;usb_device_hid.c: 202: {
 12598                           ;usb_device_hid.c: 203: return;
 12599  001CBE  0012               	return	
 12600                           
 12601                           ; BSR set to: 4
 12602                           ;usb_device_hid.c: 204: }
 12603                           ;usb_device_hid.c: 206: switch(SetupPkt.bRequest)
 12604  001CC0  D021               	goto	i2l3611
 12605                           
 12606                           ; BSR set to: 4
 12607                           ;usb_device_hid.c: 217: break;
 12608                           
 12609                           ;usb_device_hid.c: 213: case 0x09:
 12610                           
 12611                           ; BSR set to: 4
 12612                           ;usb_device_hid.c: 212: break;
 12613                           
 12614                           ;usb_device_hid.c: 207: {
 12615                           ;usb_device_hid.c: 208: case 0x01:
 12616  001CC2  0012               	return	
 12617  001CC4                     i2l3589:
 12618                           
 12619                           ; BSR set to: 4
 12620                           ;usb_device_hid.c: 219: { inPipes[0].pSrc.bRam = (uint8_t*)&idle_rate; inPipes[0].wCount
      +                          .Val = 1; inPipes[0].info.Val = 0x40 | 0x80 | 0x01; };
 12621  001CC4  0EF6               	movlw	low _idle_rate
 12622  001CC6  6E22               	movwf	_inPipes,c	;volatile
 12623  001CC8  0E00               	movlw	high _idle_rate
 12624  001CCA  6E23               	movwf	_inPipes+1,c	;volatile
 12625                           
 12626                           ; BSR set to: 4
 12627  001CCC  0E00               	movlw	0
 12628  001CCE  6E27               	movwf	_inPipes+5,c	;volatile
 12629  001CD0  0E01               	movlw	1
 12630  001CD2  6E26               	movwf	_inPipes+4,c	;volatile
 12631                           
 12632                           ; BSR set to: 4
 12633  001CD4  0EC1               	movlw	193
 12634  001CD6  6E25               	movwf	_inPipes+3,c	;volatile
 12635                           
 12636                           ;usb_device_hid.c: 223: break;
 12637  001CD8  0012               	return	
 12638  001CDA                     i2l3595:
 12639                           
 12640                           ; BSR set to: 4
 12641                           ;usb_device_hid.c: 225: inPipes[0].info.Val = 0x00 | 0x80;
 12642  001CDA  0E80               	movlw	128
 12643  001CDC  6E25               	movwf	_inPipes+3,c	;volatile
 12644                           
 12645                           ; BSR set to: 4
 12646                           ;usb_device_hid.c: 226: idle_rate = ((USB_SETUP_SET_IDLE_RATE*)&SetupPkt)->duration;
 12647  001CDE  C423 F0F6          	movff	1059,_idle_rate
 12648                           
 12649                           ;usb_device_hid.c: 227: ;
 12650                           ;usb_device_hid.c: 228: break;
 12651  001CE2  0012               	return	
 12652  001CE4                     i2l3599:
 12653                           
 12654                           ; BSR set to: 4
 12655                           ;usb_device_hid.c: 230: { inPipes[0].pSrc.bRam = (uint8_t*)&active_protocol; inPipes[0].
      +                          wCount.Val = 1; inPipes[0].info.Val = 0x00 | 0x80 | 0x01; };
 12656  001CE4  0EF5               	movlw	low _active_protocol
 12657  001CE6  6E22               	movwf	_inPipes,c	;volatile
 12658  001CE8  0E00               	movlw	high _active_protocol
 12659  001CEA  6E23               	movwf	_inPipes+1,c	;volatile
 12660                           
 12661                           ; BSR set to: 4
 12662  001CEC  0E00               	movlw	0
 12663  001CEE  6E27               	movwf	_inPipes+5,c	;volatile
 12664  001CF0  0E01               	movlw	1
 12665  001CF2  6E26               	movwf	_inPipes+4,c	;volatile
 12666                           
 12667                           ; BSR set to: 4
 12668  001CF4  0E81               	movlw	129
 12669  001CF6  6E25               	movwf	_inPipes+3,c	;volatile
 12670                           
 12671                           ;usb_device_hid.c: 234: break;
 12672  001CF8  0012               	return	
 12673  001CFA                     i2l3605:
 12674                           
 12675                           ; BSR set to: 4
 12676                           ;usb_device_hid.c: 236: inPipes[0].info.Val = 0x00 | 0x80;
 12677  001CFA  0E80               	movlw	128
 12678  001CFC  6E25               	movwf	_inPipes+3,c	;volatile
 12679                           
 12680                           ; BSR set to: 4
 12681                           ;usb_device_hid.c: 237: active_protocol = ((USB_SETUP_SET_PROTOCOL*)&SetupPkt)->protocol
      +                          ;
 12682  001CFE  C422 F0F5          	movff	1058,_active_protocol
 12683                           
 12684                           ; BSR set to: 4
 12685                           ;usb_device_hid.c: 239: }
 12686                           
 12687                           ;usb_device_hid.c: 238: break;
 12688  001D02  0012               	return	
 12689  001D04                     i2l3611:
 12690                           
 12691                           ; BSR set to: 4
 12692  001D04  0104               	movlb	4	; () banked
 12693  001D06  5121               	movf	33,w,b	;volatile
 12694                           
 12695                           ; Switch size 1, requested type "space"
 12696                           ; Number of cases is 6, Range of values is 1 to 11
 12697                           ; switch strategies available:
 12698                           ; Name         Instructions Cycles
 12699                           ; simple_byte           19    10 (average)
 12700                           ;	Chosen strategy is simple_byte
 12701  001D08  0A01               	xorlw	1	; case 1
 12702  001D0A  B4D8               	btfsc	status,2,c
 12703  001D0C  0012               	return	
 12704  001D0E  0A03               	xorlw	3	; case 2
 12705  001D10  B4D8               	btfsc	status,2,c
 12706  001D12  D7D8               	goto	i2l3589
 12707  001D14  0A01               	xorlw	1	; case 3
 12708  001D16  B4D8               	btfsc	status,2,c
 12709  001D18  D7E5               	goto	i2l3599
 12710  001D1A  0A0A               	xorlw	10	; case 9
 12711  001D1C  B4D8               	btfsc	status,2,c
 12712  001D1E  0012               	return	
 12713  001D20  0A03               	xorlw	3	; case 10
 12714  001D22  B4D8               	btfsc	status,2,c
 12715  001D24  D7DA               	goto	i2l3595
 12716  001D26  0A01               	xorlw	1	; case 11
 12717  001D28  A4D8               	btfss	status,2,c
 12718  001D2A  0012               	return	
 12719  001D2C  D7E6               	goto	i2l3605
 12720                           
 12721                           ; BSR set to: 4
 12722                           
 12723                           ; BSR set to: 4
 12724  001D2E  0012               	return		;funcret
 12725  001D30                     __end_of_USBCheckHIDRequest:
 12726                           	opt stack 0
 12727                           pclatu	equ	0xFFB
 12728                           pclath	equ	0xFFA
 12729                           tblptru	equ	0xFF8
 12730                           tblptrh	equ	0xFF7
 12731                           tblptrl	equ	0xFF6
 12732                           tablat	equ	0xFF5
 12733                           prodh	equ	0xFF4
 12734                           prodl	equ	0xFF3
 12735                           intcon	equ	0xFF2
 12736                           postinc0	equ	0xFEE
 12737                           fsr0h	equ	0xFEA
 12738                           fsr0l	equ	0xFE9
 12739                           wreg	equ	0xFE8
 12740                           indf1	equ	0xFE7
 12741                           fsr1h	equ	0xFE2
 12742                           fsr1l	equ	0xFE1
 12743                           indf2	equ	0xFDF
 12744                           postinc2	equ	0xFDE
 12745                           postdec2	equ	0xFDD
 12746                           plusw2	equ	0xFDB
 12747                           fsr2h	equ	0xFDA
 12748                           fsr2l	equ	0xFD9
 12749                           status	equ	0xFD8
 12750                           
 12751 ;; *************** function _APP_LEDUpdateUSBStatus *****************
 12752 ;; Defined at:
 12753 ;;		line 75 in file "../src/app_led_usb_status.c"
 12754 ;; Parameters:    Size  Location     Type
 12755 ;;		None
 12756 ;; Auto vars:     Size  Location     Type
 12757 ;;		None
 12758 ;; Return value:  Size  Location     Type
 12759 ;;		None               void
 12760 ;; Registers used:
 12761 ;;		wreg, status,2, status,0, cstack
 12762 ;; Tracked objects:
 12763 ;;		On entry : 0/0
 12764 ;;		On exit  : 0/0
 12765 ;;		Unchanged: 0/0
 12766 ;; Data sizes:     COMRAM   BANK0   BANK1   BANK2   BANK3   BANK4   BANK5   BANK6   BANK7
 12767 ;;      Params:         0       0       0       0       0       0       0       0       0
 12768 ;;      Locals:         0       0       0       0       0       0       0       0       0
 12769 ;;      Temps:          0       0       0       0       0       0       0       0       0
 12770 ;;      Totals:         0       0       0       0       0       0       0       0       0
 12771 ;;Total ram usage:        0 bytes
 12772 ;; Hardware stack levels used:    1
 12773 ;; Hardware stack levels required when called:    1
 12774 ;; This function calls:
 12775 ;;		i2_LED_Off
 12776 ;;		i2_LED_On
 12777 ;; This function is called by:
 12778 ;;		_USER_USB_CALLBACK_EVENT_HANDLER
 12779 ;; This function uses a non-reentrant model
 12780 ;;
 12781                           
 12782                           	psect	text62
 12783  0028FE                     __ptext62:
 12784                           	opt stack 0
 12785  0028FE                     _APP_LEDUpdateUSBStatus:
 12786                           	opt stack 20
 12787                           
 12788                           ;app_led_usb_status.c: 77: static uint16_t ledCount = 0;
 12789                           ;app_led_usb_status.c: 79: if(USBBusIsSuspended == 1)
 12790                           
 12791                           ; BSR set to: 4
 12792                           ;incstack = 0
 12793  0028FE  0419               	decf	_USBBusIsSuspended,w,c	;volatile
 12794  002900  A4D8               	btfss	status,2,c
 12795  002902  D038               	goto	i2l3545
 12796                           
 12797                           ;app_led_usb_status.c: 80: {
 12798                           ;app_led_usb_status.c: 81: LED_Off(LED_NONE);
 12799  002904  0E00               	movlw	0
 12800  002906  ECBE  F018         	call	i2_LED_Off
 12801                           
 12802                           ;app_led_usb_status.c: 82: return;
 12803  00290A  0012               	return	
 12804                           
 12805                           ;app_led_usb_status.c: 83: }
 12806                           ;app_led_usb_status.c: 85: switch(USBDeviceState)
 12807  00290C  D033               	goto	i2l3545
 12808  00290E                     i2l3519:
 12809                           
 12810                           ;app_led_usb_status.c: 90: if(ledCount == 1)
 12811  00290E  040D               	decf	APP_LEDUpdateUSBStatus@ledCount,w,c
 12812  002910  100E               	iorwf	APP_LEDUpdateUSBStatus@ledCount+1,w,c
 12813  002912  A4D8               	btfss	status,2,c
 12814  002914  D004               	goto	i2l3523
 12815                           
 12816                           ;app_led_usb_status.c: 91: {
 12817                           ;app_led_usb_status.c: 92: LED_On(LED_NONE);
 12818  002916  0E00               	movlw	0
 12819  002918  ECAC  F018         	call	i2_LED_On
 12820                           
 12821                           ;app_led_usb_status.c: 93: }
 12822  00291C  D030               	goto	i2l3547
 12823  00291E                     i2l3523:
 12824                           
 12825                           ;app_led_usb_status.c: 94: else if(ledCount == 75)
 12826  00291E  0E4B               	movlw	75
 12827  002920  180D               	xorwf	APP_LEDUpdateUSBStatus@ledCount,w,c
 12828  002922  100E               	iorwf	APP_LEDUpdateUSBStatus@ledCount+1,w,c
 12829  002924  A4D8               	btfss	status,2,c
 12830  002926  D004               	goto	i2l3527
 12831                           
 12832                           ;app_led_usb_status.c: 95: {
 12833                           ;app_led_usb_status.c: 96: LED_Off(LED_NONE);
 12834  002928  0E00               	movlw	0
 12835  00292A  ECBE  F018         	call	i2_LED_Off
 12836                           
 12837                           ;app_led_usb_status.c: 97: }
 12838  00292E  D027               	goto	i2l3547
 12839  002930                     i2l3527:
 12840                           
 12841                           ;app_led_usb_status.c: 98: else if(ledCount > 150)
 12842  002930  500E               	movf	APP_LEDUpdateUSBStatus@ledCount+1,w,c
 12843  002932  E104               	bnz	i2u260_40
 12844  002934  0E97               	movlw	151
 12845  002936  5C0D               	subwf	APP_LEDUpdateUSBStatus@ledCount,w,c
 12846  002938  A0D8               	btfss	status,0,c
 12847  00293A  D021               	goto	i2l3547
 12848  00293C                     i2u260_40:
 12849                           
 12850                           ;app_led_usb_status.c: 99: {
 12851                           ;app_led_usb_status.c: 100: ledCount = 0;
 12852  00293C  0E00               	movlw	0
 12853  00293E  6E0E               	movwf	APP_LEDUpdateUSBStatus@ledCount+1,c
 12854  002940  0E00               	movlw	0
 12855  002942  6E0D               	movwf	APP_LEDUpdateUSBStatus@ledCount,c
 12856                           
 12857                           ;app_led_usb_status.c: 101: }
 12858                           ;app_led_usb_status.c: 102: break;
 12859  002944  D01C               	goto	i2l3547
 12860  002946                     i2l3531:
 12861                           
 12862                           ;app_led_usb_status.c: 107: if(ledCount == 1)
 12863  002946  040D               	decf	APP_LEDUpdateUSBStatus@ledCount,w,c
 12864  002948  100E               	iorwf	APP_LEDUpdateUSBStatus@ledCount+1,w,c
 12865  00294A  A4D8               	btfss	status,2,c
 12866  00294C  D004               	goto	i2l3535
 12867                           
 12868                           ;app_led_usb_status.c: 108: {
 12869                           ;app_led_usb_status.c: 109: LED_On(LED_NONE);
 12870  00294E  0E00               	movlw	0
 12871  002950  ECAC  F018         	call	i2_LED_On
 12872                           
 12873                           ;app_led_usb_status.c: 110: }
 12874  002954  D014               	goto	i2l3547
 12875  002956                     i2l3535:
 12876                           
 12877                           ;app_led_usb_status.c: 111: else if(ledCount == 50)
 12878  002956  0E32               	movlw	50
 12879  002958  180D               	xorwf	APP_LEDUpdateUSBStatus@ledCount,w,c
 12880  00295A  100E               	iorwf	APP_LEDUpdateUSBStatus@ledCount+1,w,c
 12881  00295C  A4D8               	btfss	status,2,c
 12882  00295E  D004               	goto	i2l3539
 12883                           
 12884                           ;app_led_usb_status.c: 112: {
 12885                           ;app_led_usb_status.c: 113: LED_Off(LED_NONE);
 12886  002960  0E00               	movlw	0
 12887  002962  ECBE  F018         	call	i2_LED_Off
 12888                           
 12889                           ;app_led_usb_status.c: 114: }
 12890  002966  D00B               	goto	i2l3547
 12891  002968                     i2l3539:
 12892                           
 12893                           ;app_led_usb_status.c: 115: else if(ledCount > 950)
 12894  002968  0EB7               	movlw	183
 12895  00296A  5C0D               	subwf	APP_LEDUpdateUSBStatus@ledCount,w,c
 12896  00296C  0E03               	movlw	3
 12897  00296E  580E               	subwfb	APP_LEDUpdateUSBStatus@ledCount+1,w,c
 12898  002970  D7E3               	goto	L16
 12899                           
 12900                           ;app_led_usb_status.c: 120: }
 12901                           
 12902                           ;app_led_usb_status.c: 118: }
 12903                           ;app_led_usb_status.c: 119: break;
 12904                           
 12905                           ;app_led_usb_status.c: 116: {
 12906                           ;app_led_usb_status.c: 117: ledCount = 0;
 12907  002972  D005               	goto	i2l3547
 12908  002974                     i2l3545:
 12909  002974  501B               	movf	_USBDeviceState,w,c	;volatile
 12910                           
 12911                           ; Switch size 1, requested type "space"
 12912                           ; Number of cases is 1, Range of values is 32 to 32
 12913                           ; switch strategies available:
 12914                           ; Name         Instructions Cycles
 12915                           ; simple_byte            4     3 (average)
 12916                           ;	Chosen strategy is simple_byte
 12917  002976  0A20               	xorlw	32	; case 32
 12918  002978  B4D8               	btfsc	status,2,c
 12919  00297A  D7C9               	goto	i2l3519
 12920  00297C  D7E4               	goto	i2l3531
 12921  00297E                     i2l3547:
 12922                           
 12923                           ;app_led_usb_status.c: 123: ledCount++;
 12924  00297E  4A0D               	infsnz	APP_LEDUpdateUSBStatus@ledCount,f,c
 12925  002980  2A0E               	incf	APP_LEDUpdateUSBStatus@ledCount+1,f,c
 12926  002982  0012               	return		;funcret
 12927  002984                     __end_of_APP_LEDUpdateUSBStatus:
 12928                           	opt stack 0
 12929                           pclatu	equ	0xFFB
 12930                           pclath	equ	0xFFA
 12931                           tblptru	equ	0xFF8
 12932                           tblptrh	equ	0xFF7
 12933                           tblptrl	equ	0xFF6
 12934                           tablat	equ	0xFF5
 12935                           prodh	equ	0xFF4
 12936                           prodl	equ	0xFF3
 12937                           intcon	equ	0xFF2
 12938                           postinc0	equ	0xFEE
 12939                           fsr0h	equ	0xFEA
 12940                           fsr0l	equ	0xFE9
 12941                           wreg	equ	0xFE8
 12942                           indf1	equ	0xFE7
 12943                           fsr1h	equ	0xFE2
 12944                           fsr1l	equ	0xFE1
 12945                           indf2	equ	0xFDF
 12946                           postinc2	equ	0xFDE
 12947                           postdec2	equ	0xFDD
 12948                           plusw2	equ	0xFDB
 12949                           fsr2h	equ	0xFDA
 12950                           fsr2l	equ	0xFD9
 12951                           status	equ	0xFD8
 12952                           
 12953 ;; *************** function i2_LED_On *****************
 12954 ;; Defined at:
 12955 ;;		line 67 in file "../bsp_pic18f45k50/leds.c"
 12956 ;; Parameters:    Size  Location     Type
 12957 ;;  led             1    wreg     enum E2
 12958 ;; Auto vars:     Size  Location     Type
 12959 ;;  led             1    0[COMRAM] enum E2
 12960 ;; Return value:  Size  Location     Type
 12961 ;;		None               void
 12962 ;; Registers used:
 12963 ;;		wreg, status,2, status,0
 12964 ;; Tracked objects:
 12965 ;;		On entry : 0/0
 12966 ;;		On exit  : 0/0
 12967 ;;		Unchanged: 0/0
 12968 ;; Data sizes:     COMRAM   BANK0   BANK1   BANK2   BANK3   BANK4   BANK5   BANK6   BANK7
 12969 ;;      Params:         0       0       0       0       0       0       0       0       0
 12970 ;;      Locals:         1       0       0       0       0       0       0       0       0
 12971 ;;      Temps:          0       0       0       0       0       0       0       0       0
 12972 ;;      Totals:         1       0       0       0       0       0       0       0       0
 12973 ;;Total ram usage:        1 bytes
 12974 ;; Hardware stack levels used:    1
 12975 ;; This function calls:
 12976 ;;		Nothing
 12977 ;; This function is called by:
 12978 ;;		_APP_LEDUpdateUSBStatus
 12979 ;; This function uses a non-reentrant model
 12980 ;;
 12981                           
 12982                           	psect	text63
 12983  003158                     __ptext63:
 12984                           	opt stack 0
 12985  003158                     i2_LED_On:
 12986                           	opt stack 20
 12987                           
 12988                           ;incstack = 0
 12989                           ;i2LED_On@led stored from wreg
 12990  003158  6E2B               	movwf	i2LED_On@led,c
 12991                           
 12992                           ;leds.c: 69: switch(led)
 12993  00315A  D004               	goto	i2l3469
 12994  00315C                     i2l89:
 12995                           
 12996                           ;leds.c: 72: LATCbits.LATC2 = 1;
 12997  00315C  848B               	bsf	3979,2,c	;volatile
 12998                           
 12999                           ;leds.c: 73: break;
 13000  00315E  0012               	return	
 13001  003160                     i2l91:
 13002                           
 13003                           ;leds.c: 76: LATCbits.LATC0 = 1;
 13004  003160  808B               	bsf	3979,0,c	;volatile
 13005                           
 13006                           ;leds.c: 89: }
 13007                           
 13008                           ;leds.c: 88: break;
 13009                           
 13010                           ;leds.c: 87: case LED_NONE:
 13011                           
 13012                           ;leds.c: 77: break;
 13013  003162  0012               	return	
 13014  003164                     i2l3469:
 13015  003164  502B               	movf	i2LED_On@led,w,c
 13016                           
 13017                           ; Switch size 1, requested type "space"
 13018                           ; Number of cases is 3, Range of values is 0 to 2
 13019                           ; switch strategies available:
 13020                           ; Name         Instructions Cycles
 13021                           ; simple_byte           10     6 (average)
 13022                           ;	Chosen strategy is simple_byte
 13023  003166  0A00               	xorlw	0	; case 0
 13024  003168  B4D8               	btfsc	status,2,c
 13025  00316A  0012               	return	
 13026  00316C  0A01               	xorlw	1	; case 1
 13027  00316E  B4D8               	btfsc	status,2,c
 13028  003170  D7F5               	goto	i2l89
 13029  003172  0A03               	xorlw	3	; case 2
 13030  003174  A4D8               	btfss	status,2,c
 13031  003176  0012               	return	
 13032  003178  D7F3               	goto	i2l91
 13033  00317A  0012               	return		;funcret
 13034  00317C                     __end_ofi2_LED_On:
 13035                           	opt stack 0
 13036                           pclatu	equ	0xFFB
 13037                           pclath	equ	0xFFA
 13038                           tblptru	equ	0xFF8
 13039                           tblptrh	equ	0xFF7
 13040                           tblptrl	equ	0xFF6
 13041                           tablat	equ	0xFF5
 13042                           prodh	equ	0xFF4
 13043                           prodl	equ	0xFF3
 13044                           intcon	equ	0xFF2
 13045                           postinc0	equ	0xFEE
 13046                           fsr0h	equ	0xFEA
 13047                           fsr0l	equ	0xFE9
 13048                           wreg	equ	0xFE8
 13049                           indf1	equ	0xFE7
 13050                           fsr1h	equ	0xFE2
 13051                           fsr1l	equ	0xFE1
 13052                           indf2	equ	0xFDF
 13053                           postinc2	equ	0xFDE
 13054                           postdec2	equ	0xFDD
 13055                           plusw2	equ	0xFDB
 13056                           fsr2h	equ	0xFDA
 13057                           fsr2l	equ	0xFD9
 13058                           status	equ	0xFD8
 13059                           
 13060 ;; *************** function i2_LED_Off *****************
 13061 ;; Defined at:
 13062 ;;		line 108 in file "../bsp_pic18f45k50/leds.c"
 13063 ;; Parameters:    Size  Location     Type
 13064 ;;  led             1    wreg     enum E2
 13065 ;; Auto vars:     Size  Location     Type
 13066 ;;  led             1    0[COMRAM] enum E2
 13067 ;; Return value:  Size  Location     Type
 13068 ;;		None               void
 13069 ;; Registers used:
 13070 ;;		wreg, status,2, status,0
 13071 ;; Tracked objects:
 13072 ;;		On entry : 0/0
 13073 ;;		On exit  : 0/0
 13074 ;;		Unchanged: 0/0
 13075 ;; Data sizes:     COMRAM   BANK0   BANK1   BANK2   BANK3   BANK4   BANK5   BANK6   BANK7
 13076 ;;      Params:         0       0       0       0       0       0       0       0       0
 13077 ;;      Locals:         1       0       0       0       0       0       0       0       0
 13078 ;;      Temps:          0       0       0       0       0       0       0       0       0
 13079 ;;      Totals:         1       0       0       0       0       0       0       0       0
 13080 ;;Total ram usage:        1 bytes
 13081 ;; Hardware stack levels used:    1
 13082 ;; This function calls:
 13083 ;;		Nothing
 13084 ;; This function is called by:
 13085 ;;		_APP_LEDUpdateUSBStatus
 13086 ;; This function uses a non-reentrant model
 13087 ;;
 13088                           
 13089                           	psect	text64
 13090  00317C                     __ptext64:
 13091                           	opt stack 0
 13092  00317C                     i2_LED_Off:
 13093                           	opt stack 20
 13094                           
 13095                           ;incstack = 0
 13096                           ;i2LED_Off@led stored from wreg
 13097  00317C  6E2B               	movwf	i2LED_Off@led,c
 13098                           
 13099                           ;leds.c: 110: switch(led)
 13100  00317E  D004               	goto	i2l3475
 13101  003180                     i2l97:
 13102                           
 13103                           ;leds.c: 113: LATCbits.LATC2 = 0;
 13104  003180  948B               	bcf	3979,2,c	;volatile
 13105                           
 13106                           ;leds.c: 114: break;
 13107  003182  0012               	return	
 13108  003184                     i2l99:
 13109                           
 13110                           ;leds.c: 117: LATCbits.LATC0 = 0;
 13111  003184  908B               	bcf	3979,0,c	;volatile
 13112                           
 13113                           ;leds.c: 130: }
 13114                           
 13115                           ;leds.c: 129: break;
 13116                           
 13117                           ;leds.c: 128: case LED_NONE:
 13118                           
 13119                           ;leds.c: 118: break;
 13120  003186  0012               	return	
 13121  003188                     i2l3475:
 13122  003188  502B               	movf	i2LED_Off@led,w,c
 13123                           
 13124                           ; Switch size 1, requested type "space"
 13125                           ; Number of cases is 3, Range of values is 0 to 2
 13126                           ; switch strategies available:
 13127                           ; Name         Instructions Cycles
 13128                           ; simple_byte           10     6 (average)
 13129                           ;	Chosen strategy is simple_byte
 13130  00318A  0A00               	xorlw	0	; case 0
 13131  00318C  B4D8               	btfsc	status,2,c
 13132  00318E  0012               	return	
 13133  003190  0A01               	xorlw	1	; case 1
 13134  003192  B4D8               	btfsc	status,2,c
 13135  003194  D7F5               	goto	i2l97
 13136  003196  0A03               	xorlw	3	; case 2
 13137  003198  A4D8               	btfss	status,2,c
 13138  00319A  0012               	return	
 13139  00319C  D7F3               	goto	i2l99
 13140  00319E  0012               	return		;funcret
 13141  0031A0                     __end_ofi2_LED_Off:
 13142                           	opt stack 0
 13143                           pclatu	equ	0xFFB
 13144                           pclath	equ	0xFFA
 13145                           tblptru	equ	0xFF8
 13146                           tblptrh	equ	0xFF7
 13147                           tblptrl	equ	0xFF6
 13148                           tablat	equ	0xFF5
 13149                           prodh	equ	0xFF4
 13150                           prodl	equ	0xFF3
 13151                           intcon	equ	0xFF2
 13152                           postinc0	equ	0xFEE
 13153                           fsr0h	equ	0xFEA
 13154                           fsr0l	equ	0xFE9
 13155                           wreg	equ	0xFE8
 13156                           indf1	equ	0xFE7
 13157                           fsr1h	equ	0xFE2
 13158                           fsr1l	equ	0xFE1
 13159                           indf2	equ	0xFDF
 13160                           postinc2	equ	0xFDE
 13161                           postdec2	equ	0xFDD
 13162                           plusw2	equ	0xFDB
 13163                           fsr2h	equ	0xFDA
 13164                           fsr2l	equ	0xFD9
 13165                           status	equ	0xFD8
 13166                           
 13167 ;; *************** function _APP_DeviceCustomHIDInitialize *****************
 13168 ;; Defined at:
 13169 ;;		line 84 in file "../src/app_device_custom_hid.c"
 13170 ;; Parameters:    Size  Location     Type
 13171 ;;		None
 13172 ;; Auto vars:     Size  Location     Type
 13173 ;;		None
 13174 ;; Return value:  Size  Location     Type
 13175 ;;		None               void
 13176 ;; Registers used:
 13177 ;;		wreg, fsr2l, fsr2h, status,2, status,0, prodl, prodh, cstack
 13178 ;; Tracked objects:
 13179 ;;		On entry : 0/0
 13180 ;;		On exit  : 0/0
 13181 ;;		Unchanged: 0/0
 13182 ;; Data sizes:     COMRAM   BANK0   BANK1   BANK2   BANK3   BANK4   BANK5   BANK6   BANK7
 13183 ;;      Params:         0       0       0       0       0       0       0       0       0
 13184 ;;      Locals:         0       0       0       0       0       0       0       0       0
 13185 ;;      Temps:          0       0       0       0       0       0       0       0       0
 13186 ;;      Totals:         0       0       0       0       0       0       0       0       0
 13187 ;;Total ram usage:        0 bytes
 13188 ;; Hardware stack levels used:    1
 13189 ;; Hardware stack levels required when called:    2
 13190 ;; This function calls:
 13191 ;;		_USBEnableEndpoint
 13192 ;;		i2_USBTransferOnePacket
 13193 ;; This function is called by:
 13194 ;;		_USER_USB_CALLBACK_EVENT_HANDLER
 13195 ;; This function uses a non-reentrant model
 13196 ;;
 13197                           
 13198                           	psect	text65
 13199  002EE8                     __ptext65:
 13200                           	opt stack 0
 13201  002EE8                     _APP_DeviceCustomHIDInitialize:
 13202                           	opt stack 19
 13203                           
 13204                           ;app_device_custom_hid.c: 88: USBInHandle = 0;
 13205                           
 13206                           ;incstack = 0
 13207  002EE8  0E00               	movlw	0
 13208  002EEA  0100               	movlb	0	; () banked
 13209  002EEC  6FEA               	movwf	_USBInHandle& (0+255),b
 13210  002EEE  0E00               	movlw	0
 13211  002EF0  0100               	movlb	0	; () banked
 13212  002EF2  6FEB               	movwf	(_USBInHandle+1)& (0+255),b
 13213                           
 13214                           ; BSR set to: 0
 13215                           ;app_device_custom_hid.c: 91: USBEnableEndpoint(1, 0x02|0x04|0x10|0x08);
 13216  002EF4  0E1E               	movlw	30
 13217  002EF6  6E33               	movwf	USBEnableEndpoint@options,c
 13218  002EF8  0E01               	movlw	1
 13219  002EFA  EC02  F017         	call	_USBEnableEndpoint
 13220                           
 13221                           ;app_device_custom_hid.c: 94: USBOutHandle = (volatile void*)USBTransferOnePacket(1,0,(u
      +                          int8_t*)&ReceivedDataBuffer,64);
 13222  002EFE  0E00               	movlw	0
 13223  002F00  6E2B               	movwf	i2USBTransferOnePacket@dir,c
 13224  002F02  0E00               	movlw	0
 13225  002F04  6E2C               	movwf	i2USBTransferOnePacket@data,c
 13226  002F06  0E05               	movlw	5
 13227  002F08  6E2D               	movwf	i2USBTransferOnePacket@data+1,c
 13228  002F0A  0E40               	movlw	64
 13229  002F0C  6E2E               	movwf	i2USBTransferOnePacket@len,c
 13230  002F0E  0E01               	movlw	1
 13231  002F10  EC96  F011         	call	i2_USBTransferOnePacket
 13232  002F14  C02B  F0EC         	movff	?i2_USBTransferOnePacket,_USBOutHandle
 13233  002F18  C02C  F0ED         	movff	?i2_USBTransferOnePacket+1,_USBOutHandle+1
 13234  002F1C  0012               	return		;funcret
 13235  002F1E                     __end_of_APP_DeviceCustomHIDInitialize:
 13236                           	opt stack 0
 13237                           pclatu	equ	0xFFB
 13238                           pclath	equ	0xFFA
 13239                           tblptru	equ	0xFF8
 13240                           tblptrh	equ	0xFF7
 13241                           tblptrl	equ	0xFF6
 13242                           tablat	equ	0xFF5
 13243                           prodh	equ	0xFF4
 13244                           prodl	equ	0xFF3
 13245                           intcon	equ	0xFF2
 13246                           postinc0	equ	0xFEE
 13247                           fsr0h	equ	0xFEA
 13248                           fsr0l	equ	0xFE9
 13249                           wreg	equ	0xFE8
 13250                           indf1	equ	0xFE7
 13251                           fsr1h	equ	0xFE2
 13252                           fsr1l	equ	0xFE1
 13253                           indf2	equ	0xFDF
 13254                           postinc2	equ	0xFDE
 13255                           postdec2	equ	0xFDD
 13256                           plusw2	equ	0xFDB
 13257                           fsr2h	equ	0xFDA
 13258                           fsr2l	equ	0xFD9
 13259                           status	equ	0xFD8
 13260                           
 13261 ;; *************** function i2_USBTransferOnePacket *****************
 13262 ;; Defined at:
 13263 ;;		line 1013 in file "../../../../../../microchip/mla/v2015_08_10/framework/usb/src/usb_device.c"
 13264 ;; Parameters:    Size  Location     Type
 13265 ;;  ep              1    wreg     unsigned char 
 13266 ;;  dir             1    0[COMRAM] unsigned char 
 13267 ;;  data            2    1[COMRAM] PTR unsigned char 
 13268 ;;		 -> ToSendDataBuffer(64), ReceivedDataBuffer(64), 
 13269 ;;  len             1    3[COMRAM] unsigned char 
 13270 ;; Auto vars:     Size  Location     Type
 13271 ;;  ep              1    4[COMRAM] unsigned char 
 13272 ;;  USBTransferO    2    5[COMRAM] PTR volatile struct __BD
 13273 ;;		 -> BDT(32), NULL(0), 
 13274 ;; Return value:  Size  Location     Type
 13275 ;;                  2    0[COMRAM] PTR void 
 13276 ;; Registers used:
 13277 ;;		wreg, fsr2l, fsr2h, status,2, status,0, prodl, prodh
 13278 ;; Tracked objects:
 13279 ;;		On entry : 0/0
 13280 ;;		On exit  : 0/0
 13281 ;;		Unchanged: 0/0
 13282 ;; Data sizes:     COMRAM   BANK0   BANK1   BANK2   BANK3   BANK4   BANK5   BANK6   BANK7
 13283 ;;      Params:         4       0       0       0       0       0       0       0       0
 13284 ;;      Locals:         3       0       0       0       0       0       0       0       0
 13285 ;;      Temps:          0       0       0       0       0       0       0       0       0
 13286 ;;      Totals:         7       0       0       0       0       0       0       0       0
 13287 ;;Total ram usage:        7 bytes
 13288 ;; Hardware stack levels used:    1
 13289 ;; This function calls:
 13290 ;;		Nothing
 13291 ;; This function is called by:
 13292 ;;		_APP_DeviceCustomHIDInitialize
 13293 ;; This function uses a non-reentrant model
 13294 ;;
 13295                           
 13296                           	psect	text66
 13297  00232C                     __ptext66:
 13298                           	opt stack 0
 13299  00232C                     i2_USBTransferOnePacket:
 13300                           	opt stack 20
 13301                           
 13302                           ;incstack = 0
 13303                           ;i2USBTransferOnePacket@ep stored from wreg
 13304  00232C  6E2F               	movwf	i2USBTransferOnePacket@ep,c
 13305                           
 13306                           ;usb_device.c: 1015: volatile BDT_ENTRY* handle;
 13307                           ;usb_device.c: 1018: if(dir != 0)
 13308  00232E  502B               	movf	i2USBTransferOnePacket@dir,w,c
 13309  002330  B4D8               	btfsc	status,2,c
 13310  002332  D007               	goto	i2l3487
 13311                           
 13312                           ;usb_device.c: 1019: {
 13313                           ;usb_device.c: 1021: handle = pBDTEntryIn[ep];
 13314  002334  502F               	movf	i2USBTransferOnePacket@ep,w,c
 13315  002336  0D02               	mullw	2
 13316  002338  0E09               	movlw	low _pBDTEntryIn
 13317  00233A  24F3               	addwf	prodl,w,c
 13318  00233C  6ED9               	movwf	fsr2l,c
 13319  00233E  0E00               	movlw	high _pBDTEntryIn
 13320  002340  D006               	goto	L17
 13321  002342                     i2l3487:
 13322                           
 13323                           ;usb_device.c: 1023: else
 13324                           ;usb_device.c: 1024: {
 13325                           ;usb_device.c: 1026: handle = pBDTEntryOut[ep];
 13326  002342  502F               	movf	i2USBTransferOnePacket@ep,w,c
 13327  002344  0D02               	mullw	2
 13328  002346  0EE6               	movlw	low _pBDTEntryOut
 13329  002348  24F3               	addwf	prodl,w,c
 13330  00234A  6ED9               	movwf	fsr2l,c
 13331  00234C  0E00               	movlw	high _pBDTEntryOut
 13332  00234E                     L17:
 13333  00234E  20F4               	addwfc	prodh,w,c
 13334  002350  6EDA               	movwf	fsr2h,c
 13335  002352  CFDE F030          	movff	postinc2,i2USBTransferOnePacket@handle
 13336  002356  CFDD F031          	movff	postdec2,i2USBTransferOnePacket@handle+1
 13337  00235A  D000               	goto	i2l3489
 13338  00235C                     i2l3489:
 13339                           
 13340                           ;usb_device.c: 1027: }
 13341                           ;usb_device.c: 1031: if(handle == 0)
 13342  00235C  5030               	movf	i2USBTransferOnePacket@handle,w,c
 13343  00235E  1031               	iorwf	i2USBTransferOnePacket@handle+1,w,c
 13344  002360  A4D8               	btfss	status,2,c
 13345  002362  D005               	goto	i2l3495
 13346                           
 13347                           ;usb_device.c: 1032: {
 13348                           ;usb_device.c: 1033: return 0;
 13349  002364  0E00               	movlw	0
 13350  002366  6E2B               	movwf	?i2_USBTransferOnePacket,c
 13351  002368  0E00               	movlw	0
 13352  00236A  6E2C               	movwf	?i2_USBTransferOnePacket+1,c
 13353  00236C  0012               	return	
 13354  00236E                     i2l3495:
 13355                           
 13356                           ;usb_device.c: 1034: }
 13357                           ;usb_device.c: 1047: handle->ADR = ((uint16_t)(data));
 13358  00236E  EE20 F002          	lfsr	2,2
 13359  002372  5030               	movf	i2USBTransferOnePacket@handle,w,c
 13360  002374  26D9               	addwf	fsr2l,f,c
 13361  002376  5031               	movf	i2USBTransferOnePacket@handle+1,w,c
 13362  002378  22DA               	addwfc	fsr2h,f,c
 13363  00237A  C02C  FFDE         	movff	i2USBTransferOnePacket@data,postinc2
 13364  00237E  C02D  FFDD         	movff	i2USBTransferOnePacket@data+1,postdec2
 13365                           
 13366                           ;usb_device.c: 1048: handle->CNT = len;
 13367  002382  EE20 F001          	lfsr	2,1
 13368  002386  5030               	movf	i2USBTransferOnePacket@handle,w,c
 13369  002388  26D9               	addwf	fsr2l,f,c
 13370  00238A  5031               	movf	i2USBTransferOnePacket@handle+1,w,c
 13371  00238C  22DA               	addwfc	fsr2h,f,c
 13372  00238E  C02E  FFDF         	movff	i2USBTransferOnePacket@len,indf2
 13373                           
 13374                           ;usb_device.c: 1049: handle->STAT.Val &= 0x40;
 13375  002392  C030  FFD9         	movff	i2USBTransferOnePacket@handle,fsr2l
 13376  002396  C031  FFDA         	movff	i2USBTransferOnePacket@handle+1,fsr2h
 13377  00239A  0E40               	movlw	64
 13378  00239C  16DF               	andwf	indf2,f,c
 13379                           
 13380                           ;usb_device.c: 1050: handle->STAT.Val |= (0x08 & 0x08);
 13381  00239E  C030  FFD9         	movff	i2USBTransferOnePacket@handle,fsr2l
 13382  0023A2  C031  FFDA         	movff	i2USBTransferOnePacket@handle+1,fsr2h
 13383  0023A6  0E00               	movlw	0
 13384  0023A8  86DB               	bsf	plusw2,3,c
 13385                           
 13386                           ;usb_device.c: 1051: handle->STAT.Val |= 0x80;
 13387  0023AA  C030  FFD9         	movff	i2USBTransferOnePacket@handle,fsr2l
 13388  0023AE  C031  FFDA         	movff	i2USBTransferOnePacket@handle+1,fsr2h
 13389  0023B2  0E00               	movlw	0
 13390  0023B4  8EDB               	bsf	plusw2,7,c
 13391                           
 13392                           ;usb_device.c: 1054: if(dir != 0)
 13393  0023B6  502B               	movf	i2USBTransferOnePacket@dir,w,c
 13394  0023B8  B4D8               	btfsc	status,2,c
 13395  0023BA  D007               	goto	i2l3507
 13396                           
 13397                           ;usb_device.c: 1055: {
 13398                           ;usb_device.c: 1057: {((uint8_t_VAL*)&pBDTEntryIn[ep])->Val ^= 0x0004;};
 13399  0023BC  502F               	movf	i2USBTransferOnePacket@ep,w,c
 13400  0023BE  0D02               	mullw	2
 13401  0023C0  0E09               	movlw	low _pBDTEntryIn
 13402  0023C2  24F3               	addwf	prodl,w,c
 13403  0023C4  6ED9               	movwf	fsr2l,c
 13404  0023C6  0E00               	movlw	high _pBDTEntryIn
 13405  0023C8  D006               	goto	L18
 13406  0023CA                     i2l3507:
 13407                           
 13408                           ;usb_device.c: 1059: else
 13409                           ;usb_device.c: 1060: {
 13410                           ;usb_device.c: 1062: {((uint8_t_VAL*)&pBDTEntryOut[ep])->Val ^= 0x0004;};
 13411  0023CA  502F               	movf	i2USBTransferOnePacket@ep,w,c
 13412  0023CC  0D02               	mullw	2
 13413  0023CE  0EE6               	movlw	low _pBDTEntryOut
 13414  0023D0  24F3               	addwf	prodl,w,c
 13415  0023D2  6ED9               	movwf	fsr2l,c
 13416  0023D4  0E00               	movlw	high _pBDTEntryOut
 13417  0023D6                     L18:
 13418  0023D6  20F4               	addwfc	prodh,w,c
 13419  0023D8  6EDA               	movwf	fsr2h,c
 13420  0023DA  0E04               	movlw	4
 13421  0023DC  1ADF               	xorwf	indf2,f,c
 13422  0023DE  D000               	goto	i2l3509
 13423  0023E0                     i2l3509:
 13424                           
 13425                           ;usb_device.c: 1063: }
 13426                           ;usb_device.c: 1064: return (void*)handle;
 13427  0023E0  C030  F02B         	movff	i2USBTransferOnePacket@handle,?i2_USBTransferOnePacket
 13428  0023E4  C031  F02C         	movff	i2USBTransferOnePacket@handle+1,?i2_USBTransferOnePacket+1
 13429  0023E8  0012               	return	
 13430  0023EA  0012               	return		;funcret
 13431  0023EC                     __end_ofi2_USBTransferOnePacket:
 13432                           	opt stack 0
 13433                           pclatu	equ	0xFFB
 13434                           pclath	equ	0xFFA
 13435                           tblptru	equ	0xFF8
 13436                           tblptrh	equ	0xFF7
 13437                           tblptrl	equ	0xFF6
 13438                           tablat	equ	0xFF5
 13439                           prodh	equ	0xFF4
 13440                           prodl	equ	0xFF3
 13441                           intcon	equ	0xFF2
 13442                           postinc0	equ	0xFEE
 13443                           fsr0h	equ	0xFEA
 13444                           fsr0l	equ	0xFE9
 13445                           wreg	equ	0xFE8
 13446                           indf1	equ	0xFE7
 13447                           fsr1h	equ	0xFE2
 13448                           fsr1l	equ	0xFE1
 13449                           indf2	equ	0xFDF
 13450                           postinc2	equ	0xFDE
 13451                           postdec2	equ	0xFDD
 13452                           plusw2	equ	0xFDB
 13453                           fsr2h	equ	0xFDA
 13454                           fsr2l	equ	0xFD9
 13455                           status	equ	0xFD8
 13456                           
 13457 ;; *************** function _USBEnableEndpoint *****************
 13458 ;; Defined at:
 13459 ;;		line 896 in file "../../../../../../microchip/mla/v2015_08_10/framework/usb/src/usb_device.c"
 13460 ;; Parameters:    Size  Location     Type
 13461 ;;  ep              1    wreg     unsigned char 
 13462 ;;  options         1    8[COMRAM] unsigned char 
 13463 ;; Auto vars:     Size  Location     Type
 13464 ;;  ep              1   11[COMRAM] unsigned char 
 13465 ;;  p               2    9[COMRAM] PTR unsigned char 
 13466 ;;		 -> UEP0(1), 
 13467 ;; Return value:  Size  Location     Type
 13468 ;;		None               void
 13469 ;; Registers used:
 13470 ;;		wreg, fsr2l, fsr2h, status,2, status,0, prodl, prodh, cstack
 13471 ;; Tracked objects:
 13472 ;;		On entry : 0/0
 13473 ;;		On exit  : 0/0
 13474 ;;		Unchanged: 0/0
 13475 ;; Data sizes:     COMRAM   BANK0   BANK1   BANK2   BANK3   BANK4   BANK5   BANK6   BANK7
 13476 ;;      Params:         1       0       0       0       0       0       0       0       0
 13477 ;;      Locals:         3       0       0       0       0       0       0       0       0
 13478 ;;      Temps:          0       0       0       0       0       0       0       0       0
 13479 ;;      Totals:         4       0       0       0       0       0       0       0       0
 13480 ;;Total ram usage:        4 bytes
 13481 ;; Hardware stack levels used:    1
 13482 ;; Hardware stack levels required when called:    1
 13483 ;; This function calls:
 13484 ;;		_USBConfigureEndpoint
 13485 ;; This function is called by:
 13486 ;;		_APP_DeviceCustomHIDInitialize
 13487 ;; This function uses a non-reentrant model
 13488 ;;
 13489                           
 13490                           	psect	text67
 13491  002E04                     __ptext67:
 13492                           	opt stack 0
 13493  002E04                     _USBEnableEndpoint:
 13494                           	opt stack 19
 13495                           
 13496                           ;incstack = 0
 13497                           ;USBEnableEndpoint@ep stored from wreg
 13498  002E04  6E36               	movwf	USBEnableEndpoint@ep,c
 13499                           
 13500                           ;usb_device.c: 898: unsigned char* p;
 13501                           ;usb_device.c: 902: if(options & 0x04)
 13502  002E06  A433               	btfss	USBEnableEndpoint@options,2,c
 13503  002E08  D006               	goto	i2l3439
 13504                           
 13505                           ;usb_device.c: 903: {
 13506                           ;usb_device.c: 904: USBConfigureEndpoint(ep, 0);
 13507  002E0A  0E00               	movlw	0
 13508  002E0C  6E2B               	movwf	USBConfigureEndpoint@direction,c
 13509  002E0E  5036               	movf	USBEnableEndpoint@ep,w,c
 13510  002E10  ECA8  F013         	call	_USBConfigureEndpoint
 13511  002E14  D000               	goto	i2l3439
 13512  002E16                     i2l3439:
 13513                           
 13514                           ;usb_device.c: 905: }
 13515                           ;usb_device.c: 906: if(options & 0x02)
 13516  002E16  A233               	btfss	USBEnableEndpoint@options,1,c
 13517  002E18  D006               	goto	i2l3443
 13518                           
 13519                           ;usb_device.c: 907: {
 13520                           ;usb_device.c: 908: USBConfigureEndpoint(ep, 1);
 13521  002E1A  0E01               	movlw	1
 13522  002E1C  6E2B               	movwf	USBConfigureEndpoint@direction,c
 13523  002E1E  5036               	movf	USBEnableEndpoint@ep,w,c
 13524  002E20  ECA8  F013         	call	_USBConfigureEndpoint
 13525  002E24  D000               	goto	i2l3443
 13526  002E26                     i2l3443:
 13527                           
 13528                           ;usb_device.c: 909: }
 13529                           ;usb_device.c: 917: p = (unsigned char*)(&UEP0+ep);
 13530  002E26  5036               	movf	USBEnableEndpoint@ep,w,c
 13531  002E28  0D01               	mullw	1
 13532  002E2A  0E6A               	movlw	106
 13533  002E2C  24F3               	addwf	prodl,w,c
 13534  002E2E  6E34               	movwf	USBEnableEndpoint@p,c
 13535  002E30  0E0F               	movlw	15
 13536  002E32  20F4               	addwfc	prodh,w,c
 13537  002E34  6E35               	movwf	USBEnableEndpoint@p+1,c
 13538                           
 13539                           ;usb_device.c: 919: *p = options;
 13540  002E36  C034  FFD9         	movff	USBEnableEndpoint@p,fsr2l
 13541  002E3A  C035  FFDA         	movff	USBEnableEndpoint@p+1,fsr2h
 13542  002E3E  C033  FFDF         	movff	USBEnableEndpoint@options,indf2
 13543  002E42  0012               	return		;funcret
 13544  002E44                     __end_of_USBEnableEndpoint:
 13545                           	opt stack 0
 13546                           pclatu	equ	0xFFB
 13547                           pclath	equ	0xFFA
 13548                           tblptru	equ	0xFF8
 13549                           tblptrh	equ	0xFF7
 13550                           tblptrl	equ	0xFF6
 13551                           tablat	equ	0xFF5
 13552                           prodh	equ	0xFF4
 13553                           prodl	equ	0xFF3
 13554                           intcon	equ	0xFF2
 13555                           postinc0	equ	0xFEE
 13556                           fsr0h	equ	0xFEA
 13557                           fsr0l	equ	0xFE9
 13558                           wreg	equ	0xFE8
 13559                           indf1	equ	0xFE7
 13560                           fsr1h	equ	0xFE2
 13561                           fsr1l	equ	0xFE1
 13562                           indf2	equ	0xFDF
 13563                           postinc2	equ	0xFDE
 13564                           postdec2	equ	0xFDD
 13565                           plusw2	equ	0xFDB
 13566                           fsr2h	equ	0xFDA
 13567                           fsr2l	equ	0xFD9
 13568                           status	equ	0xFD8
 13569                           
 13570 ;; *************** function _USBConfigureEndpoint *****************
 13571 ;; Defined at:
 13572 ;;		line 1561 in file "../../../../../../microchip/mla/v2015_08_10/framework/usb/src/usb_device.c"
 13573 ;; Parameters:    Size  Location     Type
 13574 ;;  EPNum           1    wreg     unsigned char 
 13575 ;;  direction       1    0[COMRAM] unsigned char 
 13576 ;; Auto vars:     Size  Location     Type
 13577 ;;  EPNum           1    5[COMRAM] unsigned char 
 13578 ;;  handle          2    6[COMRAM] PTR volatile struct __BD
 13579 ;;		 -> BDT(32), 
 13580 ;; Return value:  Size  Location     Type
 13581 ;;		None               void
 13582 ;; Registers used:
 13583 ;;		wreg, fsr2l, fsr2h, status,2, status,0, prodl, prodh
 13584 ;; Tracked objects:
 13585 ;;		On entry : 0/0
 13586 ;;		On exit  : 0/0
 13587 ;;		Unchanged: 0/0
 13588 ;; Data sizes:     COMRAM   BANK0   BANK1   BANK2   BANK3   BANK4   BANK5   BANK6   BANK7
 13589 ;;      Params:         1       0       0       0       0       0       0       0       0
 13590 ;;      Locals:         3       0       0       0       0       0       0       0       0
 13591 ;;      Temps:          4       0       0       0       0       0       0       0       0
 13592 ;;      Totals:         8       0       0       0       0       0       0       0       0
 13593 ;;Total ram usage:        8 bytes
 13594 ;; Hardware stack levels used:    1
 13595 ;; This function calls:
 13596 ;;		Nothing
 13597 ;; This function is called by:
 13598 ;;		_USBEnableEndpoint
 13599 ;; This function uses a non-reentrant model
 13600 ;;
 13601                           
 13602                           	psect	text68
 13603  002750                     __ptext68:
 13604                           	opt stack 0
 13605  002750                     _USBConfigureEndpoint:
 13606                           	opt stack 19
 13607                           
 13608                           ;incstack = 0
 13609                           ;USBConfigureEndpoint@EPNum stored from wreg
 13610  002750  6E30               	movwf	USBConfigureEndpoint@EPNum,c
 13611                           
 13612                           ;usb_device.c: 1563: volatile BDT_ENTRY* handle;
 13613                           ;usb_device.c: 1567: handle = (volatile BDT_ENTRY*)&BDT[0];
 13614  002752  0E00               	movlw	0
 13615  002754  6E31               	movwf	USBConfigureEndpoint@handle,c
 13616  002756  0E04               	movlw	4
 13617  002758  6E32               	movwf	USBConfigureEndpoint@handle+1,c
 13618                           
 13619                           ;usb_device.c: 1568: handle += (4*EPNum+2*direction+0u);
 13620  00275A  502B               	movf	USBConfigureEndpoint@direction,w,c
 13621  00275C  6E2C               	movwf	??_USBConfigureEndpoint& (0+255),c
 13622  00275E  6A2D               	clrf	(??_USBConfigureEndpoint+1)& (0+255),c
 13623  002760  90D8               	bcf	status,0,c
 13624  002762  362C               	rlcf	??_USBConfigureEndpoint,f,c
 13625  002764  362D               	rlcf	??_USBConfigureEndpoint+1,f,c
 13626  002766  5030               	movf	USBConfigureEndpoint@EPNum,w,c
 13627  002768  6E2E               	movwf	(??_USBConfigureEndpoint+2)& (0+255),c
 13628  00276A  6A2F               	clrf	(??_USBConfigureEndpoint+3)& (0+255),c
 13629  00276C  90D8               	bcf	status,0,c
 13630  00276E  362E               	rlcf	??_USBConfigureEndpoint+2,f,c
 13631  002770  362F               	rlcf	??_USBConfigureEndpoint+3,f,c
 13632  002772  90D8               	bcf	status,0,c
 13633  002774  362E               	rlcf	??_USBConfigureEndpoint+2,f,c
 13634  002776  362F               	rlcf	??_USBConfigureEndpoint+3,f,c
 13635  002778  502C               	movf	??_USBConfigureEndpoint,w,c
 13636  00277A  262E               	addwf	??_USBConfigureEndpoint+2,f,c
 13637  00277C  502D               	movf	??_USBConfigureEndpoint+1,w,c
 13638  00277E  222F               	addwfc	??_USBConfigureEndpoint+3,f,c
 13639  002780  90D8               	bcf	status,0,c
 13640  002782  362E               	rlcf	??_USBConfigureEndpoint+2,f,c
 13641  002784  362F               	rlcf	??_USBConfigureEndpoint+3,f,c
 13642  002786  90D8               	bcf	status,0,c
 13643  002788  362E               	rlcf	??_USBConfigureEndpoint+2,f,c
 13644  00278A  362F               	rlcf	??_USBConfigureEndpoint+3,f,c
 13645  00278C  502E               	movf	??_USBConfigureEndpoint+2,w,c
 13646  00278E  2631               	addwf	USBConfigureEndpoint@handle,f,c
 13647  002790  502F               	movf	??_USBConfigureEndpoint+3,w,c
 13648  002792  2232               	addwfc	USBConfigureEndpoint@handle+1,f,c
 13649                           
 13650                           ;usb_device.c: 1570: handle->STAT.UOWN = 0;
 13651  002794  C031  FFD9         	movff	USBConfigureEndpoint@handle,fsr2l
 13652  002798  C032  FFDA         	movff	USBConfigureEndpoint@handle+1,fsr2h
 13653  00279C  9EDF               	bcf	indf2,7,c
 13654                           
 13655                           ;usb_device.c: 1575: if(direction == 0)
 13656  00279E  502B               	movf	USBConfigureEndpoint@direction,w,c
 13657  0027A0  A4D8               	btfss	status,2,c
 13658  0027A2  D007               	goto	i2l3429
 13659                           
 13660                           ;usb_device.c: 1576: {
 13661                           ;usb_device.c: 1577: pBDTEntryOut[EPNum] = handle;
 13662  0027A4  5030               	movf	USBConfigureEndpoint@EPNum,w,c
 13663  0027A6  0D02               	mullw	2
 13664  0027A8  0EE6               	movlw	low _pBDTEntryOut
 13665  0027AA  24F3               	addwf	prodl,w,c
 13666  0027AC  6ED9               	movwf	fsr2l,c
 13667  0027AE  0E00               	movlw	high _pBDTEntryOut
 13668  0027B0  D006               	goto	L19
 13669  0027B2                     i2l3429:
 13670                           
 13671                           ;usb_device.c: 1579: else
 13672                           ;usb_device.c: 1580: {
 13673                           ;usb_device.c: 1581: pBDTEntryIn[EPNum] = handle;
 13674  0027B2  5030               	movf	USBConfigureEndpoint@EPNum,w,c
 13675  0027B4  0D02               	mullw	2
 13676  0027B6  0E09               	movlw	low _pBDTEntryIn
 13677  0027B8  24F3               	addwf	prodl,w,c
 13678  0027BA  6ED9               	movwf	fsr2l,c
 13679  0027BC  0E00               	movlw	high _pBDTEntryIn
 13680  0027BE                     L19:
 13681  0027BE  20F4               	addwfc	prodh,w,c
 13682  0027C0  6EDA               	movwf	fsr2h,c
 13683  0027C2  C031  FFDE         	movff	USBConfigureEndpoint@handle,postinc2
 13684  0027C6  C032  FFDD         	movff	USBConfigureEndpoint@handle+1,postdec2
 13685  0027CA  D000               	goto	i2l3431
 13686  0027CC                     i2l3431:
 13687                           
 13688                           ;usb_device.c: 1582: }
 13689                           ;usb_device.c: 1585: handle->STAT.DTS = 0;
 13690  0027CC  C031  FFD9         	movff	USBConfigureEndpoint@handle,fsr2l
 13691  0027D0  C032  FFDA         	movff	USBConfigureEndpoint@handle+1,fsr2h
 13692  0027D4  9CDF               	bcf	indf2,6,c
 13693                           
 13694                           ;usb_device.c: 1586: (handle+1)->STAT.DTS = 1;
 13695  0027D6  EE20 F004          	lfsr	2,4
 13696  0027DA  5031               	movf	USBConfigureEndpoint@handle,w,c
 13697  0027DC  26D9               	addwf	fsr2l,f,c
 13698  0027DE  5032               	movf	USBConfigureEndpoint@handle+1,w,c
 13699  0027E0  22DA               	addwfc	fsr2h,f,c
 13700  0027E2  8CDF               	bsf	indf2,6,c
 13701  0027E4  0012               	return		;funcret
 13702  0027E6                     __end_of_USBConfigureEndpoint:
 13703                           	opt stack 0
 13704                           pclatu	equ	0xFFB
 13705                           pclath	equ	0xFFA
 13706                           tblptru	equ	0xFF8
 13707                           tblptrh	equ	0xFF7
 13708                           tblptrl	equ	0xFF6
 13709                           tablat	equ	0xFF5
 13710                           prodh	equ	0xFF4
 13711                           prodl	equ	0xFF3
 13712                           intcon	equ	0xFF2
 13713                           postinc0	equ	0xFEE
 13714                           fsr0h	equ	0xFEA
 13715                           fsr0l	equ	0xFE9
 13716                           wreg	equ	0xFE8
 13717                           indf1	equ	0xFE7
 13718                           fsr1h	equ	0xFE2
 13719                           fsr1l	equ	0xFE1
 13720                           indf2	equ	0xFDF
 13721                           postinc2	equ	0xFDE
 13722                           postdec2	equ	0xFDD
 13723                           plusw2	equ	0xFDB
 13724                           fsr2h	equ	0xFDA
 13725                           fsr2l	equ	0xFD9
 13726                           status	equ	0xFD8
 13727                           
 13728 ;; *************** function _USBCtrlTrfOutHandler *****************
 13729 ;; Defined at:
 13730 ;;		line 2555 in file "../../../../../../microchip/mla/v2015_08_10/framework/usb/src/usb_device.c"
 13731 ;; Parameters:    Size  Location     Type
 13732 ;;		None
 13733 ;; Auto vars:     Size  Location     Type
 13734 ;;		None
 13735 ;; Return value:  Size  Location     Type
 13736 ;;		None               void
 13737 ;; Registers used:
 13738 ;;		wreg, fsr1l, fsr1h, fsr2l, fsr2h, status,2, status,0, prodl, prodh, cstack
 13739 ;; Tracked objects:
 13740 ;;		On entry : 0/0
 13741 ;;		On exit  : 0/0
 13742 ;;		Unchanged: 0/0
 13743 ;; Data sizes:     COMRAM   BANK0   BANK1   BANK2   BANK3   BANK4   BANK5   BANK6   BANK7
 13744 ;;      Params:         0       0       0       0       0       0       0       0       0
 13745 ;;      Locals:         0       0       0       0       0       0       0       0       0
 13746 ;;      Temps:          0       0       0       0       0       0       0       0       0
 13747 ;;      Totals:         0       0       0       0       0       0       0       0       0
 13748 ;;Total ram usage:        0 bytes
 13749 ;; Hardware stack levels used:    1
 13750 ;; Hardware stack levels required when called:    2
 13751 ;; This function calls:
 13752 ;;		_USBCtrlTrfRxService
 13753 ;; This function is called by:
 13754 ;;		_USBCtrlEPService
 13755 ;; This function uses a non-reentrant model
 13756 ;;
 13757                           
 13758                           	psect	text69
 13759  002BDA                     __ptext69:
 13760                           	opt stack 0
 13761  002BDA                     _USBCtrlTrfOutHandler:
 13762                           	opt stack 19
 13763                           
 13764                           ;usb_device.c: 2557: if(controlTransferState == 2)
 13765                           
 13766                           ;incstack = 0
 13767  002BDA  0E02               	movlw	2
 13768  002BDC  181F               	xorwf	_controlTransferState,w,c	;volatile
 13769  002BDE  A4D8               	btfss	status,2,c
 13770  002BE0  D003               	goto	i2l4559
 13771                           
 13772                           ;usb_device.c: 2558: {
 13773                           ;usb_device.c: 2559: USBCtrlTrfRxService();
 13774  002BE2  EC98  F00C         	call	_USBCtrlTrfRxService	;wreg free
 13775                           
 13776                           ;usb_device.c: 2560: }
 13777  002BE6  0012               	return	
 13778  002BE8                     i2l4559:
 13779                           
 13780                           ;usb_device.c: 2561: else
 13781                           ;usb_device.c: 2562: {
 13782                           ;usb_device.c: 2565: controlTransferState = 0;
 13783  002BE8  0E00               	movlw	0
 13784  002BEA  6E1F               	movwf	_controlTransferState,c	;volatile
 13785                           
 13786                           ;usb_device.c: 2572: if(BothEP0OutUOWNsSet == 0)
 13787  002BEC  5017               	movf	_BothEP0OutUOWNsSet,w,c	;volatile
 13788  002BEE  A4D8               	btfss	status,2,c
 13789  002BF0  D01F               	goto	i2l4567
 13790                           
 13791                           ;usb_device.c: 2573: {
 13792                           ;usb_device.c: 2574: pBDTEntryEP0OutNext->CNT = 8;
 13793  002BF2  EE20 F001          	lfsr	2,1
 13794  002BF6  5015               	movf	_pBDTEntryEP0OutNext,w,c
 13795  002BF8  26D9               	addwf	fsr2l,f,c
 13796  002BFA  5016               	movf	_pBDTEntryEP0OutNext+1,w,c
 13797  002BFC  22DA               	addwfc	fsr2h,f,c
 13798  002BFE  0E08               	movlw	8
 13799  002C00  6EDF               	movwf	indf2,c
 13800                           
 13801                           ;usb_device.c: 2575: pBDTEntryEP0OutNext->ADR = ((uint16_t)(&SetupPkt));
 13802  002C02  EE20 F002          	lfsr	2,2
 13803  002C06  5015               	movf	_pBDTEntryEP0OutNext,w,c
 13804  002C08  26D9               	addwf	fsr2l,f,c
 13805  002C0A  5016               	movf	_pBDTEntryEP0OutNext+1,w,c
 13806  002C0C  22DA               	addwfc	fsr2h,f,c
 13807  002C0E  0E20               	movlw	32
 13808  002C10  6EDE               	movwf	postinc2,c
 13809  002C12  0E04               	movlw	4
 13810  002C14  6EDD               	movwf	postdec2,c
 13811                           
 13812                           ;usb_device.c: 2576: pBDTEntryEP0OutNext->STAT.Val = 0x00|(0x08 & 0x08)|0x04;
 13813  002C16  C015  FFD9         	movff	_pBDTEntryEP0OutNext,fsr2l
 13814  002C1A  C016  FFDA         	movff	_pBDTEntryEP0OutNext+1,fsr2h
 13815  002C1E  0E0C               	movlw	12
 13816  002C20  6EDF               	movwf	indf2,c
 13817                           
 13818                           ;usb_device.c: 2577: pBDTEntryEP0OutNext->STAT.Val |= 0x80;
 13819  002C22  C015  FFD9         	movff	_pBDTEntryEP0OutNext,fsr2l
 13820  002C26  C016  FFDA         	movff	_pBDTEntryEP0OutNext+1,fsr2h
 13821  002C2A  0E00               	movlw	0
 13822  002C2C  8EDB               	bsf	plusw2,7,c
 13823                           
 13824                           ;usb_device.c: 2578: }
 13825  002C2E  0012               	return	
 13826  002C30                     i2l4567:
 13827                           
 13828                           ;usb_device.c: 2579: else
 13829                           ;usb_device.c: 2580: {
 13830                           ;usb_device.c: 2581: BothEP0OutUOWNsSet = 0;
 13831  002C30  0E00               	movlw	0
 13832  002C32  6E17               	movwf	_BothEP0OutUOWNsSet,c	;volatile
 13833  002C34  0012               	return	
 13834  002C36  0012               	return		;funcret
 13835  002C38                     __end_of_USBCtrlTrfOutHandler:
 13836                           	opt stack 0
 13837                           pclatu	equ	0xFFB
 13838                           pclath	equ	0xFFA
 13839                           tblptru	equ	0xFF8
 13840                           tblptrh	equ	0xFF7
 13841                           tblptrl	equ	0xFF6
 13842                           tablat	equ	0xFF5
 13843                           prodh	equ	0xFF4
 13844                           prodl	equ	0xFF3
 13845                           intcon	equ	0xFF2
 13846                           postinc0	equ	0xFEE
 13847                           fsr0h	equ	0xFEA
 13848                           fsr0l	equ	0xFE9
 13849                           wreg	equ	0xFE8
 13850                           indf1	equ	0xFE7
 13851                           fsr1h	equ	0xFE2
 13852                           fsr1l	equ	0xFE1
 13853                           indf2	equ	0xFDF
 13854                           postinc2	equ	0xFDE
 13855                           postdec2	equ	0xFDD
 13856                           plusw2	equ	0xFDB
 13857                           fsr2h	equ	0xFDA
 13858                           fsr2l	equ	0xFD9
 13859                           status	equ	0xFD8
 13860                           
 13861 ;; *************** function _USBCtrlTrfRxService *****************
 13862 ;; Defined at:
 13863 ;;		line 1870 in file "../../../../../../microchip/mla/v2015_08_10/framework/usb/src/usb_device.c"
 13864 ;; Parameters:    Size  Location     Type
 13865 ;;		None
 13866 ;; Auto vars:     Size  Location     Type
 13867 ;;  byteToRead      1    1[COMRAM] unsigned char 
 13868 ;;  i               1    0[COMRAM] unsigned char 
 13869 ;; Return value:  Size  Location     Type
 13870 ;;		None               void
 13871 ;; Registers used:
 13872 ;;		wreg, fsr1l, fsr1h, fsr2l, fsr2h, status,2, status,0, prodl, prodh, cstack
 13873 ;; Tracked objects:
 13874 ;;		On entry : 0/0
 13875 ;;		On exit  : 0/0
 13876 ;;		Unchanged: 0/0
 13877 ;; Data sizes:     COMRAM   BANK0   BANK1   BANK2   BANK3   BANK4   BANK5   BANK6   BANK7
 13878 ;;      Params:         0       0       0       0       0       0       0       0       0
 13879 ;;      Locals:         2       0       0       0       0       0       0       0       0
 13880 ;;      Temps:          0       0       0       0       0       0       0       0       0
 13881 ;;      Totals:         2       0       0       0       0       0       0       0       0
 13882 ;;Total ram usage:        2 bytes
 13883 ;; Hardware stack levels used:    1
 13884 ;; Hardware stack levels required when called:    1
 13885 ;; This function calls:
 13886 ;;		_USBCtrlEPAllowStatusStage
 13887 ;; This function is called by:
 13888 ;;		_USBCtrlTrfOutHandler
 13889 ;; This function uses a non-reentrant model
 13890 ;;
 13891                           
 13892                           	psect	text70
 13893  001930                     __ptext70:
 13894                           	opt stack 0
 13895  001930                     _USBCtrlTrfRxService:
 13896                           	opt stack 19
 13897                           
 13898                           ;usb_device.c: 1872: uint8_t byteToRead;
 13899                           ;usb_device.c: 1873: uint8_t i;
 13900                           ;usb_device.c: 1877: byteToRead = pBDTEntryEP0OutCurrent->CNT;
 13901                           
 13902                           ;incstack = 0
 13903  001930  EE20 F001          	lfsr	2,1
 13904  001934  5013               	movf	_pBDTEntryEP0OutCurrent,w,c
 13905  001936  26D9               	addwf	fsr2l,f,c
 13906  001938  5014               	movf	_pBDTEntryEP0OutCurrent+1,w,c
 13907  00193A  22DA               	addwfc	fsr2h,f,c
 13908  00193C  50DF               	movf	indf2,w,c
 13909  00193E  6E2C               	movwf	USBCtrlTrfRxService@byteToRead,c
 13910                           
 13911                           ;usb_device.c: 1883: if(byteToRead > outPipes[0].wCount.Val)
 13912  001940  502C               	movf	USBCtrlTrfRxService@byteToRead,w,c
 13913  001942  5C05               	subwf	_outPipes+4,w,c	;volatile
 13914  001944  0E00               	movlw	0
 13915  001946  5806               	subwfb	_outPipes+5,w,c	;volatile
 13916  001948  B0D8               	btfsc	status,0,c
 13917  00194A  D003               	goto	i2l4279
 13918                           
 13919                           ;usb_device.c: 1884: {
 13920                           ;usb_device.c: 1885: byteToRead = outPipes[0].wCount.Val;
 13921  00194C  C005  F02C         	movff	_outPipes+4,USBCtrlTrfRxService@byteToRead	;volatile
 13922  001950  D000               	goto	i2l4279
 13923  001952                     i2l4279:
 13924                           
 13925                           ;usb_device.c: 1886: }
 13926                           ;usb_device.c: 1888: outPipes[0].wCount.Val -= byteToRead;
 13927  001952  502C               	movf	USBCtrlTrfRxService@byteToRead,w,c
 13928  001954  5E05               	subwf	_outPipes+4,f,c	;volatile
 13929  001956  0E00               	movlw	0
 13930  001958  5A06               	subwfb	_outPipes+5,f,c	;volatile
 13931                           
 13932                           ;usb_device.c: 1892: for(i=0;i<byteToRead;i++)
 13933  00195A  0E00               	movlw	0
 13934  00195C  6E2B               	movwf	USBCtrlTrfRxService@i,c
 13935  00195E  D012               	goto	i2l4289
 13936  001960                     i2l4283:
 13937                           
 13938                           ;usb_device.c: 1893: {
 13939                           ;usb_device.c: 1894: *outPipes[0].pDst.bRam++ = CtrlTrfData[i];
 13940  001960  502B               	movf	USBCtrlTrfRxService@i,w,c
 13941  001962  0D01               	mullw	1
 13942  001964  0E28               	movlw	40
 13943  001966  24F3               	addwf	prodl,w,c
 13944  001968  6ED9               	movwf	fsr2l,c
 13945  00196A  0E04               	movlw	4
 13946  00196C  20F4               	addwfc	prodh,w,c
 13947  00196E  6EDA               	movwf	fsr2h,c
 13948  001970  C001  FFE1         	movff	_outPipes,fsr1l	;volatile
 13949  001974  C002  FFE2         	movff	_outPipes+1,fsr1h	;volatile
 13950  001978  CFDF FFE7          	movff	indf2,indf1
 13951  00197C  4A01               	infsnz	_outPipes,f,c	;volatile
 13952  00197E  2A02               	incf	_outPipes+1,f,c	;volatile
 13953  001980  2A2B               	incf	USBCtrlTrfRxService@i,f,c
 13954  001982  D000               	goto	i2l4289
 13955  001984                     i2l4289:
 13956  001984  502C               	movf	USBCtrlTrfRxService@byteToRead,w,c
 13957  001986  5C2B               	subwf	USBCtrlTrfRxService@i,w,c
 13958  001988  A0D8               	btfss	status,0,c
 13959  00198A  D7EA               	goto	i2l4283
 13960                           
 13961                           ;usb_device.c: 1895: }
 13962                           ;usb_device.c: 1899: if(outPipes[0].wCount.Val > 0)
 13963  00198C  5005               	movf	_outPipes+4,w,c	;volatile
 13964  00198E  1006               	iorwf	_outPipes+5,w,c	;volatile
 13965  001990  B4D8               	btfsc	status,2,c
 13966  001992  D032               	goto	i2l4305
 13967                           
 13968                           ;usb_device.c: 1900: {
 13969                           ;usb_device.c: 1901: pBDTEntryEP0OutNext->CNT = 8;
 13970  001994  EE20 F001          	lfsr	2,1
 13971  001998  5015               	movf	_pBDTEntryEP0OutNext,w,c
 13972  00199A  26D9               	addwf	fsr2l,f,c
 13973  00199C  5016               	movf	_pBDTEntryEP0OutNext+1,w,c
 13974  00199E  22DA               	addwfc	fsr2h,f,c
 13975  0019A0  0E08               	movlw	8
 13976  0019A2  6EDF               	movwf	indf2,c
 13977                           
 13978                           ;usb_device.c: 1902: pBDTEntryEP0OutNext->ADR = ((uint16_t)(&CtrlTrfData));
 13979  0019A4  EE20 F002          	lfsr	2,2
 13980  0019A8  5015               	movf	_pBDTEntryEP0OutNext,w,c
 13981  0019AA  26D9               	addwf	fsr2l,f,c
 13982  0019AC  5016               	movf	_pBDTEntryEP0OutNext+1,w,c
 13983  0019AE  22DA               	addwfc	fsr2h,f,c
 13984  0019B0  0E28               	movlw	40
 13985  0019B2  6EDE               	movwf	postinc2,c
 13986  0019B4  0E04               	movlw	4
 13987  0019B6  6EDD               	movwf	postdec2,c
 13988                           
 13989                           ;usb_device.c: 1903: if(pBDTEntryEP0OutCurrent->STAT.DTS == 0)
 13990  0019B8  C013  FFD9         	movff	_pBDTEntryEP0OutCurrent,fsr2l
 13991  0019BC  C014  FFDA         	movff	_pBDTEntryEP0OutCurrent+1,fsr2h
 13992  0019C0  BCDF               	btfsc	indf2,6,c
 13993  0019C2  D00D               	goto	i2l4301
 13994                           
 13995                           ;usb_device.c: 1904: {
 13996                           ;usb_device.c: 1905: pBDTEntryEP0OutNext->STAT.Val = 0x40|(0x08 & 0x08);
 13997  0019C4  C015  FFD9         	movff	_pBDTEntryEP0OutNext,fsr2l
 13998  0019C8  C016  FFDA         	movff	_pBDTEntryEP0OutNext+1,fsr2h
 13999  0019CC  0E48               	movlw	72
 14000  0019CE  6EDF               	movwf	indf2,c
 14001                           
 14002                           ;usb_device.c: 1906: pBDTEntryEP0OutNext->STAT.Val |= 0x80;
 14003  0019D0  C015  FFD9         	movff	_pBDTEntryEP0OutNext,fsr2l
 14004  0019D4  C016  FFDA         	movff	_pBDTEntryEP0OutNext+1,fsr2h
 14005  0019D8  0E00               	movlw	0
 14006  0019DA  8EDB               	bsf	plusw2,7,c
 14007                           
 14008                           ;usb_device.c: 1907: }
 14009  0019DC  0012               	return	
 14010  0019DE                     i2l4301:
 14011                           
 14012                           ;usb_device.c: 1908: else
 14013                           ;usb_device.c: 1909: {
 14014                           ;usb_device.c: 1910: pBDTEntryEP0OutNext->STAT.Val = 0x00|(0x08 & 0x08);
 14015  0019DE  C015  FFD9         	movff	_pBDTEntryEP0OutNext,fsr2l
 14016  0019E2  C016  FFDA         	movff	_pBDTEntryEP0OutNext+1,fsr2h
 14017  0019E6  0E08               	movlw	8
 14018  0019E8  6EDF               	movwf	indf2,c
 14019                           
 14020                           ;usb_device.c: 1911: pBDTEntryEP0OutNext->STAT.Val |= 0x80;
 14021  0019EA  C015  FFD9         	movff	_pBDTEntryEP0OutNext,fsr2l
 14022  0019EE  C016  FFDA         	movff	_pBDTEntryEP0OutNext+1,fsr2h
 14023  0019F2  0E00               	movlw	0
 14024  0019F4  8EDB               	bsf	plusw2,7,c
 14025                           
 14026                           ;usb_device.c: 1912: }
 14027                           ;usb_device.c: 1913: }
 14028  0019F6  0012               	return	
 14029  0019F8                     i2l4305:
 14030                           
 14031                           ;usb_device.c: 1914: else
 14032                           ;usb_device.c: 1915: {
 14033                           ;usb_device.c: 1919: pBDTEntryEP0OutNext->CNT = 8;
 14034  0019F8  EE20 F001          	lfsr	2,1
 14035  0019FC  5015               	movf	_pBDTEntryEP0OutNext,w,c
 14036  0019FE  26D9               	addwf	fsr2l,f,c
 14037  001A00  5016               	movf	_pBDTEntryEP0OutNext+1,w,c
 14038  001A02  22DA               	addwfc	fsr2h,f,c
 14039  001A04  0E08               	movlw	8
 14040  001A06  6EDF               	movwf	indf2,c
 14041                           
 14042                           ;usb_device.c: 1920: pBDTEntryEP0OutNext->ADR = ((uint16_t)(&SetupPkt));
 14043  001A08  EE20 F002          	lfsr	2,2
 14044  001A0C  5015               	movf	_pBDTEntryEP0OutNext,w,c
 14045  001A0E  26D9               	addwf	fsr2l,f,c
 14046  001A10  5016               	movf	_pBDTEntryEP0OutNext+1,w,c
 14047  001A12  22DA               	addwfc	fsr2h,f,c
 14048  001A14  0E20               	movlw	32
 14049  001A16  6EDE               	movwf	postinc2,c
 14050  001A18  0E04               	movlw	4
 14051  001A1A  6EDD               	movwf	postdec2,c
 14052                           
 14053                           ;usb_device.c: 1924: pBDTEntryEP0OutNext->STAT.Val = 0x04;
 14054  001A1C  C015  FFD9         	movff	_pBDTEntryEP0OutNext,fsr2l
 14055  001A20  C016  FFDA         	movff	_pBDTEntryEP0OutNext+1,fsr2h
 14056  001A24  0E04               	movlw	4
 14057  001A26  6EDF               	movwf	indf2,c
 14058                           
 14059                           ;usb_device.c: 1925: pBDTEntryEP0OutNext->STAT.Val |= 0x80;
 14060  001A28  C015  FFD9         	movff	_pBDTEntryEP0OutNext,fsr2l
 14061  001A2C  C016  FFDA         	movff	_pBDTEntryEP0OutNext+1,fsr2h
 14062  001A30  0E00               	movlw	0
 14063  001A32  8EDB               	bsf	plusw2,7,c
 14064                           
 14065                           ;usb_device.c: 1944: }
 14066                           ;usb_device.c: 1945: outPipes[0].info.bits.busy = 0;
 14067                           
 14068                           ;usb_device.c: 1933: {
 14069                           ;usb_device.c: 1939: outPipes[0].pFunc();
 14070  001A34  9E04               	bcf	_outPipes+3,7,c	;volatile
 14071                           
 14072                           ;usb_device.c: 1959: if(USBDeferStatusStagePacket == 0)
 14073  001A36  501A               	movf	_USBDeferStatusStagePacket,w,c	;volatile
 14074  001A38  A4D8               	btfss	status,2,c
 14075  001A3A  0012               	return	
 14076                           
 14077                           ;usb_device.c: 1960: {
 14078                           ;usb_device.c: 1961: USBCtrlEPAllowStatusStage();
 14079  001A3C  EC34  F011         	call	_USBCtrlEPAllowStatusStage	;wreg free
 14080  001A40  0012               	return	
 14081  001A42  0012               	return		;funcret
 14082  001A44                     __end_of_USBCtrlTrfRxService:
 14083                           	opt stack 0
 14084                           pclatu	equ	0xFFB
 14085                           pclath	equ	0xFFA
 14086                           tblptru	equ	0xFF8
 14087                           tblptrh	equ	0xFF7
 14088                           tblptrl	equ	0xFF6
 14089                           tablat	equ	0xFF5
 14090                           prodh	equ	0xFF4
 14091                           prodl	equ	0xFF3
 14092                           intcon	equ	0xFF2
 14093                           postinc0	equ	0xFEE
 14094                           fsr0h	equ	0xFEA
 14095                           fsr0l	equ	0xFE9
 14096                           wreg	equ	0xFE8
 14097                           indf1	equ	0xFE7
 14098                           fsr1h	equ	0xFE2
 14099                           fsr1l	equ	0xFE1
 14100                           indf2	equ	0xFDF
 14101                           postinc2	equ	0xFDE
 14102                           postdec2	equ	0xFDD
 14103                           plusw2	equ	0xFDB
 14104                           fsr2h	equ	0xFDA
 14105                           fsr2l	equ	0xFD9
 14106                           status	equ	0xFD8
 14107                           
 14108 ;; *************** function _USBCtrlEPAllowStatusStage *****************
 14109 ;; Defined at:
 14110 ;;		line 1434 in file "../../../../../../microchip/mla/v2015_08_10/framework/usb/src/usb_device.c"
 14111 ;; Parameters:    Size  Location     Type
 14112 ;;		None
 14113 ;; Auto vars:     Size  Location     Type
 14114 ;;		None
 14115 ;; Return value:  Size  Location     Type
 14116 ;;		None               void
 14117 ;; Registers used:
 14118 ;;		wreg, fsr2l, fsr2h, status,2, status,0
 14119 ;; Tracked objects:
 14120 ;;		On entry : 0/0
 14121 ;;		On exit  : 0/0
 14122 ;;		Unchanged: 0/0
 14123 ;; Data sizes:     COMRAM   BANK0   BANK1   BANK2   BANK3   BANK4   BANK5   BANK6   BANK7
 14124 ;;      Params:         0       0       0       0       0       0       0       0       0
 14125 ;;      Locals:         0       0       0       0       0       0       0       0       0
 14126 ;;      Temps:          0       0       0       0       0       0       0       0       0
 14127 ;;      Totals:         0       0       0       0       0       0       0       0       0
 14128 ;;Total ram usage:        0 bytes
 14129 ;; Hardware stack levels used:    1
 14130 ;; This function calls:
 14131 ;;		Nothing
 14132 ;; This function is called by:
 14133 ;;		_USBDeviceTasks
 14134 ;;		_USBCtrlEPServiceComplete
 14135 ;;		_USBCtrlTrfRxService
 14136 ;; This function uses a non-reentrant model
 14137 ;;
 14138                           
 14139                           	psect	text71
 14140  002268                     __ptext71:
 14141                           	opt stack 0
 14142  002268                     _USBCtrlEPAllowStatusStage:
 14143                           	opt stack 19
 14144                           
 14145                           ;usb_device.c: 1441: if(USBStatusStageEnabledFlag1 == 0)
 14146                           
 14147                           ;incstack = 0
 14148  002268  501C               	movf	_USBStatusStageEnabledFlag1,w,c	;volatile
 14149  00226A  A4D8               	btfss	status,2,c
 14150  00226C  0012               	return	
 14151                           
 14152                           ;usb_device.c: 1442: {
 14153                           ;usb_device.c: 1443: USBStatusStageEnabledFlag1 = 1;
 14154  00226E  0E01               	movlw	1
 14155  002270  6E1C               	movwf	_USBStatusStageEnabledFlag1,c	;volatile
 14156                           
 14157                           ;usb_device.c: 1444: if(USBStatusStageEnabledFlag2 == 0)
 14158  002272  501D               	movf	_USBStatusStageEnabledFlag2,w,c	;volatile
 14159  002274  A4D8               	btfss	status,2,c
 14160  002276  0012               	return	
 14161                           
 14162                           ;usb_device.c: 1445: {
 14163                           ;usb_device.c: 1446: USBStatusStageEnabledFlag2 = 1;
 14164  002278  0E01               	movlw	1
 14165  00227A  6E1D               	movwf	_USBStatusStageEnabledFlag2,c	;volatile
 14166                           
 14167                           ;usb_device.c: 1450: if(controlTransferState == 2)
 14168  00227C  0E02               	movlw	2
 14169  00227E  181F               	xorwf	_controlTransferState,w,c	;volatile
 14170  002280  A4D8               	btfss	status,2,c
 14171  002282  D015               	goto	i2l3763
 14172                           
 14173                           ;usb_device.c: 1451: {
 14174                           ;usb_device.c: 1452: pBDTEntryIn[0]->CNT = 0;
 14175  002284  EE20 F001          	lfsr	2,1
 14176  002288  5009               	movf	_pBDTEntryIn,w,c
 14177  00228A  26D9               	addwf	fsr2l,f,c
 14178  00228C  500A               	movf	_pBDTEntryIn+1,w,c
 14179  00228E  22DA               	addwfc	fsr2h,f,c
 14180  002290  0E00               	movlw	0
 14181  002292  6EDF               	movwf	indf2,c
 14182                           
 14183                           ;usb_device.c: 1453: pBDTEntryIn[0]->STAT.Val = 0x40|(0x08 & 0x08);
 14184  002294  C009  FFD9         	movff	_pBDTEntryIn,fsr2l
 14185  002298  C00A  FFDA         	movff	_pBDTEntryIn+1,fsr2h
 14186  00229C  0E48               	movlw	72
 14187  00229E  6EDF               	movwf	indf2,c
 14188                           
 14189                           ;usb_device.c: 1454: pBDTEntryIn[0]->STAT.Val |= 0x80;
 14190  0022A0  C009  FFD9         	movff	_pBDTEntryIn,fsr2l
 14191  0022A4  C00A  FFDA         	movff	_pBDTEntryIn+1,fsr2h
 14192  0022A8  0E00               	movlw	0
 14193  0022AA  8EDB               	bsf	plusw2,7,c
 14194                           
 14195                           ;usb_device.c: 1455: }
 14196  0022AC  0012               	return	
 14197  0022AE                     i2l3763:
 14198                           
 14199                           ;usb_device.c: 1456: else if(controlTransferState == 1)
 14200  0022AE  041F               	decf	_controlTransferState,w,c	;volatile
 14201  0022B0  A4D8               	btfss	status,2,c
 14202  0022B2  0012               	return	
 14203                           
 14204                           ;usb_device.c: 1457: {
 14205                           ;usb_device.c: 1458: BothEP0OutUOWNsSet = 0;
 14206  0022B4  0E00               	movlw	0
 14207  0022B6  6E17               	movwf	_BothEP0OutUOWNsSet,c	;volatile
 14208                           
 14209                           ;usb_device.c: 1463: pBDTEntryEP0OutCurrent->CNT = 8;
 14210  0022B8  EE20 F001          	lfsr	2,1
 14211  0022BC  5013               	movf	_pBDTEntryEP0OutCurrent,w,c
 14212  0022BE  26D9               	addwf	fsr2l,f,c
 14213  0022C0  5014               	movf	_pBDTEntryEP0OutCurrent+1,w,c
 14214  0022C2  22DA               	addwfc	fsr2h,f,c
 14215  0022C4  0E08               	movlw	8
 14216  0022C6  6EDF               	movwf	indf2,c
 14217                           
 14218                           ;usb_device.c: 1464: pBDTEntryEP0OutCurrent->ADR = ((uint16_t)(&SetupPkt));
 14219  0022C8  EE20 F002          	lfsr	2,2
 14220  0022CC  5013               	movf	_pBDTEntryEP0OutCurrent,w,c
 14221  0022CE  26D9               	addwf	fsr2l,f,c
 14222  0022D0  5014               	movf	_pBDTEntryEP0OutCurrent+1,w,c
 14223  0022D2  22DA               	addwfc	fsr2h,f,c
 14224  0022D4  0E20               	movlw	32
 14225  0022D6  6EDE               	movwf	postinc2,c
 14226  0022D8  0E04               	movlw	4
 14227  0022DA  6EDD               	movwf	postdec2,c
 14228                           
 14229                           ;usb_device.c: 1465: pBDTEntryEP0OutCurrent->STAT.Val = 0x04;
 14230  0022DC  C013  FFD9         	movff	_pBDTEntryEP0OutCurrent,fsr2l
 14231  0022E0  C014  FFDA         	movff	_pBDTEntryEP0OutCurrent+1,fsr2h
 14232  0022E4  0E04               	movlw	4
 14233  0022E6  6EDF               	movwf	indf2,c
 14234                           
 14235                           ;usb_device.c: 1466: pBDTEntryEP0OutCurrent->STAT.Val |= 0x80;
 14236  0022E8  C013  FFD9         	movff	_pBDTEntryEP0OutCurrent,fsr2l
 14237  0022EC  C014  FFDA         	movff	_pBDTEntryEP0OutCurrent+1,fsr2h
 14238  0022F0  0E00               	movlw	0
 14239  0022F2  8EDB               	bsf	plusw2,7,c
 14240                           
 14241                           ;usb_device.c: 1467: BothEP0OutUOWNsSet = 1;
 14242  0022F4  0E01               	movlw	1
 14243  0022F6  6E17               	movwf	_BothEP0OutUOWNsSet,c	;volatile
 14244                           
 14245                           ;usb_device.c: 1471: pBDTEntryEP0OutNext->CNT = 8;
 14246  0022F8  EE20 F001          	lfsr	2,1
 14247  0022FC  5015               	movf	_pBDTEntryEP0OutNext,w,c
 14248  0022FE  26D9               	addwf	fsr2l,f,c
 14249  002300  5016               	movf	_pBDTEntryEP0OutNext+1,w,c
 14250  002302  22DA               	addwfc	fsr2h,f,c
 14251  002304  0E08               	movlw	8
 14252  002306  6EDF               	movwf	indf2,c
 14253                           
 14254                           ;usb_device.c: 1472: pBDTEntryEP0OutNext->ADR = ((uint16_t)(&SetupPkt));
 14255  002308  EE20 F002          	lfsr	2,2
 14256  00230C  5015               	movf	_pBDTEntryEP0OutNext,w,c
 14257  00230E  26D9               	addwf	fsr2l,f,c
 14258  002310  5016               	movf	_pBDTEntryEP0OutNext+1,w,c
 14259  002312  22DA               	addwfc	fsr2h,f,c
 14260  002314  0E20               	movlw	32
 14261  002316  6EDE               	movwf	postinc2,c
 14262  002318  0E04               	movlw	4
 14263  00231A  6EDD               	movwf	postdec2,c
 14264                           
 14265                           ;usb_device.c: 1473: pBDTEntryEP0OutNext->STAT.Val = 0x80;
 14266  00231C  C015  FFD9         	movff	_pBDTEntryEP0OutNext,fsr2l
 14267  002320  C016  FFDA         	movff	_pBDTEntryEP0OutNext+1,fsr2h
 14268  002324  0E80               	movlw	128
 14269  002326  6EDF               	movwf	indf2,c
 14270  002328  0012               	return	
 14271  00232A  0012               	return		;funcret
 14272  00232C                     __end_of_USBCtrlEPAllowStatusStage:
 14273                           	opt stack 0
 14274                           pclatu	equ	0xFFB
 14275                           pclath	equ	0xFFA
 14276                           tblptru	equ	0xFF8
 14277                           tblptrh	equ	0xFF7
 14278                           tblptrl	equ	0xFF6
 14279                           tablat	equ	0xFF5
 14280                           prodh	equ	0xFF4
 14281                           prodl	equ	0xFF3
 14282                           intcon	equ	0xFF2
 14283                           postinc0	equ	0xFEE
 14284                           fsr0h	equ	0xFEA
 14285                           fsr0l	equ	0xFE9
 14286                           wreg	equ	0xFE8
 14287                           indf1	equ	0xFE7
 14288                           fsr1h	equ	0xFE2
 14289                           fsr1l	equ	0xFE1
 14290                           indf2	equ	0xFDF
 14291                           postinc2	equ	0xFDE
 14292                           postdec2	equ	0xFDD
 14293                           plusw2	equ	0xFDB
 14294                           fsr2h	equ	0xFDA
 14295                           fsr2l	equ	0xFD9
 14296                           status	equ	0xFD8
 14297                           
 14298 ;; *************** function _USBCtrlTrfInHandler *****************
 14299 ;; Defined at:
 14300 ;;		line 2609 in file "../../../../../../microchip/mla/v2015_08_10/framework/usb/src/usb_device.c"
 14301 ;; Parameters:    Size  Location     Type
 14302 ;;		None
 14303 ;; Auto vars:     Size  Location     Type
 14304 ;;  lastDTS         1    1[COMRAM] unsigned char 
 14305 ;; Return value:  Size  Location     Type
 14306 ;;		None               void
 14307 ;; Registers used:
 14308 ;;		wreg, fsr1l, fsr1h, fsr2l, fsr2h, status,2, status,0, tblptrl, tblptrh, tblptru, cstack
 14309 ;; Tracked objects:
 14310 ;;		On entry : 0/0
 14311 ;;		On exit  : 0/0
 14312 ;;		Unchanged: 0/0
 14313 ;; Data sizes:     COMRAM   BANK0   BANK1   BANK2   BANK3   BANK4   BANK5   BANK6   BANK7
 14314 ;;      Params:         0       0       0       0       0       0       0       0       0
 14315 ;;      Locals:         1       0       0       0       0       0       0       0       0
 14316 ;;      Temps:          0       0       0       0       0       0       0       0       0
 14317 ;;      Totals:         1       0       0       0       0       0       0       0       0
 14318 ;;Total ram usage:        1 bytes
 14319 ;; Hardware stack levels used:    1
 14320 ;; Hardware stack levels required when called:    1
 14321 ;; This function calls:
 14322 ;;		_USBCtrlTrfTxService
 14323 ;; This function is called by:
 14324 ;;		_USBCtrlEPService
 14325 ;; This function uses a non-reentrant model
 14326 ;;
 14327                           
 14328                           	psect	text72
 14329  0023EC                     __ptext72:
 14330                           	opt stack 0
 14331  0023EC                     _USBCtrlTrfInHandler:
 14332                           	opt stack 20
 14333                           
 14334                           ;usb_device.c: 2611: uint8_t lastDTS;
 14335                           ;usb_device.c: 2613: lastDTS = pBDTEntryIn[0]->STAT.DTS;
 14336                           
 14337                           ;incstack = 0
 14338  0023EC  C009  FFD9         	movff	_pBDTEntryIn,fsr2l
 14339  0023F0  C00A  FFDA         	movff	_pBDTEntryIn+1,fsr2h
 14340  0023F4  0E00               	movlw	0
 14341  0023F6  BCDF               	btfsc	indf2,6,c
 14342  0023F8  0E01               	movlw	1
 14343  0023FA  6E2C               	movwf	USBCtrlTrfInHandler@lastDTS,c
 14344                           
 14345                           ;usb_device.c: 2616: ((uint8_t_VAL*)&pBDTEntryIn[0])->Val ^= 0x0004;
 14346  0023FC  0E04               	movlw	4
 14347  0023FE  1A09               	xorwf	_pBDTEntryIn,f,c
 14348                           
 14349                           ;usb_device.c: 2621: if(USBDeviceState == ADR_PENDING_STATE)
 14350  002400  0E08               	movlw	8
 14351  002402  181B               	xorwf	_USBDeviceState,w,c	;volatile
 14352  002404  A4D8               	btfss	status,2,c
 14353  002406  D00C               	goto	i2l4583
 14354                           
 14355                           ;usb_device.c: 2622: {
 14356                           ;usb_device.c: 2623: UADDR = (SetupPkt.bDevADR & 0x7F);
 14357  002408  0104               	movlb	4	; () banked
 14358  00240A  5122               	movf	34,w,b	;volatile
 14359  00240C  0B7F               	andlw	127
 14360  00240E  6E63               	movwf	3939,c	;volatile
 14361                           
 14362                           ; BSR set to: 4
 14363                           ;usb_device.c: 2624: if(UADDR != 0u)
 14364  002410  5063               	movf	3939,w,c	;volatile
 14365  002412  B4D8               	btfsc	status,2,c
 14366  002414  D002               	goto	i2l4581
 14367                           
 14368                           ; BSR set to: 4
 14369                           ;usb_device.c: 2625: {
 14370                           ;usb_device.c: 2626: USBDeviceState=ADDRESS_STATE;
 14371  002416  0E10               	movlw	16
 14372  002418  D001               	goto	L20
 14373  00241A                     i2l4581:
 14374                           
 14375                           ; BSR set to: 4
 14376                           ;usb_device.c: 2628: else
 14377                           ;usb_device.c: 2629: {
 14378                           ;usb_device.c: 2630: USBDeviceState=DEFAULT_STATE;
 14379  00241A  0E04               	movlw	4
 14380  00241C                     L20:
 14381  00241C  6E1B               	movwf	_USBDeviceState,c	;volatile
 14382                           
 14383                           ; BSR set to: 4
 14384  00241E  D000               	goto	i2l4583
 14385  002420                     i2l4583:
 14386                           
 14387                           ;usb_device.c: 2631: }
 14388                           ;usb_device.c: 2632: }
 14389                           ;usb_device.c: 2635: if(controlTransferState == 1)
 14390  002420  041F               	decf	_controlTransferState,w,c	;volatile
 14391  002422  A4D8               	btfss	status,2,c
 14392  002424  D03A               	goto	i2l631
 14393                           
 14394                           ;usb_device.c: 2636: {
 14395                           ;usb_device.c: 2637: pBDTEntryIn[0]->ADR = ((uint16_t)(CtrlTrfData));
 14396  002426  EE20 F002          	lfsr	2,2
 14397  00242A  5009               	movf	_pBDTEntryIn,w,c
 14398  00242C  26D9               	addwf	fsr2l,f,c
 14399  00242E  500A               	movf	_pBDTEntryIn+1,w,c
 14400  002430  22DA               	addwfc	fsr2h,f,c
 14401  002432  0E28               	movlw	40
 14402  002434  6EDE               	movwf	postinc2,c
 14403  002436  0E04               	movlw	4
 14404  002438  6EDD               	movwf	postdec2,c
 14405                           
 14406                           ;usb_device.c: 2638: USBCtrlTrfTxService();
 14407  00243A  EC5E  F010         	call	_USBCtrlTrfTxService	;wreg free
 14408                           
 14409                           ;usb_device.c: 2644: if(shortPacketStatus == 2)
 14410  00243E  0E02               	movlw	2
 14411  002440  1821               	xorwf	_shortPacketStatus,w,c	;volatile
 14412  002442  A4D8               	btfss	status,2,c
 14413  002444  D00D               	goto	i2l4595
 14414                           
 14415                           ;usb_device.c: 2645: {
 14416                           ;usb_device.c: 2648: pBDTEntryIn[0]->STAT.Val = 0x04;
 14417  002446  C009  FFD9         	movff	_pBDTEntryIn,fsr2l
 14418  00244A  C00A  FFDA         	movff	_pBDTEntryIn+1,fsr2h
 14419  00244E  0E04               	movlw	4
 14420  002450  6EDF               	movwf	indf2,c
 14421                           
 14422                           ;usb_device.c: 2649: pBDTEntryIn[0]->STAT.Val |= 0x80;
 14423  002452  C009  FFD9         	movff	_pBDTEntryIn,fsr2l
 14424  002456  C00A  FFDA         	movff	_pBDTEntryIn+1,fsr2h
 14425  00245A  0E00               	movlw	0
 14426  00245C  8EDB               	bsf	plusw2,7,c
 14427                           
 14428                           ;usb_device.c: 2650: }
 14429  00245E  0012               	return	
 14430  002460                     i2l4595:
 14431                           
 14432                           ;usb_device.c: 2651: else
 14433                           ;usb_device.c: 2652: {
 14434                           ;usb_device.c: 2653: if(lastDTS == 0)
 14435  002460  502C               	movf	USBCtrlTrfInHandler@lastDTS,w,c
 14436  002462  A4D8               	btfss	status,2,c
 14437  002464  D00D               	goto	i2l4601
 14438                           
 14439                           ;usb_device.c: 2654: {
 14440                           ;usb_device.c: 2655: pBDTEntryIn[0]->STAT.Val = 0x40|(0x08 & 0x08);
 14441  002466  C009  FFD9         	movff	_pBDTEntryIn,fsr2l
 14442  00246A  C00A  FFDA         	movff	_pBDTEntryIn+1,fsr2h
 14443  00246E  0E48               	movlw	72
 14444  002470  6EDF               	movwf	indf2,c
 14445                           
 14446                           ;usb_device.c: 2656: pBDTEntryIn[0]->STAT.Val |= 0x80;
 14447  002472  C009  FFD9         	movff	_pBDTEntryIn,fsr2l
 14448  002476  C00A  FFDA         	movff	_pBDTEntryIn+1,fsr2h
 14449  00247A  0E00               	movlw	0
 14450  00247C  8EDB               	bsf	plusw2,7,c
 14451                           
 14452                           ;usb_device.c: 2657: }
 14453  00247E  0012               	return	
 14454  002480                     i2l4601:
 14455                           
 14456                           ;usb_device.c: 2658: else
 14457                           ;usb_device.c: 2659: {
 14458                           ;usb_device.c: 2660: pBDTEntryIn[0]->STAT.Val = 0x00|(0x08 & 0x08);
 14459  002480  C009  FFD9         	movff	_pBDTEntryIn,fsr2l
 14460  002484  C00A  FFDA         	movff	_pBDTEntryIn+1,fsr2h
 14461  002488  0E08               	movlw	8
 14462  00248A  6EDF               	movwf	indf2,c
 14463                           
 14464                           ;usb_device.c: 2661: pBDTEntryIn[0]->STAT.Val |= 0x80;
 14465  00248C  C009  FFD9         	movff	_pBDTEntryIn,fsr2l
 14466  002490  C00A  FFDA         	movff	_pBDTEntryIn+1,fsr2h
 14467  002494  0E00               	movlw	0
 14468  002496  8EDB               	bsf	plusw2,7,c
 14469                           
 14470                           ;usb_device.c: 2662: }
 14471                           ;usb_device.c: 2663: }
 14472                           ;usb_device.c: 2664: }
 14473  002498  0012               	return	
 14474  00249A                     i2l631:
 14475                           
 14476                           ;usb_device.c: 2665: else
 14477                           ;usb_device.c: 2666: {
 14478                           ;usb_device.c: 2670: if(outPipes[0].info.bits.busy == 1)
 14479  00249A  AE04               	btfss	_outPipes+3,7,c	;volatile
 14480  00249C  D002               	goto	i2l4607
 14481                           
 14482                           ;usb_device.c: 2675: }
 14483                           ;usb_device.c: 2676: outPipes[0].info.bits.busy = 0;
 14484                           
 14485                           ;usb_device.c: 2673: {
 14486                           ;usb_device.c: 2674: outPipes[0].pFunc();
 14487  00249E  9E04               	bcf	_outPipes+3,7,c	;volatile
 14488  0024A0  D000               	goto	i2l4607
 14489  0024A2                     i2l4607:
 14490                           
 14491                           ;usb_device.c: 2677: }
 14492                           ;usb_device.c: 2679: controlTransferState = 0;
 14493  0024A2  0E00               	movlw	0
 14494  0024A4  6E1F               	movwf	_controlTransferState,c	;volatile
 14495  0024A6  0012               	return	
 14496  0024A8  0012               	return		;funcret
 14497  0024AA                     __end_of_USBCtrlTrfInHandler:
 14498                           	opt stack 0
 14499                           pclatu	equ	0xFFB
 14500                           pclath	equ	0xFFA
 14501                           tblptru	equ	0xFF8
 14502                           tblptrh	equ	0xFF7
 14503                           tblptrl	equ	0xFF6
 14504                           tablat	equ	0xFF5
 14505                           prodh	equ	0xFF4
 14506                           prodl	equ	0xFF3
 14507                           intcon	equ	0xFF2
 14508                           postinc0	equ	0xFEE
 14509                           fsr0h	equ	0xFEA
 14510                           fsr0l	equ	0xFE9
 14511                           wreg	equ	0xFE8
 14512                           indf1	equ	0xFE7
 14513                           fsr1h	equ	0xFE2
 14514                           fsr1l	equ	0xFE1
 14515                           indf2	equ	0xFDF
 14516                           postinc2	equ	0xFDE
 14517                           postdec2	equ	0xFDD
 14518                           plusw2	equ	0xFDB
 14519                           fsr2h	equ	0xFDA
 14520                           fsr2l	equ	0xFD9
 14521                           status	equ	0xFD8
 14522                           
 14523 ;; *************** function _USBCtrlTrfTxService *****************
 14524 ;; Defined at:
 14525 ;;		line 1789 in file "../../../../../../microchip/mla/v2015_08_10/framework/usb/src/usb_device.c"
 14526 ;; Parameters:    Size  Location     Type
 14527 ;;		None
 14528 ;; Auto vars:     Size  Location     Type
 14529 ;;  byteToSend      1    0[COMRAM] unsigned char 
 14530 ;; Return value:  Size  Location     Type
 14531 ;;		None               void
 14532 ;; Registers used:
 14533 ;;		wreg, fsr1l, fsr1h, fsr2l, fsr2h, status,2, status,0, tblptrl, tblptrh, tblptru
 14534 ;; Tracked objects:
 14535 ;;		On entry : 0/0
 14536 ;;		On exit  : 0/0
 14537 ;;		Unchanged: 0/0
 14538 ;; Data sizes:     COMRAM   BANK0   BANK1   BANK2   BANK3   BANK4   BANK5   BANK6   BANK7
 14539 ;;      Params:         0       0       0       0       0       0       0       0       0
 14540 ;;      Locals:         1       0       0       0       0       0       0       0       0
 14541 ;;      Temps:          0       0       0       0       0       0       0       0       0
 14542 ;;      Totals:         1       0       0       0       0       0       0       0       0
 14543 ;;Total ram usage:        1 bytes
 14544 ;; Hardware stack levels used:    1
 14545 ;; This function calls:
 14546 ;;		Nothing
 14547 ;; This function is called by:
 14548 ;;		_USBCtrlEPAllowDataStage
 14549 ;;		_USBCtrlTrfInHandler
 14550 ;; This function uses a non-reentrant model
 14551 ;;
 14552                           
 14553                           	psect	text73
 14554  0020BC                     __ptext73:
 14555                           	opt stack 0
 14556  0020BC                     _USBCtrlTrfTxService:
 14557                           	opt stack 18
 14558                           
 14559                           ;usb_device.c: 1791: uint8_t byteToSend;
 14560                           ;usb_device.c: 1795: byteToSend = 8;
 14561                           
 14562                           ;incstack = 0
 14563  0020BC  0E08               	movlw	8
 14564  0020BE  6E2B               	movwf	USBCtrlTrfTxService@byteToSend,c
 14565                           
 14566                           ;usb_device.c: 1796: if(inPipes[0].wCount.Val < (uint8_t)8)
 14567  0020C0  5027               	movf	_inPipes+5,w,c	;volatile
 14568  0020C2  E111               	bnz	i2l3675
 14569  0020C4  0E08               	movlw	8
 14570  0020C6  5C26               	subwf	_inPipes+4,w,c	;volatile
 14571  0020C8  B0D8               	btfsc	status,0,c
 14572  0020CA  D00D               	goto	i2l3675
 14573                           
 14574                           ;usb_device.c: 1797: {
 14575                           ;usb_device.c: 1798: byteToSend = inPipes[0].wCount.Val;
 14576  0020CC  C026  F02B         	movff	_inPipes+4,USBCtrlTrfTxService@byteToSend	;volatile
 14577                           
 14578                           ;usb_device.c: 1805: if(shortPacketStatus == 0)
 14579  0020D0  5021               	movf	_shortPacketStatus,w,c	;volatile
 14580  0020D2  A4D8               	btfss	status,2,c
 14581  0020D4  D002               	goto	i2l3671
 14582                           
 14583                           ;usb_device.c: 1806: {
 14584                           ;usb_device.c: 1807: shortPacketStatus = 1;
 14585  0020D6  0E01               	movlw	1
 14586  0020D8  D004               	goto	L21
 14587  0020DA                     i2l3671:
 14588                           
 14589                           ;usb_device.c: 1809: else if(shortPacketStatus == 1)
 14590  0020DA  0421               	decf	_shortPacketStatus,w,c	;volatile
 14591  0020DC  A4D8               	btfss	status,2,c
 14592  0020DE  D003               	goto	i2l3675
 14593                           
 14594                           ;usb_device.c: 1810: {
 14595                           ;usb_device.c: 1811: shortPacketStatus = 2;
 14596  0020E0  0E02               	movlw	2
 14597  0020E2                     L21:
 14598  0020E2  6E21               	movwf	_shortPacketStatus,c	;volatile
 14599  0020E4  D000               	goto	i2l3675
 14600  0020E6                     i2l3675:
 14601                           
 14602                           ;usb_device.c: 1812: }
 14603                           ;usb_device.c: 1813: }
 14604                           ;usb_device.c: 1817: inPipes[0].wCount.Val -= byteToSend;
 14605  0020E6  502B               	movf	USBCtrlTrfTxService@byteToSend,w,c
 14606  0020E8  5E26               	subwf	_inPipes+4,f,c	;volatile
 14607  0020EA  0E00               	movlw	0
 14608  0020EC  5A27               	subwfb	_inPipes+5,f,c	;volatile
 14609                           
 14610                           ;usb_device.c: 1822: pBDTEntryIn[0]->CNT = byteToSend;
 14611  0020EE  EE20 F001          	lfsr	2,1
 14612  0020F2  5009               	movf	_pBDTEntryIn,w,c
 14613  0020F4  26D9               	addwf	fsr2l,f,c
 14614  0020F6  500A               	movf	_pBDTEntryIn+1,w,c
 14615  0020F8  22DA               	addwfc	fsr2h,f,c
 14616  0020FA  C02B  FFDF         	movff	USBCtrlTrfTxService@byteToSend,indf2
 14617                           
 14618                           ;usb_device.c: 1826: pDst = (volatile uint8_t*)CtrlTrfData;
 14619  0020FE  0E28               	movlw	40
 14620  002100  0100               	movlb	0	; () banked
 14621  002102  6FF0               	movwf	_pDst& (0+255),b
 14622  002104  0E04               	movlw	4
 14623  002106  0100               	movlb	0	; () banked
 14624  002108  6FF1               	movwf	(_pDst+1)& (0+255),b
 14625                           
 14626                           ; BSR set to: 0
 14627                           ;usb_device.c: 1827: if(inPipes[0].info.bits.ctrl_trf_mem == 0x00)
 14628  00210A  A025               	btfss	_inPipes+3,0,c	;volatile
 14629  00210C  D01E               	goto	i2l3693
 14630  00210E  D03F               	goto	i2l3703
 14631                           
 14632                           ; BSR set to: 0
 14633                           ;usb_device.c: 1828: {
 14634                           ;usb_device.c: 1829: while(byteToSend)
 14635  002110  D01C               	goto	i2l3693
 14636  002112                     i2l3685:
 14637                           
 14638                           ; BSR set to: 0
 14639                           ;usb_device.c: 1830: {
 14640                           ;usb_device.c: 1831: *pDst++ = *inPipes[0].pSrc.bRom++;
 14641  002112  C022  FFF6         	movff	_inPipes,tblptrl	;volatile
 14642  002116  C023  FFF7         	movff	_inPipes+1,tblptrh	;volatile
 14643  00211A  6AF8               	clrf	tblptru,c
 14644  00211C  C0F0  FFD9         	movff	_pDst,fsr2l
 14645  002120  C0F1  FFDA         	movff	_pDst+1,fsr2h
 14646  002124  0E07               	movlw	(high __ramtop+-1)
 14647  002126  64F7               	cpfsgt	tblptrh,c
 14648  002128  D003               	bra	i2u274_47
 14649  00212A  0008               	tblrd		*
 14650  00212C  50F5               	movf	tablat,w,c
 14651  00212E  D005               	bra	i2u274_40
 14652  002130                     i2u274_47:
 14653  002130  CFF6 FFE1          	movff	tblptrl,fsr1l
 14654  002134  CFF7 FFE2          	movff	tblptrh,fsr1h
 14655  002138  50E7               	movf	indf1,w,c
 14656  00213A                     i2u274_40:
 14657  00213A  6EDF               	movwf	indf2,c
 14658  00213C  4A22               	infsnz	_inPipes,f,c	;volatile
 14659  00213E  2A23               	incf	_inPipes+1,f,c	;volatile
 14660  002140  0100               	movlb	0	; () banked
 14661  002142  4BF0               	infsnz	_pDst& (0+255),f,b
 14662  002144  2BF1               	incf	(_pDst+1)& (0+255),f,b
 14663                           
 14664                           ; BSR set to: 0
 14665                           ;usb_device.c: 1832: byteToSend--;
 14666  002146  062B               	decf	USBCtrlTrfTxService@byteToSend,f,c
 14667  002148  D000               	goto	i2l3693
 14668  00214A                     i2l3693:
 14669                           
 14670                           ; BSR set to: 0
 14671  00214A  502B               	movf	USBCtrlTrfTxService@byteToSend,w,c
 14672  00214C  B4D8               	btfsc	status,2,c
 14673  00214E  0012               	return	
 14674  002150  D7E0               	goto	i2l3685
 14675                           
 14676                           ; BSR set to: 0
 14677                           ;usb_device.c: 1833: }
 14678                           ;usb_device.c: 1834: }
 14679  002152  0012               	return	
 14680                           
 14681                           ; BSR set to: 0
 14682                           ;usb_device.c: 1835: else
 14683                           ;usb_device.c: 1836: {
 14684                           ;usb_device.c: 1837: while(byteToSend)
 14685  002154  D01C               	goto	i2l3703
 14686  002156                     i2l3695:
 14687                           
 14688                           ; BSR set to: 0
 14689                           ;usb_device.c: 1838: {
 14690                           ;usb_device.c: 1839: *pDst++ = *inPipes[0].pSrc.bRam++;
 14691  002156  C022  FFF6         	movff	_inPipes,tblptrl	;volatile
 14692  00215A  C023  FFF7         	movff	_inPipes+1,tblptrh	;volatile
 14693  00215E  6AF8               	clrf	tblptru,c
 14694  002160  C0F0  FFD9         	movff	_pDst,fsr2l
 14695  002164  C0F1  FFDA         	movff	_pDst+1,fsr2h
 14696  002168  0E07               	movlw	(high __ramtop+-1)
 14697  00216A  64F7               	cpfsgt	tblptrh,c
 14698  00216C  D003               	bra	i2u276_47
 14699  00216E  0008               	tblrd		*
 14700  002170  50F5               	movf	tablat,w,c
 14701  002172  D005               	bra	i2u276_40
 14702  002174                     i2u276_47:
 14703  002174  CFF6 FFE1          	movff	tblptrl,fsr1l
 14704  002178  CFF7 FFE2          	movff	tblptrh,fsr1h
 14705  00217C  50E7               	movf	indf1,w,c
 14706  00217E                     i2u276_40:
 14707  00217E  6EDF               	movwf	indf2,c
 14708  002180  4A22               	infsnz	_inPipes,f,c	;volatile
 14709  002182  2A23               	incf	_inPipes+1,f,c	;volatile
 14710  002184  0100               	movlb	0	; () banked
 14711  002186  4BF0               	infsnz	_pDst& (0+255),f,b
 14712  002188  2BF1               	incf	(_pDst+1)& (0+255),f,b
 14713                           
 14714                           ; BSR set to: 0
 14715                           ;usb_device.c: 1840: byteToSend--;
 14716  00218A  062B               	decf	USBCtrlTrfTxService@byteToSend,f,c
 14717  00218C  D000               	goto	i2l3703
 14718  00218E                     i2l3703:
 14719                           
 14720                           ; BSR set to: 0
 14721  00218E  502B               	movf	USBCtrlTrfTxService@byteToSend,w,c
 14722  002190  B4D8               	btfsc	status,2,c
 14723  002192  0012               	return	
 14724  002194  D7E0               	goto	i2l3695
 14725                           
 14726                           ; BSR set to: 0
 14727  002196  0012               	return	
 14728                           
 14729                           ; BSR set to: 0
 14730                           
 14731                           ; BSR set to: 0
 14732  002198  0012               	return		;funcret
 14733  00219A                     __end_of_USBCtrlTrfTxService:
 14734                           	opt stack 0
 14735                           pclatu	equ	0xFFB
 14736                           pclath	equ	0xFFA
 14737                           tblptru	equ	0xFF8
 14738                           tblptrh	equ	0xFF7
 14739                           tblptrl	equ	0xFF6
 14740                           tablat	equ	0xFF5
 14741                           prodh	equ	0xFF4
 14742                           prodl	equ	0xFF3
 14743                           intcon	equ	0xFF2
 14744                           postinc0	equ	0xFEE
 14745                           fsr0h	equ	0xFEA
 14746                           fsr0l	equ	0xFE9
 14747                           wreg	equ	0xFE8
 14748                           indf1	equ	0xFE7
 14749                           fsr1h	equ	0xFE2
 14750                           fsr1l	equ	0xFE1
 14751                           indf2	equ	0xFDF
 14752                           postinc2	equ	0xFDE
 14753                           postdec2	equ	0xFDD
 14754                           plusw2	equ	0xFDB
 14755                           fsr2h	equ	0xFDA
 14756                           fsr2l	equ	0xFD9
 14757                           status	equ	0xFD8
 14758                           pclatu	equ	0xFFB
 14759                           pclath	equ	0xFFA
 14760                           tblptru	equ	0xFF8
 14761                           tblptrh	equ	0xFF7
 14762                           tblptrl	equ	0xFF6
 14763                           tablat	equ	0xFF5
 14764                           prodh	equ	0xFF4
 14765                           prodl	equ	0xFF3
 14766                           intcon	equ	0xFF2
 14767                           postinc0	equ	0xFEE
 14768                           fsr0h	equ	0xFEA
 14769                           fsr0l	equ	0xFE9
 14770                           wreg	equ	0xFE8
 14771                           indf1	equ	0xFE7
 14772                           fsr1h	equ	0xFE2
 14773                           fsr1l	equ	0xFE1
 14774                           indf2	equ	0xFDF
 14775                           postinc2	equ	0xFDE
 14776                           postdec2	equ	0xFDD
 14777                           plusw2	equ	0xFDB
 14778                           fsr2h	equ	0xFDA
 14779                           fsr2l	equ	0xFD9
 14780                           status	equ	0xFD8
 14781                           
 14782                           	psect	rparam
 14783  0000                     pclatu	equ	0xFFB
 14784                           pclath	equ	0xFFA
 14785                           tblptru	equ	0xFF8
 14786                           tblptrh	equ	0xFF7
 14787                           tblptrl	equ	0xFF6
 14788                           tablat	equ	0xFF5
 14789                           prodh	equ	0xFF4
 14790                           prodl	equ	0xFF3
 14791                           intcon	equ	0xFF2
 14792                           postinc0	equ	0xFEE
 14793                           fsr0h	equ	0xFEA
 14794                           fsr0l	equ	0xFE9
 14795                           wreg	equ	0xFE8
 14796                           indf1	equ	0xFE7
 14797                           fsr1h	equ	0xFE2
 14798                           fsr1l	equ	0xFE1
 14799                           indf2	equ	0xFDF
 14800                           postinc2	equ	0xFDE
 14801                           postdec2	equ	0xFDD
 14802                           plusw2	equ	0xFDB
 14803                           fsr2h	equ	0xFDA
 14804                           fsr2l	equ	0xFD9
 14805                           status	equ	0xFD8


Data Sizes:
    Strings     0
    Constant    255
    Data        0
    BSS         63
    Persistent  0
    Stack       0

Auto Spaces:
    Space          Size  Autos    Used
    COMRAM           95     42      84
    BANK0           160    130     151
    BANK1           256      0       0
    BANK2           256      0       0
    BANK3           256      0       0
    BANK4           208      0       0
    BANK5           128      0       0
    BANK6           256      0       0
    BANK7           256      0       0

Pointer List with Targets:

    USER_USB_CALLBACK_EVENT_HANDLER@pdata	PTR void  size(2) Largest target is 32
		 -> USTATcopy(COMRAM[1]), USBActiveConfiguration(COMRAM[1]), BDT(BIGRAMll[32]), NULL(NULL[0]), 

    eval_poly@d	PTR const  size(2) Largest target is 30
		 -> log@coeff(CODE[27]), exp@coeff(CODE[30]), 

    frexp@eptr	PTR int  size(2) Largest target is 2
		 -> log@exponent(BANK0[2]), floor@expon(BANK0[2]), 

    memset@p1	PTR void  size(2) Largest target is 32
		 -> USBAlternateInterface(COMRAM[1]), BDT(BIGRAMll[32]), UEP1(SFR_1[1]), 

    memset@p	PTR unsigned char  size(2) Largest target is 32
		 -> USBAlternateInterface(COMRAM[1]), BDT(BIGRAMll[32]), UEP1(SFR_1[1]), 

    memcpy@d1	PTR void  size(2) Largest target is 8
		 -> SetupPkt(BIGRAMlh[8]), 

    memcpy@d	PTR unsigned char  size(2) Largest target is 8
		 -> SetupPkt(BIGRAMlh[8]), 

    memcpy@s1	PTR const void  size(2) Largest target is 2047
		 -> RAM(DATA[2047]), CtrlTrfData(BIGRAMlh[8]), SetupPkt(BIGRAMlh[8]), ToSendDataBuffer(BIGRAMh[64]), 
		 -> ReceivedDataBuffer(BIGRAMll[64]), 

    memcpy@s	PTR const unsigned char  size(2) Largest target is 2047
		 -> RAM(DATA[2047]), CtrlTrfData(BIGRAMlh[8]), SetupPkt(BIGRAMlh[8]), ToSendDataBuffer(BIGRAMh[64]), 
		 -> ReceivedDataBuffer(BIGRAMll[64]), 

    USBStdFeatureReqHandler@pUEP	PTR unsigned char  size(2) Largest target is 1
		 -> UEP0(SFR_1[1]), 

    USBStdFeatureReqHandler@p	PTR struct __BDT size(2) Largest target is 32
		 -> BDT(BIGRAMll[32]), NULL(NULL[0]), 

    sp__memcpy	PTR void  size(2) Largest target is 8
		 -> SetupPkt(BIGRAMlh[8]), 

    USBStdGetStatusHandler@p	PTR struct __BDT size(2) Largest target is 32
		 -> BDT(BIGRAMll[32]), NULL(NULL[0]), 

    pDst	PTR volatile unsigned char  size(2) Largest target is 8
		 -> CtrlTrfData(BIGRAMlh[8]), NULL(NULL[0]), 

    USBConfigureEndpoint@handle	PTR volatile struct __BDT size(2) Largest target is 32
		 -> BDT(BIGRAMll[32]), 

    pBDTEntryEP0OutCurrent	PTR volatile struct __BDT size(2) Largest target is 32
		 -> BDT(BIGRAMll[32]), NULL(NULL[0]), 

    pBDTEntryEP0OutNext	PTR volatile struct __BDT size(2) Largest target is 32
		 -> BDT(BIGRAMll[32]), NULL(NULL[0]), 

    USBTransferOnePacket@data	PTR unsigned char  size(2) Largest target is 64
		 -> ToSendDataBuffer(BIGRAMh[64]), ReceivedDataBuffer(BIGRAMll[64]), 

    USBTransferOnePacket@handle	PTR volatile struct __BDT size(2) Largest target is 32
		 -> BDT(BIGRAMll[32]), NULL(NULL[0]), 

    USBEnableEndpoint@p	PTR unsigned char  size(2) Largest target is 1
		 -> UEP0(SFR_1[1]), 

    pBDTEntryOut	PTR volatile struct __BDT[2] size(2) Largest target is 32
		 -> BDT(BIGRAMll[32]), NULL(NULL[0]), 

    pBDTEntryIn	PTR volatile struct __BDT[2] size(2) Largest target is 32
		 -> BDT(BIGRAMll[32]), NULL(NULL[0]), 

    S962$pFunc	PTR FTN()void  size(2) Largest target is 0

    outPipes.pFunc	PTR FTN()void  size(2) Largest target is 0

    S952$wRam	PTR unsigned int  size(2) Largest target is 0

    outPipes.pDst.wRam	PTR unsigned int  size(2) Largest target is 0

    S952$bRam	PTR unsigned char  size(2) Largest target is 0

    outPipes.pDst.bRam	PTR unsigned char  size(2) Largest target is 0

    S928$wRom	PTR const unsigned int  size(2) Largest target is 0

    inPipes.pSrc.wRom	PTR const unsigned int  size(2) Largest target is 0

    S928$wRam	PTR unsigned int  size(2) Largest target is 0

    inPipes.pSrc.wRam	PTR unsigned int  size(2) Largest target is 0

    S928$bRom	PTR const unsigned char  size(2) Largest target is 0

    inPipes.pSrc.bRom	PTR const unsigned char  size(2) Largest target is 0

    S928$bRam	PTR unsigned char  size(2) Largest target is 0

    inPipes.pSrc.bRam	PTR unsigned char  size(2) Largest target is 0

    sp__memset	PTR void  size(2) Largest target is 32
		 -> USBAlternateInterface(COMRAM[1]), BDT(BIGRAMll[32]), UEP1(SFR_1[1]), 

    sp__USBTransferOnePacket	PTR void  size(2) Largest target is 32
		 -> BDT(BIGRAMll[32]), NULL(NULL[0]), 

    USBOutHandle	PTR volatile void  size(2) Largest target is 32
		 -> BDT(BIGRAMll[32]), NULL(NULL[0]), 

    USBInHandle	PTR volatile void  size(2) Largest target is 32
		 -> BDT(BIGRAMll[32]), NULL(NULL[0]), 

    USB_SD_Ptr	const PTR const unsigned char [3] size(2) Largest target is 52
		 -> sd002(CODE[46]), sd001(CODE[52]), sd000(CODE[4]), 

    USB_CD_Ptr	const PTR const unsigned char [1] size(2) Largest target is 41
		 -> configDescriptor1(CODE[41]), 


Critical Paths under _main in COMRAM

    None.

Critical Paths under _SYS_InterruptHigh in COMRAM

    _SYS_InterruptHigh->_USBDeviceTasks
    _USBDeviceTasks->_USBCtrlEPService
    i2_USBDeviceInit->i2_memset
    _USBWakeFromSuspend->_USER_USB_CALLBACK_EVENT_HANDLER
    _USBSuspend->_USER_USB_CALLBACK_EVENT_HANDLER
    _USBCtrlEPAllowDataStage->_USBCtrlTrfTxService
    _USBCheckStdRequest->_USBStdFeatureReqHandler
    _USBStdSetCfgHandler->_USER_USB_CALLBACK_EVENT_HANDLER
    _USBStdFeatureReqHandler->_USER_USB_CALLBACK_EVENT_HANDLER
    i2_SYSTEM_Initialize->i2_ADC_Enable
    i2_SYSTEM_Initialize->i2_ADC_SetConfiguration
    i2_SYSTEM_Initialize->i2_BUTTON_Enable
    i2_SYSTEM_Initialize->i2_LED_Enable
    _APP_LEDUpdateUSBStatus->i2_LED_Off
    _APP_LEDUpdateUSBStatus->i2_LED_On
    _APP_DeviceCustomHIDInitialize->_USBEnableEndpoint
    _USBEnableEndpoint->_USBConfigureEndpoint
    _USBCtrlTrfOutHandler->_USBCtrlTrfRxService
    _USBCtrlTrfInHandler->_USBCtrlTrfTxService

Critical Paths under _main in BANK0

    _main->_APP_DeviceCustomHIDTasks
    _USBDeviceInit->_memset
    _SYSTEM_Initialize->_ADC_Enable
    _SYSTEM_Initialize->_ADC_SetConfiguration
    _SYSTEM_Initialize->_BUTTON_Enable
    _SYSTEM_Initialize->_LED_Enable
    _APP_DeviceCustomHIDTasks->_pow
    _pow->_exp
    _log->_eval_poly
    _exp->_floor
    _ldexp->_eval_poly
    _floor->___altoft
    ___fttol->___ftadd
    ___altoft->___fttol
    _eval_poly->___ftadd
    ___ftmul->_ADC_ReadPercentage
    ___ftsub->___ftadd
    ___ftadd->___ftdiv
    ___ftdiv->___ftmul
    ___awtoft->___ftpack
    ___lltoft->___ftpack
    ___lbtoft->___ftpack
    _ADC_ReadPercentage->___lwdiv
    ___lwdiv->_ADC_Read10bit
    _ADC_Read10bit->_LED_Off
    _ADC_Read10bit->_LED_On

Critical Paths under _SYS_InterruptHigh in BANK0

    None.

Critical Paths under _main in BANK1

    None.

Critical Paths under _SYS_InterruptHigh in BANK1

    None.

Critical Paths under _main in BANK2

    None.

Critical Paths under _SYS_InterruptHigh in BANK2

    None.

Critical Paths under _main in BANK3

    None.

Critical Paths under _SYS_InterruptHigh in BANK3

    None.

Critical Paths under _main in BANK4

    None.

Critical Paths under _SYS_InterruptHigh in BANK4

    None.

Critical Paths under _main in BANK5

    None.

Critical Paths under _SYS_InterruptHigh in BANK5

    None.

Critical Paths under _main in BANK6

    None.

Critical Paths under _SYS_InterruptHigh in BANK6

    None.

Critical Paths under _main in BANK7

    None.

Critical Paths under _SYS_InterruptHigh in BANK7

    None.

Call Graph Tables:

 ---------------------------------------------------------------------------------
 (Depth) Function   	        Calls       Base Space   Used Autos Params    Refs
 ---------------------------------------------------------------------------------
 (0) _main                                                 0     0      0  131161
           _APP_DeviceCustomHIDTasks
                  _SYSTEM_Initialize
                    _USBDeviceAttach
                      _USBDeviceInit
 ---------------------------------------------------------------------------------
 (1) _USBDeviceInit                                        1     1      0    1361
                                              8 BANK0      1     1      0
                             _memset
 ---------------------------------------------------------------------------------
 (2) _memset                                               8     2      6    1070
                                              0 BANK0      8     2      6
 ---------------------------------------------------------------------------------
 (1) _USBDeviceAttach                                      0     0      0       0
 ---------------------------------------------------------------------------------
 (1) _SYSTEM_Initialize                                    1     1      0     110
                                              1 BANK0      1     1      0
                         _ADC_Enable
               _ADC_SetConfiguration
                      _BUTTON_Enable
                         _LED_Enable
 ---------------------------------------------------------------------------------
 (2) _LED_Enable                                           1     1      0      22
                                              0 BANK0      1     1      0
 ---------------------------------------------------------------------------------
 (2) _BUTTON_Enable                                        1     1      0      22
                                              0 BANK0      1     1      0
 ---------------------------------------------------------------------------------
 (2) _ADC_SetConfiguration                                 1     1      0      22
                                              0 BANK0      1     1      0
 ---------------------------------------------------------------------------------
 (2) _ADC_Enable                                           1     1      0      22
                                              0 BANK0      1     1      0
 ---------------------------------------------------------------------------------
 (1) _APP_DeviceCustomHIDTasks                            14    14      0  129690
                                            117 BANK0     13    13      0
                      _ADC_Read10bit
                 _ADC_ReadPercentage
                         _LED_Toggle
               _USBTransferOnePacket
                            ___ftadd
                            ___ftdiv
                            ___ftmul
                            ___fttol
                           ___lbtoft
                                _pow
 ---------------------------------------------------------------------------------
 (2) _pow                                                 17    11      6  105427
                                            100 BANK0     17    11      6
                             ___ftge
                            ___ftmul
                            ___ftneg
                            ___fttol
                           ___lbtoft (ARG)
                           ___lltoft
                                _exp
                                _log
 ---------------------------------------------------------------------------------
 (3) _log                                                  5     2      3   36772
                                             70 BANK0      5     2      3
                           ___awtoft
                            ___ftadd
                            ___ftmul
                          _eval_poly
                              _frexp
 ---------------------------------------------------------------------------------
 (3) _exp                                                  9     6      3   56567
                                             91 BANK0      9     6      3
                           ___awtoft
                            ___ftdiv
                             ___ftge
                            ___ftmul
                            ___ftneg
                            ___ftsub
                            ___fttol
                          _eval_poly
                              _floor
                              _ldexp
                                _log (ARG)
 ---------------------------------------------------------------------------------
 (4) _ldexp                                                7     2      5     426
                                             70 BANK0      7     2      5
                          _eval_poly (ARG)
 ---------------------------------------------------------------------------------
 (4) _floor                                                8     5      3   12867
                                             83 BANK0      8     5      3
                           ___altoft
                            ___ftadd
                             ___ftge
                            ___fttol
                              _frexp
 ---------------------------------------------------------------------------------
 (4) _frexp                                                7     2      5     738
                                              0 BANK0      7     2      5
 ---------------------------------------------------------------------------------
 (5) ___fttol                                             15    11      4     608
                                             58 BANK0     15    11      4
                 _ADC_ReadPercentage (ARG)
                            ___ftadd (ARG)
                            ___ftdiv (ARG)
                            ___ftmul (ARG)
                           ___lbtoft (ARG)
 ---------------------------------------------------------------------------------
 (5) ___ftge                                               9     3      6    1030
                                              0 BANK0      9     3      6
 ---------------------------------------------------------------------------------
 (5) ___altoft                                            10     6      4    3843
                                             73 BANK0     10     6      4
                           ___ftpack
                            ___fttol (ARG)
 ---------------------------------------------------------------------------------
 (4) _eval_poly                                           12     5      7   19937
                                             58 BANK0     12     5      7
                            ___ftadd
                            ___ftmul
                             ___wmul
 ---------------------------------------------------------------------------------
 (5) ___wmul                                               6     2      4    7276
                                              0 BANK0      6     2      4
 ---------------------------------------------------------------------------------
 (5) ___ftmul                                             15     9      6    5607
                                             16 BANK0     15     9      6
                 _ADC_ReadPercentage (ARG)
                           ___awtoft (ARG)
                           ___ftpack
                           ___lbtoft (ARG)
                              _frexp (ARG)
 ---------------------------------------------------------------------------------
 (4) ___ftsub                                              6     0      6    6648
                                             58 BANK0      6     0      6
                           ___awtoft (ARG)
                            ___ftadd
 ---------------------------------------------------------------------------------
 (5) ___ftadd                                             12     6      6    6176
                                             46 BANK0     12     6      6
                 _ADC_ReadPercentage (ARG)
                           ___awtoft (ARG)
                            ___ftdiv (ARG)
                            ___ftmul (ARG)
                           ___ftpack
                           ___lbtoft (ARG)
                             ___wmul (ARG)
                              _frexp (ARG)
 ---------------------------------------------------------------------------------
 (4) ___ftneg                                              3     0      3     377
                                              0 BANK0      3     0      3
 ---------------------------------------------------------------------------------
 (4) ___ftdiv                                             15     9      6    4539
                                             31 BANK0     15     9      6
                 _ADC_ReadPercentage (ARG)
                            ___ftmul (ARG)
                           ___ftpack
                           ___lbtoft (ARG)
 ---------------------------------------------------------------------------------
 (4) ___awtoft                                             4     1      3    3876
                                              8 BANK0      4     1      3
                           ___ftpack
 ---------------------------------------------------------------------------------
 (3) ___lltoft                                             9     5      4    3741
                                              8 BANK0      9     5      4
                           ___ftpack
 ---------------------------------------------------------------------------------
 (2) ___lbtoft                                             4     1      3    3566
                                              8 BANK0      4     1      3
                           ___ftpack
 ---------------------------------------------------------------------------------
 (6) ___ftpack                                             8     3      5    3535
                                              0 BANK0      8     3      5
 ---------------------------------------------------------------------------------
 (2) _USBTransferOnePacket                                 7     3      4    2238
                                              0 BANK0      7     3      4
 ---------------------------------------------------------------------------------
 (2) _LED_Toggle                                           1     1      0      31
                                              0 BANK0      1     1      0
 ---------------------------------------------------------------------------------
 (2) _ADC_ReadPercentage                                   2     2      0     743
                                             14 BANK0      2     2      0
                      _ADC_Read10bit
                            ___lwdiv
 ---------------------------------------------------------------------------------
 (3) ___lwdiv                                              7     3      4     449
                                              7 BANK0      7     3      4
                      _ADC_Read10bit (ARG)
 ---------------------------------------------------------------------------------
 (3) _ADC_Read10bit                                        6     4      2     164
                                              1 BANK0      6     4      2
                            _LED_Off
                             _LED_On
 ---------------------------------------------------------------------------------
 (4) _LED_On                                               1     1      0      31
                                              0 BANK0      1     1      0
 ---------------------------------------------------------------------------------
 (4) _LED_Off                                              1     1      0      31
                                              0 BANK0      1     1      0
 ---------------------------------------------------------------------------------
 Estimated maximum stack depth 6
 ---------------------------------------------------------------------------------
 (Depth) Function   	        Calls       Base Space   Used Autos Params    Refs
 ---------------------------------------------------------------------------------
 (7) _SYS_InterruptHigh                                   14    14      0   29591
                                             28 COMRAM    14    14      0
                     _USBDeviceTasks
 ---------------------------------------------------------------------------------
 (8) _USBDeviceTasks                                       1     1      0   29591
                                             27 COMRAM     1     1      0
          _USBCtrlEPAllowStatusStage
                   _USBCtrlEPService
      _USBIncrement1msInternalTimers
                    _USBStallHandler
                         _USBSuspend
                 _USBWakeFromSuspend
    _USER_USB_CALLBACK_EVENT_HANDLER
                    i2_USBDeviceInit
 ---------------------------------------------------------------------------------
 (9) i2_USBDeviceInit                                      1     1      0     610
                                              8 COMRAM     1     1      0
                           i2_memset
 ---------------------------------------------------------------------------------
 (9) _USBWakeFromSuspend                                   0     0      0    3900
    _USER_USB_CALLBACK_EVENT_HANDLER
 ---------------------------------------------------------------------------------
 (9) _USBSuspend                                           0     0      0    3900
    _USER_USB_CALLBACK_EVENT_HANDLER
 ---------------------------------------------------------------------------------
 (9) _USBStallHandler                                      1     1      0       0
                                              0 COMRAM     1     1      0
 ---------------------------------------------------------------------------------
 (9) _USBIncrement1msInternalTimers                        0     0      0       0
 ---------------------------------------------------------------------------------
 (9) _USBCtrlEPService                                     1     1      0   17235
                                             26 COMRAM     1     1      0
                _USBCtrlTrfInHandler
               _USBCtrlTrfOutHandler
             _USBCtrlTrfSetupHandler
                             _memcpy
 ---------------------------------------------------------------------------------
 (10) _memcpy                                             10     4      6     387
                                              0 COMRAM    10     4      6
 ---------------------------------------------------------------------------------
 (10) _USBCtrlTrfSetupHandler                              0     0      0   16619
                 _USBCheckStdRequest
           _USBCtrlEPServiceComplete
    _USER_USB_CALLBACK_EVENT_HANDLER
 ---------------------------------------------------------------------------------
 (11) _USBCtrlEPServiceComplete                            0     0      0      92
            _USBCtrlEPAllowDataStage
          _USBCtrlEPAllowStatusStage
 ---------------------------------------------------------------------------------
 (12) _USBCtrlEPAllowDataStage                             0     0      0      92
                _USBCtrlTrfTxService
 ---------------------------------------------------------------------------------
 (11) _USBCheckStdRequest                                  0     0      0   12627
            _USBStdFeatureReqHandler
                _USBStdGetDscHandler
             _USBStdGetStatusHandler
                _USBStdSetCfgHandler
    _USER_USB_CALLBACK_EVENT_HANDLER
 ---------------------------------------------------------------------------------
 (12) _USBStdSetCfgHandler                                 1     1      0    4398
                                             20 COMRAM     1     1      0
    _USER_USB_CALLBACK_EVENT_HANDLER
                           i2_memset
 ---------------------------------------------------------------------------------
 (10) i2_memset                                            8     2      6     408
                                              0 COMRAM     8     2      6
 ---------------------------------------------------------------------------------
 (12) _USBStdGetStatusHandler                              3     3      0      46
                                              0 COMRAM     3     3      0
 ---------------------------------------------------------------------------------
 (12) _USBStdGetDscHandler                                 2     2      0       0
                                              0 COMRAM     2     2      0
 ---------------------------------------------------------------------------------
 (12) _USBStdFeatureReqHandler                             6     6      0    4283
                                             20 COMRAM     6     6      0
    _USER_USB_CALLBACK_EVENT_HANDLER
 ---------------------------------------------------------------------------------
 (9) _USER_USB_CALLBACK_EVENT_HANDLER                      8     2      6    3900
                                             12 COMRAM     8     2      6
      _APP_DeviceCustomHIDInitialize
             _APP_LEDUpdateUSBStatus
                 _USBCheckHIDRequest
                i2_SYSTEM_Initialize
 ---------------------------------------------------------------------------------
 (10) i2_SYSTEM_Initialize                                 1     1      0     110
                                              1 COMRAM     1     1      0
                       i2_ADC_Enable
             i2_ADC_SetConfiguration
                    i2_BUTTON_Enable
                       i2_LED_Enable
 ---------------------------------------------------------------------------------
 (11) i2_LED_Enable                                        1     1      0      22
                                              0 COMRAM     1     1      0
 ---------------------------------------------------------------------------------
 (11) i2_BUTTON_Enable                                     1     1      0      22
                                              0 COMRAM     1     1      0
 ---------------------------------------------------------------------------------
 (11) i2_ADC_SetConfiguration                              1     1      0      22
                                              0 COMRAM     1     1      0
 ---------------------------------------------------------------------------------
 (11) i2_ADC_Enable                                        1     1      0      22
                                              0 COMRAM     1     1      0
 ---------------------------------------------------------------------------------
 (10) _USBCheckHIDRequest                                  0     0      0       0
 ---------------------------------------------------------------------------------
 (10) _APP_LEDUpdateUSBStatus                              0     0      0      44
                          i2_LED_Off
                           i2_LED_On
 ---------------------------------------------------------------------------------
 (11) i2_LED_On                                            1     1      0      22
                                              0 COMRAM     1     1      0
 ---------------------------------------------------------------------------------
 (11) i2_LED_Off                                           1     1      0      22
                                              0 COMRAM     1     1      0
 ---------------------------------------------------------------------------------
 (10) _APP_DeviceCustomHIDInitialize                       0     0      0    1054
                  _USBEnableEndpoint
             i2_USBTransferOnePacket
 ---------------------------------------------------------------------------------
 (11) i2_USBTransferOnePacket                              7     3      4     410
                                              0 COMRAM     7     3      4
 ---------------------------------------------------------------------------------
 (11) _USBEnableEndpoint                                   4     3      1     644
                                              8 COMRAM     4     3      1
               _USBConfigureEndpoint
 ---------------------------------------------------------------------------------
 (12) _USBConfigureEndpoint                                8     7      1     400
                                              0 COMRAM     8     7      1
 ---------------------------------------------------------------------------------
 (10) _USBCtrlTrfOutHandler                                0     0      0     114
                _USBCtrlTrfRxService
 ---------------------------------------------------------------------------------
 (11) _USBCtrlTrfRxService                                 2     2      0     114
                                              0 COMRAM     2     2      0
          _USBCtrlEPAllowStatusStage
 ---------------------------------------------------------------------------------
 (12) _USBCtrlEPAllowStatusStage                           0     0      0       0
 ---------------------------------------------------------------------------------
 (10) _USBCtrlTrfInHandler                                 1     1      0     115
                                              1 COMRAM     1     1      0
                _USBCtrlTrfTxService
 ---------------------------------------------------------------------------------
 (13) _USBCtrlTrfTxService                                 1     1      0      92
                                              0 COMRAM     1     1      0
 ---------------------------------------------------------------------------------
 Estimated maximum stack depth 13
 ---------------------------------------------------------------------------------

 Call Graph Graphs:

 _main (ROOT)
   _APP_DeviceCustomHIDTasks
     _ADC_Read10bit
       _LED_Off
       _LED_On
     _ADC_ReadPercentage
       _ADC_Read10bit
         _LED_Off
         _LED_On
       ___lwdiv
         _ADC_Read10bit (ARG)
           _LED_Off
           _LED_On
     _LED_Toggle
     _USBTransferOnePacket
     ___ftadd
       _ADC_ReadPercentage (ARG)
         _ADC_Read10bit
           _LED_Off
           _LED_On
         ___lwdiv
           _ADC_Read10bit (ARG)
             _LED_Off
             _LED_On
       ___awtoft (ARG)
         ___ftpack
       ___ftdiv (ARG)
         _ADC_ReadPercentage (ARG)
           _ADC_Read10bit
             _LED_Off
             _LED_On
           ___lwdiv
             _ADC_Read10bit (ARG)
               _LED_Off
               _LED_On
         ___ftmul (ARG)
           _ADC_ReadPercentage (ARG)
             _ADC_Read10bit
               _LED_Off
               _LED_On
             ___lwdiv
               _ADC_Read10bit (ARG)
                 _LED_Off
                 _LED_On
           ___awtoft (ARG)
             ___ftpack
           ___ftpack (ARG)
           ___lbtoft (ARG)
             ___ftpack
           _frexp (ARG)
         ___ftpack (ARG)
         ___lbtoft (ARG)
           ___ftpack
       ___ftmul (ARG)
         _ADC_ReadPercentage (ARG)
           _ADC_Read10bit
             _LED_Off
             _LED_On
           ___lwdiv
             _ADC_Read10bit (ARG)
               _LED_Off
               _LED_On
         ___awtoft (ARG)
           ___ftpack
         ___ftpack (ARG)
         ___lbtoft (ARG)
           ___ftpack
         _frexp (ARG)
       ___ftpack (ARG)
       ___lbtoft (ARG)
         ___ftpack
       ___wmul (ARG)
       _frexp (ARG)
     ___ftdiv
       _ADC_ReadPercentage (ARG)
         _ADC_Read10bit
           _LED_Off
           _LED_On
         ___lwdiv
           _ADC_Read10bit (ARG)
             _LED_Off
             _LED_On
       ___ftmul (ARG)
         _ADC_ReadPercentage (ARG)
           _ADC_Read10bit
             _LED_Off
             _LED_On
           ___lwdiv
             _ADC_Read10bit (ARG)
               _LED_Off
               _LED_On
         ___awtoft (ARG)
           ___ftpack
         ___ftpack (ARG)
         ___lbtoft (ARG)
           ___ftpack
         _frexp (ARG)
       ___ftpack (ARG)
       ___lbtoft (ARG)
         ___ftpack
     ___ftmul
       _ADC_ReadPercentage (ARG)
         _ADC_Read10bit
           _LED_Off
           _LED_On
         ___lwdiv
           _ADC_Read10bit (ARG)
             _LED_Off
             _LED_On
       ___awtoft (ARG)
         ___ftpack
       ___ftpack (ARG)
       ___lbtoft (ARG)
         ___ftpack
       _frexp (ARG)
     ___fttol
       _ADC_ReadPercentage (ARG)
         _ADC_Read10bit
           _LED_Off
           _LED_On
         ___lwdiv
           _ADC_Read10bit (ARG)
             _LED_Off
             _LED_On
       ___ftadd (ARG)
         _ADC_ReadPercentage (ARG)
           _ADC_Read10bit
             _LED_Off
             _LED_On
           ___lwdiv
             _ADC_Read10bit (ARG)
               _LED_Off
               _LED_On
         ___awtoft (ARG)
           ___ftpack
         ___ftdiv (ARG)
           _ADC_ReadPercentage (ARG)
             _ADC_Read10bit
               _LED_Off
               _LED_On
             ___lwdiv
               _ADC_Read10bit (ARG)
                 _LED_Off
                 _LED_On
           ___ftmul (ARG)
             _ADC_ReadPercentage (ARG)
               _ADC_Read10bit
                 _LED_Off
                 _LED_On
               ___lwdiv
                 _ADC_Read10bit (ARG)
                   _LED_Off
                   _LED_On
             ___awtoft (ARG)
               ___ftpack
             ___ftpack (ARG)
             ___lbtoft (ARG)
               ___ftpack
             _frexp (ARG)
           ___ftpack (ARG)
           ___lbtoft (ARG)
             ___ftpack
         ___ftmul (ARG)
           _ADC_ReadPercentage (ARG)
             _ADC_Read10bit
               _LED_Off
               _LED_On
             ___lwdiv
               _ADC_Read10bit (ARG)
                 _LED_Off
                 _LED_On
           ___awtoft (ARG)
             ___ftpack
           ___ftpack (ARG)
           ___lbtoft (ARG)
             ___ftpack
           _frexp (ARG)
         ___ftpack (ARG)
         ___lbtoft (ARG)
           ___ftpack
         ___wmul (ARG)
         _frexp (ARG)
       ___ftdiv (ARG)
         _ADC_ReadPercentage (ARG)
           _ADC_Read10bit
             _LED_Off
             _LED_On
           ___lwdiv
             _ADC_Read10bit (ARG)
               _LED_Off
               _LED_On
         ___ftmul (ARG)
           _ADC_ReadPercentage (ARG)
             _ADC_Read10bit
               _LED_Off
               _LED_On
             ___lwdiv
               _ADC_Read10bit (ARG)
                 _LED_Off
                 _LED_On
           ___awtoft (ARG)
             ___ftpack
           ___ftpack (ARG)
           ___lbtoft (ARG)
             ___ftpack
           _frexp (ARG)
         ___ftpack (ARG)
         ___lbtoft (ARG)
           ___ftpack
       ___ftmul (ARG)
         _ADC_ReadPercentage (ARG)
           _ADC_Read10bit
             _LED_Off
             _LED_On
           ___lwdiv
             _ADC_Read10bit (ARG)
               _LED_Off
               _LED_On
         ___awtoft (ARG)
           ___ftpack
         ___ftpack (ARG)
         ___lbtoft (ARG)
           ___ftpack
         _frexp (ARG)
       ___lbtoft (ARG)
         ___ftpack
     ___lbtoft
       ___ftpack
     _pow
       ___ftge
       ___ftmul
         _ADC_ReadPercentage (ARG)
           _ADC_Read10bit
             _LED_Off
             _LED_On
           ___lwdiv
             _ADC_Read10bit (ARG)
               _LED_Off
               _LED_On
         ___awtoft (ARG)
           ___ftpack
         ___ftpack (ARG)
         ___lbtoft (ARG)
           ___ftpack
         _frexp (ARG)
       ___ftneg
       ___fttol
         _ADC_ReadPercentage (ARG)
           _ADC_Read10bit
             _LED_Off
             _LED_On
           ___lwdiv
             _ADC_Read10bit (ARG)
               _LED_Off
               _LED_On
         ___ftadd (ARG)
           _ADC_ReadPercentage (ARG)
             _ADC_Read10bit
               _LED_Off
               _LED_On
             ___lwdiv
               _ADC_Read10bit (ARG)
                 _LED_Off
                 _LED_On
           ___awtoft (ARG)
             ___ftpack
           ___ftdiv (ARG)
             _ADC_ReadPercentage (ARG)
               _ADC_Read10bit
                 _LED_Off
                 _LED_On
               ___lwdiv
                 _ADC_Read10bit (ARG)
                   _LED_Off
                   _LED_On
             ___ftmul (ARG)
               _ADC_ReadPercentage (ARG)
                 _ADC_Read10bit
                   _LED_Off
                   _LED_On
                 ___lwdiv
                   _ADC_Read10bit (ARG)
                     _LED_Off
                     _LED_On
               ___awtoft (ARG)
                 ___ftpack
               ___ftpack (ARG)
               ___lbtoft (ARG)
                 ___ftpack
               _frexp (ARG)
             ___ftpack (ARG)
             ___lbtoft (ARG)
               ___ftpack
           ___ftmul (ARG)
             _ADC_ReadPercentage (ARG)
               _ADC_Read10bit
                 _LED_Off
                 _LED_On
               ___lwdiv
                 _ADC_Read10bit (ARG)
                   _LED_Off
                   _LED_On
             ___awtoft (ARG)
               ___ftpack
             ___ftpack (ARG)
             ___lbtoft (ARG)
               ___ftpack
             _frexp (ARG)
           ___ftpack (ARG)
           ___lbtoft (ARG)
             ___ftpack
           ___wmul (ARG)
           _frexp (ARG)
         ___ftdiv (ARG)
           _ADC_ReadPercentage (ARG)
             _ADC_Read10bit
               _LED_Off
               _LED_On
             ___lwdiv
               _ADC_Read10bit (ARG)
                 _LED_Off
                 _LED_On
           ___ftmul (ARG)
             _ADC_ReadPercentage (ARG)
               _ADC_Read10bit
                 _LED_Off
                 _LED_On
               ___lwdiv
                 _ADC_Read10bit (ARG)
                   _LED_Off
                   _LED_On
             ___awtoft (ARG)
               ___ftpack
             ___ftpack (ARG)
             ___lbtoft (ARG)
               ___ftpack
             _frexp (ARG)
           ___ftpack (ARG)
           ___lbtoft (ARG)
             ___ftpack
         ___ftmul (ARG)
           _ADC_ReadPercentage (ARG)
             _ADC_Read10bit
               _LED_Off
               _LED_On
             ___lwdiv
               _ADC_Read10bit (ARG)
                 _LED_Off
                 _LED_On
           ___awtoft (ARG)
             ___ftpack
           ___ftpack (ARG)
           ___lbtoft (ARG)
             ___ftpack
           _frexp (ARG)
         ___lbtoft (ARG)
           ___ftpack
       ___lbtoft (ARG)
         ___ftpack
       ___lltoft (ARG)
         ___ftpack
       _exp (ARG)
         ___awtoft
           ___ftpack
         ___ftdiv
           _ADC_ReadPercentage (ARG)
             _ADC_Read10bit
               _LED_Off
               _LED_On
             ___lwdiv
               _ADC_Read10bit (ARG)
                 _LED_Off
                 _LED_On
           ___ftmul (ARG)
             _ADC_ReadPercentage (ARG)
               _ADC_Read10bit
                 _LED_Off
                 _LED_On
               ___lwdiv
                 _ADC_Read10bit (ARG)
                   _LED_Off
                   _LED_On
             ___awtoft (ARG)
               ___ftpack
             ___ftpack (ARG)
             ___lbtoft (ARG)
               ___ftpack
             _frexp (ARG)
           ___ftpack (ARG)
           ___lbtoft (ARG)
             ___ftpack
         ___ftge
         ___ftmul
           _ADC_ReadPercentage (ARG)
             _ADC_Read10bit
               _LED_Off
               _LED_On
             ___lwdiv
               _ADC_Read10bit (ARG)
                 _LED_Off
                 _LED_On
           ___awtoft (ARG)
             ___ftpack
           ___ftpack (ARG)
           ___lbtoft (ARG)
             ___ftpack
           _frexp (ARG)
         ___ftneg
         ___ftsub
           ___awtoft (ARG)
             ___ftpack
           ___ftadd (ARG)
             _ADC_ReadPercentage (ARG)
               _ADC_Read10bit
                 _LED_Off
                 _LED_On
               ___lwdiv
                 _ADC_Read10bit (ARG)
                   _LED_Off
                   _LED_On
             ___awtoft (ARG)
               ___ftpack
             ___ftdiv (ARG)
               _ADC_ReadPercentage (ARG)
                 _ADC_Read10bit
                   _LED_Off
                   _LED_On
                 ___lwdiv
                   _ADC_Read10bit (ARG)
                     _LED_Off
                     _LED_On
               ___ftmul (ARG)
                 _ADC_ReadPercentage (ARG)
                   _ADC_Read10bit
                     _LED_Off
                     _LED_On
                   ___lwdiv
                     _ADC_Read10bit (ARG)
                       _LED_Off
                       _LED_On
                 ___awtoft (ARG)
                   ___ftpack
                 ___ftpack (ARG)
                 ___lbtoft (ARG)
                   ___ftpack
                 _frexp (ARG)
               ___ftpack (ARG)
               ___lbtoft (ARG)
                 ___ftpack
             ___ftmul (ARG)
               _ADC_ReadPercentage (ARG)
                 _ADC_Read10bit
                   _LED_Off
                   _LED_On
                 ___lwdiv
                   _ADC_Read10bit (ARG)
                     _LED_Off
                     _LED_On
               ___awtoft (ARG)
                 ___ftpack
               ___ftpack (ARG)
               ___lbtoft (ARG)
                 ___ftpack
               _frexp (ARG)
             ___ftpack (ARG)
             ___lbtoft (ARG)
               ___ftpack
             ___wmul (ARG)
             _frexp (ARG)
         ___fttol
           _ADC_ReadPercentage (ARG)
             _ADC_Read10bit
               _LED_Off
               _LED_On
             ___lwdiv
               _ADC_Read10bit (ARG)
                 _LED_Off
                 _LED_On
           ___ftadd (ARG)
             _ADC_ReadPercentage (ARG)
               _ADC_Read10bit
                 _LED_Off
                 _LED_On
               ___lwdiv
                 _ADC_Read10bit (ARG)
                   _LED_Off
                   _LED_On
             ___awtoft (ARG)
               ___ftpack
             ___ftdiv (ARG)
               _ADC_ReadPercentage (ARG)
                 _ADC_Read10bit
                   _LED_Off
                   _LED_On
                 ___lwdiv
                   _ADC_Read10bit (ARG)
                     _LED_Off
                     _LED_On
               ___ftmul (ARG)
                 _ADC_ReadPercentage (ARG)
                   _ADC_Read10bit
                     _LED_Off
                     _LED_On
                   ___lwdiv
                     _ADC_Read10bit (ARG)
                       _LED_Off
                       _LED_On
                 ___awtoft (ARG)
                   ___ftpack
                 ___ftpack (ARG)
                 ___lbtoft (ARG)
                   ___ftpack
                 _frexp (ARG)
               ___ftpack (ARG)
               ___lbtoft (ARG)
                 ___ftpack
             ___ftmul (ARG)
               _ADC_ReadPercentage (ARG)
                 _ADC_Read10bit
                   _LED_Off
                   _LED_On
                 ___lwdiv
                   _ADC_Read10bit (ARG)
                     _LED_Off
                     _LED_On
               ___awtoft (ARG)
                 ___ftpack
               ___ftpack (ARG)
               ___lbtoft (ARG)
                 ___ftpack
               _frexp (ARG)
             ___ftpack (ARG)
             ___lbtoft (ARG)
               ___ftpack
             ___wmul (ARG)
             _frexp (ARG)
           ___ftdiv (ARG)
             _ADC_ReadPercentage (ARG)
               _ADC_Read10bit
                 _LED_Off
                 _LED_On
               ___lwdiv
                 _ADC_Read10bit (ARG)
                   _LED_Off
                   _LED_On
             ___ftmul (ARG)
               _ADC_ReadPercentage (ARG)
                 _ADC_Read10bit
                   _LED_Off
                   _LED_On
                 ___lwdiv
                   _ADC_Read10bit (ARG)
                     _LED_Off
                     _LED_On
               ___awtoft (ARG)
                 ___ftpack
               ___ftpack (ARG)
               ___lbtoft (ARG)
                 ___ftpack
               _frexp (ARG)
             ___ftpack (ARG)
             ___lbtoft (ARG)
               ___ftpack
           ___ftmul (ARG)
             _ADC_ReadPercentage (ARG)
               _ADC_Read10bit
                 _LED_Off
                 _LED_On
               ___lwdiv
                 _ADC_Read10bit (ARG)
                   _LED_Off
                   _LED_On
             ___awtoft (ARG)
               ___ftpack
             ___ftpack (ARG)
             ___lbtoft (ARG)
               ___ftpack
             _frexp (ARG)
           ___lbtoft (ARG)
             ___ftpack
         _eval_poly
           ___ftadd
             _ADC_ReadPercentage (ARG)
               _ADC_Read10bit
                 _LED_Off
                 _LED_On
               ___lwdiv
                 _ADC_Read10bit (ARG)
                   _LED_Off
                   _LED_On
             ___awtoft (ARG)
               ___ftpack
             ___ftdiv (ARG)
               _ADC_ReadPercentage (ARG)
                 _ADC_Read10bit
                   _LED_Off
                   _LED_On
                 ___lwdiv
                   _ADC_Read10bit (ARG)
                     _LED_Off
                     _LED_On
               ___ftmul (ARG)
                 _ADC_ReadPercentage (ARG)
                   _ADC_Read10bit
                     _LED_Off
                     _LED_On
                   ___lwdiv
                     _ADC_Read10bit (ARG)
                       _LED_Off
                       _LED_On
                 ___awtoft (ARG)
                   ___ftpack
                 ___ftpack (ARG)
                 ___lbtoft (ARG)
                   ___ftpack
                 _frexp (ARG)
               ___ftpack (ARG)
               ___lbtoft (ARG)
                 ___ftpack
             ___ftmul (ARG)
               _ADC_ReadPercentage (ARG)
                 _ADC_Read10bit
                   _LED_Off
                   _LED_On
                 ___lwdiv
                   _ADC_Read10bit (ARG)
                     _LED_Off
                     _LED_On
               ___awtoft (ARG)
                 ___ftpack
               ___ftpack (ARG)
               ___lbtoft (ARG)
                 ___ftpack
               _frexp (ARG)
             ___ftpack (ARG)
             ___lbtoft (ARG)
               ___ftpack
             ___wmul (ARG)
             _frexp (ARG)
           ___ftmul
             _ADC_ReadPercentage (ARG)
               _ADC_Read10bit
                 _LED_Off
                 _LED_On
               ___lwdiv
                 _ADC_Read10bit (ARG)
                   _LED_Off
                   _LED_On
             ___awtoft (ARG)
               ___ftpack
             ___ftpack (ARG)
             ___lbtoft (ARG)
               ___ftpack
             _frexp (ARG)
           ___wmul
         _floor
           ___altoft
             ___ftpack
             ___fttol (ARG)
               _ADC_ReadPercentage (ARG)
                 _ADC_Read10bit
                   _LED_Off
                   _LED_On
                 ___lwdiv
                   _ADC_Read10bit (ARG)
                     _LED_Off
                     _LED_On
               ___ftadd (ARG)
                 _ADC_ReadPercentage (ARG)
                   _ADC_Read10bit
                     _LED_Off
                     _LED_On
                   ___lwdiv
                     _ADC_Read10bit (ARG)
                       _LED_Off
                       _LED_On
                 ___awtoft (ARG)
                   ___ftpack
                 ___ftdiv (ARG)
                   _ADC_ReadPercentage (ARG)
                     _ADC_Read10bit
                       _LED_Off
                       _LED_On
                     ___lwdiv
                       _ADC_Read10bit (ARG)
                         _LED_Off
                         _LED_On
                   ___ftmul (ARG)
                     _ADC_ReadPercentage (ARG)
                       _ADC_Read10bit
                         _LED_Off
                         _LED_On
                       ___lwdiv
                         _ADC_Read10bit (ARG)
                           _LED_Off
                           _LED_On
                     ___awtoft (ARG)
                       ___ftpack
                     ___ftpack (ARG)
                     ___lbtoft (ARG)
                       ___ftpack
                     _frexp (ARG)
                   ___ftpack (ARG)
                   ___lbtoft (ARG)
                     ___ftpack
                 ___ftmul (ARG)
                   _ADC_ReadPercentage (ARG)
                     _ADC_Read10bit
                       _LED_Off
                       _LED_On
                     ___lwdiv
                       _ADC_Read10bit (ARG)
                         _LED_Off
                         _LED_On
                   ___awtoft (ARG)
                     ___ftpack
                   ___ftpack (ARG)
                   ___lbtoft (ARG)
                     ___ftpack
                   _frexp (ARG)
                 ___ftpack (ARG)
                 ___lbtoft (ARG)
                   ___ftpack
                 ___wmul (ARG)
                 _frexp (ARG)
               ___ftdiv (ARG)
                 _ADC_ReadPercentage (ARG)
                   _ADC_Read10bit
                     _LED_Off
                     _LED_On
                   ___lwdiv
                     _ADC_Read10bit (ARG)
                       _LED_Off
                       _LED_On
                 ___ftmul (ARG)
                   _ADC_ReadPercentage (ARG)
                     _ADC_Read10bit
                       _LED_Off
                       _LED_On
                     ___lwdiv
                       _ADC_Read10bit (ARG)
                         _LED_Off
                         _LED_On
                   ___awtoft (ARG)
                     ___ftpack
                   ___ftpack (ARG)
                   ___lbtoft (ARG)
                     ___ftpack
                   _frexp (ARG)
                 ___ftpack (ARG)
                 ___lbtoft (ARG)
                   ___ftpack
               ___ftmul (ARG)
                 _ADC_ReadPercentage (ARG)
                   _ADC_Read10bit
                     _LED_Off
                     _LED_On
                   ___lwdiv
                     _ADC_Read10bit (ARG)
                       _LED_Off
                       _LED_On
                 ___awtoft (ARG)
                   ___ftpack
                 ___ftpack (ARG)
                 ___lbtoft (ARG)
                   ___ftpack
                 _frexp (ARG)
               ___lbtoft (ARG)
                 ___ftpack
           ___ftadd
             _ADC_ReadPercentage (ARG)
               _ADC_Read10bit
                 _LED_Off
                 _LED_On
               ___lwdiv
                 _ADC_Read10bit (ARG)
                   _LED_Off
                   _LED_On
             ___awtoft (ARG)
               ___ftpack
             ___ftdiv (ARG)
               _ADC_ReadPercentage (ARG)
                 _ADC_Read10bit
                   _LED_Off
                   _LED_On
                 ___lwdiv
                   _ADC_Read10bit (ARG)
                     _LED_Off
                     _LED_On
               ___ftmul (ARG)
                 _ADC_ReadPercentage (ARG)
                   _ADC_Read10bit
                     _LED_Off
                     _LED_On
                   ___lwdiv
                     _ADC_Read10bit (ARG)
                       _LED_Off
                       _LED_On
                 ___awtoft (ARG)
                   ___ftpack
                 ___ftpack (ARG)
                 ___lbtoft (ARG)
                   ___ftpack
                 _frexp (ARG)
               ___ftpack (ARG)
               ___lbtoft (ARG)
                 ___ftpack
             ___ftmul (ARG)
               _ADC_ReadPercentage (ARG)
                 _ADC_Read10bit
                   _LED_Off
                   _LED_On
                 ___lwdiv
                   _ADC_Read10bit (ARG)
                     _LED_Off
                     _LED_On
               ___awtoft (ARG)
                 ___ftpack
               ___ftpack (ARG)
               ___lbtoft (ARG)
                 ___ftpack
               _frexp (ARG)
             ___ftpack (ARG)
             ___lbtoft (ARG)
               ___ftpack
             ___wmul (ARG)
             _frexp (ARG)
           ___ftge
           ___fttol
             _ADC_ReadPercentage (ARG)
               _ADC_Read10bit
                 _LED_Off
                 _LED_On
               ___lwdiv
                 _ADC_Read10bit (ARG)
                   _LED_Off
                   _LED_On
             ___ftadd (ARG)
               _ADC_ReadPercentage (ARG)
                 _ADC_Read10bit
                   _LED_Off
                   _LED_On
                 ___lwdiv
                   _ADC_Read10bit (ARG)
                     _LED_Off
                     _LED_On
               ___awtoft (ARG)
                 ___ftpack
               ___ftdiv (ARG)
                 _ADC_ReadPercentage (ARG)
                   _ADC_Read10bit
                     _LED_Off
                     _LED_On
                   ___lwdiv
                     _ADC_Read10bit (ARG)
                       _LED_Off
                       _LED_On
                 ___ftmul (ARG)
                   _ADC_ReadPercentage (ARG)
                     _ADC_Read10bit
                       _LED_Off
                       _LED_On
                     ___lwdiv
                       _ADC_Read10bit (ARG)
                         _LED_Off
                         _LED_On
                   ___awtoft (ARG)
                     ___ftpack
                   ___ftpack (ARG)
                   ___lbtoft (ARG)
                     ___ftpack
                   _frexp (ARG)
                 ___ftpack (ARG)
                 ___lbtoft (ARG)
                   ___ftpack
               ___ftmul (ARG)
                 _ADC_ReadPercentage (ARG)
                   _ADC_Read10bit
                     _LED_Off
                     _LED_On
                   ___lwdiv
                     _ADC_Read10bit (ARG)
                       _LED_Off
                       _LED_On
                 ___awtoft (ARG)
                   ___ftpack
                 ___ftpack (ARG)
                 ___lbtoft (ARG)
                   ___ftpack
                 _frexp (ARG)
               ___ftpack (ARG)
               ___lbtoft (ARG)
                 ___ftpack
               ___wmul (ARG)
               _frexp (ARG)
             ___ftdiv (ARG)
               _ADC_ReadPercentage (ARG)
                 _ADC_Read10bit
                   _LED_Off
                   _LED_On
                 ___lwdiv
                   _ADC_Read10bit (ARG)
                     _LED_Off
                     _LED_On
               ___ftmul (ARG)
                 _ADC_ReadPercentage (ARG)
                   _ADC_Read10bit
                     _LED_Off
                     _LED_On
                   ___lwdiv
                     _ADC_Read10bit (ARG)
                       _LED_Off
                       _LED_On
                 ___awtoft (ARG)
                   ___ftpack
                 ___ftpack (ARG)
                 ___lbtoft (ARG)
                   ___ftpack
                 _frexp (ARG)
               ___ftpack (ARG)
               ___lbtoft (ARG)
                 ___ftpack
             ___ftmul (ARG)
               _ADC_ReadPercentage (ARG)
                 _ADC_Read10bit
                   _LED_Off
                   _LED_On
                 ___lwdiv
                   _ADC_Read10bit (ARG)
                     _LED_Off
                     _LED_On
               ___awtoft (ARG)
                 ___ftpack
               ___ftpack (ARG)
               ___lbtoft (ARG)
                 ___ftpack
               _frexp (ARG)
             ___lbtoft (ARG)
               ___ftpack
           _frexp
         _ldexp
           _eval_poly (ARG)
             ___ftadd
               _ADC_ReadPercentage (ARG)
                 _ADC_Read10bit
                   _LED_Off
                   _LED_On
                 ___lwdiv
                   _ADC_Read10bit (ARG)
                     _LED_Off
                     _LED_On
               ___awtoft (ARG)
                 ___ftpack
               ___ftdiv (ARG)
                 _ADC_ReadPercentage (ARG)
                   _ADC_Read10bit
                     _LED_Off
                     _LED_On
                   ___lwdiv
                     _ADC_Read10bit (ARG)
                       _LED_Off
                       _LED_On
                 ___ftmul (ARG)
                   _ADC_ReadPercentage (ARG)
                     _ADC_Read10bit
                       _LED_Off
                       _LED_On
                     ___lwdiv
                       _ADC_Read10bit (ARG)
                         _LED_Off
                         _LED_On
                   ___awtoft (ARG)
                     ___ftpack
                   ___ftpack (ARG)
                   ___lbtoft (ARG)
                     ___ftpack
                   _frexp (ARG)
                 ___ftpack (ARG)
                 ___lbtoft (ARG)
                   ___ftpack
               ___ftmul (ARG)
                 _ADC_ReadPercentage (ARG)
                   _ADC_Read10bit
                     _LED_Off
                     _LED_On
                   ___lwdiv
                     _ADC_Read10bit (ARG)
                       _LED_Off
                       _LED_On
                 ___awtoft (ARG)
                   ___ftpack
                 ___ftpack (ARG)
                 ___lbtoft (ARG)
                   ___ftpack
                 _frexp (ARG)
               ___ftpack (ARG)
               ___lbtoft (ARG)
                 ___ftpack
               ___wmul (ARG)
               _frexp (ARG)
             ___ftmul
               _ADC_ReadPercentage (ARG)
                 _ADC_Read10bit
                   _LED_Off
                   _LED_On
                 ___lwdiv
                   _ADC_Read10bit (ARG)
                     _LED_Off
                     _LED_On
               ___awtoft (ARG)
                 ___ftpack
               ___ftpack (ARG)
               ___lbtoft (ARG)
                 ___ftpack
               _frexp (ARG)
             ___wmul
         _log (ARG)
           ___awtoft
             ___ftpack
           ___ftadd
             _ADC_ReadPercentage (ARG)
               _ADC_Read10bit
                 _LED_Off
                 _LED_On
               ___lwdiv
                 _ADC_Read10bit (ARG)
                   _LED_Off
                   _LED_On
             ___awtoft (ARG)
               ___ftpack
             ___ftdiv (ARG)
               _ADC_ReadPercentage (ARG)
                 _ADC_Read10bit
                   _LED_Off
                   _LED_On
                 ___lwdiv
                   _ADC_Read10bit (ARG)
                     _LED_Off
                     _LED_On
               ___ftmul (ARG)
                 _ADC_ReadPercentage (ARG)
                   _ADC_Read10bit
                     _LED_Off
                     _LED_On
                   ___lwdiv
                     _ADC_Read10bit (ARG)
                       _LED_Off
                       _LED_On
                 ___awtoft (ARG)
                   ___ftpack
                 ___ftpack (ARG)
                 ___lbtoft (ARG)
                   ___ftpack
                 _frexp (ARG)
               ___ftpack (ARG)
               ___lbtoft (ARG)
                 ___ftpack
             ___ftmul (ARG)
               _ADC_ReadPercentage (ARG)
                 _ADC_Read10bit
                   _LED_Off
                   _LED_On
                 ___lwdiv
                   _ADC_Read10bit (ARG)
                     _LED_Off
                     _LED_On
               ___awtoft (ARG)
                 ___ftpack
               ___ftpack (ARG)
               ___lbtoft (ARG)
                 ___ftpack
               _frexp (ARG)
             ___ftpack (ARG)
             ___lbtoft (ARG)
               ___ftpack
             ___wmul (ARG)
             _frexp (ARG)
           ___ftmul
             _ADC_ReadPercentage (ARG)
               _ADC_Read10bit
                 _LED_Off
                 _LED_On
               ___lwdiv
                 _ADC_Read10bit (ARG)
                   _LED_Off
                   _LED_On
             ___awtoft (ARG)
               ___ftpack
             ___ftpack (ARG)
             ___lbtoft (ARG)
               ___ftpack
             _frexp (ARG)
           _eval_poly
             ___ftadd
               _ADC_ReadPercentage (ARG)
                 _ADC_Read10bit
                   _LED_Off
                   _LED_On
                 ___lwdiv
                   _ADC_Read10bit (ARG)
                     _LED_Off
                     _LED_On
               ___awtoft (ARG)
                 ___ftpack
               ___ftdiv (ARG)
                 _ADC_ReadPercentage (ARG)
                   _ADC_Read10bit
                     _LED_Off
                     _LED_On
                   ___lwdiv
                     _ADC_Read10bit (ARG)
                       _LED_Off
                       _LED_On
                 ___ftmul (ARG)
                   _ADC_ReadPercentage (ARG)
                     _ADC_Read10bit
                       _LED_Off
                       _LED_On
                     ___lwdiv
                       _ADC_Read10bit (ARG)
                         _LED_Off
                         _LED_On
                   ___awtoft (ARG)
                     ___ftpack
                   ___ftpack (ARG)
                   ___lbtoft (ARG)
                     ___ftpack
                   _frexp (ARG)
                 ___ftpack (ARG)
                 ___lbtoft (ARG)
                   ___ftpack
               ___ftmul (ARG)
                 _ADC_ReadPercentage (ARG)
                   _ADC_Read10bit
                     _LED_Off
                     _LED_On
                   ___lwdiv
                     _ADC_Read10bit (ARG)
                       _LED_Off
                       _LED_On
                 ___awtoft (ARG)
                   ___ftpack
                 ___ftpack (ARG)
                 ___lbtoft (ARG)
                   ___ftpack
                 _frexp (ARG)
               ___ftpack (ARG)
               ___lbtoft (ARG)
                 ___ftpack
               ___wmul (ARG)
               _frexp (ARG)
             ___ftmul
               _ADC_ReadPercentage (ARG)
                 _ADC_Read10bit
                   _LED_Off
                   _LED_On
                 ___lwdiv
                   _ADC_Read10bit (ARG)
                     _LED_Off
                     _LED_On
               ___awtoft (ARG)
                 ___ftpack
               ___ftpack (ARG)
               ___lbtoft (ARG)
                 ___ftpack
               _frexp (ARG)
             ___wmul
           _frexp
       _log (ARG)
         ___awtoft
           ___ftpack
         ___ftadd
           _ADC_ReadPercentage (ARG)
             _ADC_Read10bit
               _LED_Off
               _LED_On
             ___lwdiv
               _ADC_Read10bit (ARG)
                 _LED_Off
                 _LED_On
           ___awtoft (ARG)
             ___ftpack
           ___ftdiv (ARG)
             _ADC_ReadPercentage (ARG)
               _ADC_Read10bit
                 _LED_Off
                 _LED_On
               ___lwdiv
                 _ADC_Read10bit (ARG)
                   _LED_Off
                   _LED_On
             ___ftmul (ARG)
               _ADC_ReadPercentage (ARG)
                 _ADC_Read10bit
                   _LED_Off
                   _LED_On
                 ___lwdiv
                   _ADC_Read10bit (ARG)
                     _LED_Off
                     _LED_On
               ___awtoft (ARG)
                 ___ftpack
               ___ftpack (ARG)
               ___lbtoft (ARG)
                 ___ftpack
               _frexp (ARG)
             ___ftpack (ARG)
             ___lbtoft (ARG)
               ___ftpack
           ___ftmul (ARG)
             _ADC_ReadPercentage (ARG)
               _ADC_Read10bit
                 _LED_Off
                 _LED_On
               ___lwdiv
                 _ADC_Read10bit (ARG)
                   _LED_Off
                   _LED_On
             ___awtoft (ARG)
               ___ftpack
             ___ftpack (ARG)
             ___lbtoft (ARG)
               ___ftpack
             _frexp (ARG)
           ___ftpack (ARG)
           ___lbtoft (ARG)
             ___ftpack
           ___wmul (ARG)
           _frexp (ARG)
         ___ftmul
           _ADC_ReadPercentage (ARG)
             _ADC_Read10bit
               _LED_Off
               _LED_On
             ___lwdiv
               _ADC_Read10bit (ARG)
                 _LED_Off
                 _LED_On
           ___awtoft (ARG)
             ___ftpack
           ___ftpack (ARG)
           ___lbtoft (ARG)
             ___ftpack
           _frexp (ARG)
         _eval_poly
           ___ftadd
             _ADC_ReadPercentage (ARG)
               _ADC_Read10bit
                 _LED_Off
                 _LED_On
               ___lwdiv
                 _ADC_Read10bit (ARG)
                   _LED_Off
                   _LED_On
             ___awtoft (ARG)
               ___ftpack
             ___ftdiv (ARG)
               _ADC_ReadPercentage (ARG)
                 _ADC_Read10bit
                   _LED_Off
                   _LED_On
                 ___lwdiv
                   _ADC_Read10bit (ARG)
                     _LED_Off
                     _LED_On
               ___ftmul (ARG)
                 _ADC_ReadPercentage (ARG)
                   _ADC_Read10bit
                     _LED_Off
                     _LED_On
                   ___lwdiv
                     _ADC_Read10bit (ARG)
                       _LED_Off
                       _LED_On
                 ___awtoft (ARG)
                   ___ftpack
                 ___ftpack (ARG)
                 ___lbtoft (ARG)
                   ___ftpack
                 _frexp (ARG)
               ___ftpack (ARG)
               ___lbtoft (ARG)
                 ___ftpack
             ___ftmul (ARG)
               _ADC_ReadPercentage (ARG)
                 _ADC_Read10bit
                   _LED_Off
                   _LED_On
                 ___lwdiv
                   _ADC_Read10bit (ARG)
                     _LED_Off
                     _LED_On
               ___awtoft (ARG)
                 ___ftpack
               ___ftpack (ARG)
               ___lbtoft (ARG)
                 ___ftpack
               _frexp (ARG)
             ___ftpack (ARG)
             ___lbtoft (ARG)
               ___ftpack
             ___wmul (ARG)
             _frexp (ARG)
           ___ftmul
             _ADC_ReadPercentage (ARG)
               _ADC_Read10bit
                 _LED_Off
                 _LED_On
               ___lwdiv
                 _ADC_Read10bit (ARG)
                   _LED_Off
                   _LED_On
             ___awtoft (ARG)
               ___ftpack
             ___ftpack (ARG)
             ___lbtoft (ARG)
               ___ftpack
             _frexp (ARG)
           ___wmul
         _frexp
   _SYSTEM_Initialize
     _ADC_Enable
     _ADC_SetConfiguration
     _BUTTON_Enable
     _LED_Enable
   _USBDeviceAttach
   _USBDeviceInit
     _memset

 _SYS_InterruptHigh (ROOT)
   _USBDeviceTasks
     _USBCtrlEPAllowStatusStage
     _USBCtrlEPService
       _USBCtrlTrfInHandler
         _USBCtrlTrfTxService
       _USBCtrlTrfOutHandler
         _USBCtrlTrfRxService
           _USBCtrlEPAllowStatusStage
       _USBCtrlTrfSetupHandler
         _USBCheckStdRequest
           _USBStdFeatureReqHandler
             _USER_USB_CALLBACK_EVENT_HANDLER
               _APP_DeviceCustomHIDInitialize
                 _USBEnableEndpoint
                   _USBConfigureEndpoint
                 i2_USBTransferOnePacket
               _APP_LEDUpdateUSBStatus
                 i2_LED_Off
                 i2_LED_On
               _USBCheckHIDRequest
               i2_SYSTEM_Initialize
                 i2_ADC_Enable
                 i2_ADC_SetConfiguration
                 i2_BUTTON_Enable
                 i2_LED_Enable
           _USBStdGetDscHandler
           _USBStdGetStatusHandler
           _USBStdSetCfgHandler
             _USER_USB_CALLBACK_EVENT_HANDLER
               _APP_DeviceCustomHIDInitialize
                 _USBEnableEndpoint
                   _USBConfigureEndpoint
                 i2_USBTransferOnePacket
               _APP_LEDUpdateUSBStatus
                 i2_LED_Off
                 i2_LED_On
               _USBCheckHIDRequest
               i2_SYSTEM_Initialize
                 i2_ADC_Enable
                 i2_ADC_SetConfiguration
                 i2_BUTTON_Enable
                 i2_LED_Enable
             i2_memset
           _USER_USB_CALLBACK_EVENT_HANDLER
             _APP_DeviceCustomHIDInitialize
               _USBEnableEndpoint
                 _USBConfigureEndpoint
               i2_USBTransferOnePacket
             _APP_LEDUpdateUSBStatus
               i2_LED_Off
               i2_LED_On
             _USBCheckHIDRequest
             i2_SYSTEM_Initialize
               i2_ADC_Enable
               i2_ADC_SetConfiguration
               i2_BUTTON_Enable
               i2_LED_Enable
         _USBCtrlEPServiceComplete
           _USBCtrlEPAllowDataStage
             _USBCtrlTrfTxService
           _USBCtrlEPAllowStatusStage
         _USER_USB_CALLBACK_EVENT_HANDLER
           _APP_DeviceCustomHIDInitialize
             _USBEnableEndpoint
               _USBConfigureEndpoint
             i2_USBTransferOnePacket
           _APP_LEDUpdateUSBStatus
             i2_LED_Off
             i2_LED_On
           _USBCheckHIDRequest
           i2_SYSTEM_Initialize
             i2_ADC_Enable
             i2_ADC_SetConfiguration
             i2_BUTTON_Enable
             i2_LED_Enable
       _memcpy
     _USBIncrement1msInternalTimers
     _USBStallHandler
     _USBSuspend
       _USER_USB_CALLBACK_EVENT_HANDLER
         _APP_DeviceCustomHIDInitialize
           _USBEnableEndpoint
             _USBConfigureEndpoint
           i2_USBTransferOnePacket
         _APP_LEDUpdateUSBStatus
           i2_LED_Off
           i2_LED_On
         _USBCheckHIDRequest
         i2_SYSTEM_Initialize
           i2_ADC_Enable
           i2_ADC_SetConfiguration
           i2_BUTTON_Enable
           i2_LED_Enable
     _USBWakeFromSuspend
       _USER_USB_CALLBACK_EVENT_HANDLER
         _APP_DeviceCustomHIDInitialize
           _USBEnableEndpoint
             _USBConfigureEndpoint
           i2_USBTransferOnePacket
         _APP_LEDUpdateUSBStatus
           i2_LED_Off
           i2_LED_On
         _USBCheckHIDRequest
         i2_SYSTEM_Initialize
           i2_ADC_Enable
           i2_ADC_SetConfiguration
           i2_BUTTON_Enable
           i2_LED_Enable
     _USER_USB_CALLBACK_EVENT_HANDLER
       _APP_DeviceCustomHIDInitialize
         _USBEnableEndpoint
           _USBConfigureEndpoint
         i2_USBTransferOnePacket
       _APP_LEDUpdateUSBStatus
         i2_LED_Off
         i2_LED_On
       _USBCheckHIDRequest
       i2_SYSTEM_Initialize
         i2_ADC_Enable
         i2_ADC_SetConfiguration
         i2_BUTTON_Enable
         i2_LED_Enable
     i2_USBDeviceInit
       i2_memset

 Address spaces:
Name               Size   Autos  Total    Cost      Usage
BIGRAMll           3FF      0       0      23        0.0%
BIGRAMh            280      0       0      21        0.0%
EEDATA             100      0       0       0        0.0%
BITBANK7           100      0       0      19        0.0%
BANK7              100      0       0      20        0.0%
BITBANK6           100      0       0      17        0.0%
BANK6              100      0       0      18        0.0%
BITBANK3           100      0       0      10        0.0%
BANK3              100      0       0      11        0.0%
BITBANK2           100      0       0       8        0.0%
BANK2              100      0       0       9        0.0%
BITBANK1           100      0       0       6        0.0%
BANK1              100      0       0       7        0.0%
BIGRAMlh            D0      0       0      22        0.0%
BITBANK4            D0      0       0      12        0.0%
BANK4               D0      0       0      13        0.0%
BITBANK0            A0      0       0       4        0.0%
BANK0               A0     82      97       5       94.4%
BITBANK5            80      0       0      15        0.0%
BANK5               80      0       0      16        0.0%
BITCOMRAM           5F      0       0       0        0.0%
COMRAM              5F     2A      54       1       88.4%
BITSFR_1             0      0       0      40        0.0%
SFR_1                0      0       0      40        0.0%
BITSFR               0      0       0      40        0.0%
SFR                  0      0       0      40        0.0%
STACK                0      0       0       2        0.0%
NULL                 0      0       0       0        0.0%
ABS                  0      0      EB      14        0.0%
DATA                 0      0      EB       3        0.0%
CODE                 0      0       0       0        0.0%


Microchip Technology PIC18 Macro Assembler V1.34 build -361300703 
Symbol Table                                                                                   Thu Jan 28 14:02:57 2016

                            ___altoft@exp 00B1                                _USB_SD_Ptr 7EFF  
         APP_DeviceCustomHIDTasks@pot_861 00DA           APP_DeviceCustomHIDTasks@pot_862 00DC  
                           ___altoft@sign 00B2                                        l17 31C8  
                                      l60 2B10                                        l62 2B50  
                                      l54 2CDE                                        l70 3140  
                                      l91 30C4                                        l68 3138  
                                      l97 30E8                                        l89 30C0  
                                      l99 30EC                               ?_LED_Enable 002B  
                           _USBDeviceInit 0DDA                       ___wmul@multiplicand 0062  
                      _USBCheckHIDRequest 1C40                       __size_of_ADC_Enable 0026  
                            __CFG_CP0$OFF 000000                              __CFG_CP1$OFF 000000  
                            __CFG_CP2$OFF 000000                              __CFG_CP3$OFF 000000  
                            ___ftadd@exp1 0099                              ___ftadd@exp2 0098  
    USER_USB_CALLBACK_EVENT_HANDLER@event 0037      USER_USB_CALLBACK_EVENT_HANDLER@pdata 0039  
                            ___ftadd@sign 0097                                       l105 3098  
                                     l121 2F56                                       l107 309C  
                                     l123 2F5E                                       l150 2B90  
                             ?_LED_Toggle 002B               __end_of_USBStdGetDscHandler 1810  
                                     l435 0E48                                       l197 3080  
                                     l495 2F44                                       l496 2F42  
                                     _BDT 000400                              __CFG_CPB$OFF 000000  
                            __CFG_CPD$OFF 000000                                       _UIE 000F64  
                                     _UIR 000F65                    _APP_LEDUpdateUSBStatus 28FE  
                                     _exp 087E                                       _log 0F40  
                              _USBSuspend 2FE0                                       _pow 0AB8  
                    USBStdSetCfgHandler@i 003F                                       prod 000FF3  
                                     wreg 000FE8                            _USBDeviceTasks 1336  
                     ?_USBCheckHIDRequest 002B                            _USBDeviceState 001B  
                           _BUTTON_Enable 31C2                     ??_USBCtrlTrfRxService 002B  
                __size_ofi2_USBDeviceInit 0148                  USBEnableEndpoint@options 0033  
                            __CFG_LVP$OFF 000000                           __end_of_LED_Off 310A  
                            ___ftdiv@cntr 0088                              ___ftdiv@sign 008D  
                                    l1103 07DA                                      l1050 18F6  
                                    l1114 12FC                                      l1303 0C60  
                                    l1136 2FA2                                      l1322 0964  
                                    l1083 06A2                                      l1323 0AAA  
                                    l1085 06CC                                      l1333 1B34  
                                    l1094 07B0                                      l1079 0668  
                                    l1249 29FC                                      l1298 0B00  
              USBConfigureEndpoint@handle 0031                                      l4151 10CC  
                                    l6011 0242                                      l6003 0210  
                                    l4181 11A4                                      l4173 1174  
                                    l6021 02A2                                      l6005 0232  
                                    l4183 11B2                                      l6023 02C2  
                                    l4169 1160                                      l6041 0348  
                                    l5331 0676                                      l5315 263A  
                                    l4187 11D0                                      l4179 1192  
                                    l6027 02DC                                      l6019 0298  
                                    l5405 0CE2                                      l5317 264C  
                                    l4461 15EA                                      l5503 1258  
                                    l5343 06C2                                      l5423 0D52  
                                    l6039 0324                                      l6055 3088  
                                    l5281 18A4                                      l5273 1840  
                                    l5361 0744                                      l5353 0704  
                                    l5337 06B0                                      l5433 0D96  
                                    l4481 1684                                      l6049 3078  
                                    l5291 1902                                      l5283 18D6  
                                    l5275 1850                                      l5523 12BA  
                                    l5371 0790                                      l5363 0754  
                                    l5427 0D6E                                      l5419 0D32  
                                    l5285 18E6                                      l5277 1882  
                                    l5269 182A                                      l5621 2A90  
                                    l5533 130E                                      l5373 07A0  
                                    l5365 0760                                      l5541 2D0A  
                                    l5437 0DB2                                      l5429 0D76  
                                    l5445 21DC                                      l4485 1698  
                                    l4469 1652                                      l5623 2AA2  
                                    l5359 0734                                      l5455 2262  
                                    l4487 16DC                                      l5297 1920  
                                    l5553 2D54                                      l5449 221E  
                                    l5713 0A7A                                      l5721 31D0  
                                    l5483 30C8                                      l5635 29A2  
                                    l5731 2CA0                                      l5379 0806  
                                    l5467 2594                                      l5571 1A80  
                                    l5811 0B38                                      ?_exp 00BB  
                                    l5637 29B0                                      l5725 2C9A  
                                    l5733 2CAA                                      l5389 0856  
                                    l5805 0B14                                      l5901 0E54  
                                    ?_log 00A6                                      l5647 29EC  
                                    l5639 29BA                                      l5399 0CA8  
                                    l5575 1A94                                      l5663 0F92  
                                    l5823 0BD8                                      l5489 30F0  
                                    l5497 121E                                      l5657 0F64  
                                    l5745 3144                                      l5841 2E9A  
                                    l5913 0E88                                      l5595 2B1A  
                                    l5771 1F3A                                      l5587 1D7A  
                                    l5579 1AB2                                      l5691 092E  
                                    l5819 0BB0                                      l5763 2F66  
                                    l5923 0EF8                                      l5597 2B24  
                                    l5757 30A0                                      l5589 1E04  
                                    l5685 08E8                                      l5837 2E86  
                                    l5917 0E92                                      l5791 1FD2  
                                    l5679 08A2                                      l5777 1F54  
                                    l5769 1F1E                                      l5961 009E  
                                    l5849 2B82                                      l5971 00EE  
                                    l5963 00AC                                      l5789 1FBA  
                                    l5981 011E                                      l5869 2BC4  
                                    l5893 0E40                                      l5983 0124  
                                    l5975 0108                                      l5967 00C6  
                                    l5977 0114                                      l5889 0E22  
                                    l5995 01EE                                      l5987 012E  
                                    ?_pow 00C4                     ??i2_SYSTEM_Initialize 002C  
                                    u5001 0616                                      u5011 0634  
                                    u5211 0C84                                      u5310 25C6  
                                    u5231 0CBE                                      u5321 11FA  
                                    u3571 10A8                                      u5420 1AA4  
                                    u5341 1234                                      u3590 10F2  
                                    u5318 25CA                                      u3595 10E8  
                                    u3940 161C                                      u5550 0938  
                                    u5560 093A                                      i2l17 3228  
                                    u3948 1620                                      i2l70 31F0  
                   ??_USBCtrlTrfTxService 002B                                      u5690 0B92  
                                    i2l91 3160                                      i2l68 31E8  
                                    _UCFG 000F62                                      i2l97 3180  
                                    i2l89 315C                                      i2l99 3184  
                                    _UEP0 000F6A                                      _UEP1 000F6B  
                                    _UEIE 000F66                                      _UEIR 000F67  
                                    _UCON 000F60    USBStdFeatureReqHandler@current_ep_data 0042  
                                    _pDst 00F0                                      _main 3068  
                            ___ftpack@arg 0060                  ??i2_USBTransferOnePacket 002F  
                            ___ftpack@exp 0063                                      fsr0h 000FEA  
                                    fsr1h 000FE2                                      fsr0l 000FE9  
                                    fsr2h 000FDA                                      indf1 000FE7  
                                    fsr1l 000FE1                                      indf2 000FDF  
                                    fsr2l 000FD9                           _USBDeviceAttach 2F1E  
                           __CFG_BORV$190 000000                                      exp@x 00BB  
                                    log@x 00A6                                      pclat 000FFA  
                                    pow@x 00C4                                      pow@y 00C7  
                                    prodh 000FF4                                      prodl 000FF3  
                                    start 007E                  __size_ofi2_BUTTON_Enable 001E  
                           __CFG_IESO$OFF 000000                      ??_USBCheckHIDRequest 002B  
              __end_of_USBCheckStdRequest 1F00                    ??_USBCtrlTrfOutHandler 002D  
                           __CFG_MCLRE$ON 000000                              ___ftmul@cntr 007D  
                            ___param_bank 000010                              ___ftmul@sign 007E  
               ??_USBStdFeatureReqHandler 003F                              _USBOutHandle 00EC  
             __size_of_ADC_ReadPercentage 0054                  ??_USBStdGetStatusHandler 002B  
                            ___fttol@exp1 00A8                                     ??_exp 00BE  
                                   ??_log 00A9                              ___fttol@lval 00A4  
                                   ??_pow 00CA                            ?_USBDeviceInit 002B  
                      __size_ofi2_LED_Off 0024                                     ?_main 002B  
                         __end_of___ftadd 087E         __size_of_USBCtrlEPServiceComplete 00FE  
                         __end_of___ftdiv 1336                           __end_of___ftneg 2FB0  
                         __end_of___ftmul 0DDA                    __end_of_USBDeviceTasks 147E  
                         __end_of___ftsub 2D36                           __end_of___fttol 11E4  
               ?_USBCtrlEPServiceComplete 002B                           __end_of___lwdiv 2A06  
                                   i2l121 3040                                     i2l123 3048  
                                   i2l150 2C4A                                     i2l520 1BBE  
                                   i2l435 14DC                          __end_ofi2_LED_On 317C  
                                   i2l446 1362                                     i2l631 249A  
                                   i2l456 1400                                     i2l457 147A  
                                   i2l458 1410                                     i2l660 039C  
                                   i2l645 1E32                                     i2l654 1E82  
                                   i2l583 24B8                                     i2l586 254A  
                                   i2l587 24CE                                     i2l588 24D2  
                                   i2l596 2DBE                                     i2l679 0568  
                                   _UADDR 000F63                                     _USTAT 000F61  
                           __CFG_WRT0$OFF 000000        __size_of_USBCtrlEPAllowStatusStage 00C4  
                           __CFG_WRT1$OFF 000000                             __CFG_WRT2$OFF 000000  
                           __CFG_WRT3$OFF 000000                              ___lltoft@exp 0070  
                          __CFG_EBTR0$OFF 000000                            __CFG_FCMEN$OFF 000000  
                          ?_BUTTON_Enable 002B                            __CFG_EBTR1$OFF 000000  
                          __CFG_EBTR2$OFF 000000                            __CFG_EBTR3$OFF 000000  
         __end_of_USBCtrlEPAllowDataStage 2750                                     _sd000 7FFA  
                                   _sd001 7F07                                     _sd002 7F3B  
                           __CFG_WRTB$OFF 000000            ?_USBIncrement1msInternalTimers 002B  
                           __CFG_WRTC$OFF 000000                             __CFG_WRTD$OFF 000000  
                          __CFG_EBTRB$OFF 000000                             ___awtoft@sign 006B  
                              i2memset@p1 002B                                     _floor 1A44  
                                   _ldexp 15C6                                     _frexp 2560  
                                   _errno 00EE                             ___ftpack@sign 0064  
                                   tablat 000FF5                             ?i2_ADC_Enable 002B  
                                   pow@yi 00D1                       __size_of_LED_Enable 0030  
                                   plusw2 000FDB                                     status 000FD8  
                          __CFG_T3CMX$RC0 000000                            __CFG_ICPRT$OFF 000000  
                        __end_ofi2_memset 303C                       __size_of_LED_Toggle 0028  
                             exp@exponent 00C1                               ldexp@newexp 00A9  
            __size_of_USBStdSetCfgHandler 00DE                           __initialization 31A0  
                             log@exponent 00A9                              __end_of_main 3092  
                ??i2_ADC_SetConfiguration 002B                 __size_of_USBCtrlEPService 0092  
                                  ??_main 00E2                             ___fttol@sign1 00A3  
                           __activetblptr 000002                           ?_USBDeviceTasks 002B  
                  __size_of_ADC_Read10bit 0074                               ?_USBSuspend 002B  
                               ??_LED_Off 0060                            __CFG_SDOMX$RC7 000000  
               ADC_ReadPercentage@channel 006E                           __CFG_CCP2MX$RC1 000000  
                 __end_of_USBDeviceAttach 2F50                                    _ADCON0 000FC2  
                                  _ADCON1 000FC1                                    _ADCON2 000FC0  
                                  ?_floor 00B3                                    ?_ldexp 00A6  
                                  ?_frexp 0060                          __end_of___altoft 26B0  
                                  _ACTCON 000FB5                                    _ADRESH 000FC4  
                                  _ADRESL 000FC3                          __end_of___awtoft 2D7E  
                        __end_of___ftpack 1930                          __end_of___lbtoft 2FE0  
                          ??i2_ADC_Enable 002B                    SYSTEM_Initialize@state 0061  
                            ??_ADC_Enable 0060                          __end_of___lltoft 2B08  
                                  _LED_On 30BA                                    i2l4301 19DE  
                                  i2l5013 13F6                                    i2l5005 13D0  
                                  i2l3431 27CC                                    i2l4231 1B5E  
                                  i2l4305 19F8                                    i2l5041 1476  
                                  i2l5033 1436                                    i2l3443 2E26  
                                  i2l3507 23CA                                    i2l3531 2946  
                                  i2l3523 291E                                    i2l3611 1D04  
                                  i2l3451 3230                                    i2l4323 1E3A  
                                  i2l4235 1B68                                    i2l5035 144A  
                                  i2l5019 1408                                    i2l3429 27B2  
                                  i2l3509 23E0                                    i2l3605 1CFA  
                                  i2l4325 1E40                                    i2l3703 218E  
                                  i2l3439 2E16                                    i2l3535 2956  
                                  i2l3527 2930                                    i2l3519 290E  
                                  i2l3615 2C3C                                    i2l4335 1E58  
                                  i2l4327 1E46                                    i2l4247 1BD6  
                                  i2l4255 1BEA                                    i2l5039 1456  
                                  i2l4601 2480                                    i2l3545 2974  
                                  i2l3457 31F4                                    i2l3481 3050  
                                  i2l3641 2A10                                    i2l4337 1E60  
                                  i2l4353 1EBA                                    i2l4521 2DD4  
                                  i2l4283 1960                                    i2l3475 3188  
                                  i2l3539 2968                                    i2l3547 297E  
                                  i2l3563 1C5C                                    i2l3635 2C7E  
                                  i2l3643 2A1C                                    i2l3651 2A34  
                                  i2l4339 1E66                                    i2l3469 3164  
                                  i2l3573 1C80                                    i2l3645 2A28  
                                  i2l3813 201E                                    i2l4349 1E9C  
                                  i2l2909 2DBC                 ADC_ReadPercentage@percent 006F  
                                  i2l3671 20DA                                    i2l4607 24A2  
                                  i2l4279 1952                                    i2l3495 236E  
                                  i2l3487 2342                                    i2l3575 1C86  
                                  i2l3567 1C6A                                    i2l3583 1C9A  
                                  i2l3559 1C50                                    i2l3647 2A2E  
                                  i2l3639 2A0A                                    i2l3743 3018  
                                  i2l3823 2052                                    i2l4527 2DF2  
                                  i2l4289 1984                                    i2l3489 235C  
                                  i2l3585 1CAE                                    i2l3913 0396  
                                  i2l3817 2026                                    i2l3675 20E6  
                                  i2l3763 22AE                                    i2l3595 1CDA  
                                  i2l3851 170E                                    i2l3747 302A  
                                  i2l3685 2112                                    i2l3693 214A  
                                  i2l4581 241A                                    i2l3589 1CC4  
                                  i2l3941 0498                                    i2l3933 0456  
                                  i2l3861 1798                                    i2l4901 14E8  
                                  i2l3695 2156                                    i2l4583 2420  
                                  i2l4567 2C30                                    i2l4559 2BE8  
                                  i2l3599 1CE4                                    i2l3951 04E6  
                                  i2l3935 045A                                    i2l3927 0410  
                                  i2l3847 16FC                                    i2l3839 2098  
                                  i2l6097 2A4C                                    i2l3929 044E  
                                  i2l3873 17F4                                    i2l3793 2702  
                                  i2l4817 2ED8                                    i2l4913 151A  
                                  i2l4595 2460                                    i2l6099 2A80  
                                  i2l3955 0500                                    i2l3939 0476  
                                  i2l3867 17E8                                    i2l3859 1792  
                                  i2l4819 2EDC                                    i2l4923 157E  
                                  i2l3981 05CA                                    i2l3965 0546  
                                  i2l3949 04CA                                    i2l3869 17EE  
                                  i2l3885 24F0                                    i2l3797 271C  
                                  i2l4861 2860                                    i2l4917 1522  
                                  i2l3983 05D8                                    i2l3975 0584  
                                  i2l3967 0554                                    i2l3887 2512  
                                  i2l3879 24C2                                    i2l3895 2532  
                                  i2l4863 2866                                    i2l3977 05A0  
                                  i2l4961 135A                                    i2l4953 134C  
                                  i2l4893 14D6                                    i2l4981 1382  
                                  i2l4975 1376                                    i2l4889 14BC  
                                  i2l4995 13B8                                    i2l4987 13A8  
                                  i2l4999 13C4                         __end_ofi2_LED_Off 31A0  
         ??_APP_DeviceCustomHIDInitialize 0037                                    _OSCCON 000FD3  
                i2USBTransferOnePacket@ep 002F                         ??i2_USBDeviceInit 0033  
         __size_ofi2_USBTransferOnePacket 00C0                         _shortPacketStatus 0021  
                          __CFG_XINST$OFF 000000                           USBDeviceTasks@i 0046  
             USBStdFeatureReqHandler@pUEP 0040                  USBTransferOnePacket@data 0061  
              USBCtrlTrfInHandler@lastDTS 002C                           ??_USBDeviceInit 0068  
                                  ___ftge 219A                                    ___wmul 2E44  
                               ??___ftadd 0094                            __CFG_STVREN$ON 000000  
                               ??___ftdiv 0085                                 ??___ftneg 0063  
                               ??___ftmul 0076                                 ??___ftsub 00A0  
                               ??___fttol 009E                                 ??___lwdiv 006B  
                       ??i2_BUTTON_Enable 002B                         _USBEnableEndpoint 2E04  
         __size_of_USBStdGetStatusHandler 00B6                                    _memcpy 2DC2  
                           ?i2_LED_Enable 002B                                    _memset 2E7C  
                                  clear_0 31A6                                    clear_1 31B2  
                      ?_USBEnableEndpoint 0033                        __end_of_ADC_Enable 3158  
                                  floor@i 00B6                                    floor@x 00B3  
                   ___ftmul@f3_as_product 007A             __size_of_USBTransferOnePacket 00DE  
                         ??_BUTTON_Enable 0060                              __mediumconst 7EFE  
                                  tblptrh 000FF7                                    tblptrl 000FF6  
                                  tblptru 000FF8                       ??_USBEnableEndpoint 0034  
                             _CtrlTrfData 000428                      _controlTransferState 001F  
              ??_APP_DeviceCustomHIDTasks 00D5                      __CFG_LS48MHZ$SYS48X8 000000  
                        __end_ofexp@coeff 7FB0                         _SYSTEM_Initialize 2B7C  
                        __end_oflog@coeff 7FE8                                __accesstop 0060  
                 __end_of__initialization 31B8                                ___altoft@c 00A9  
                         __CFG_PBADEN$OFF 000000                                ___ftadd@f1 008E  
                              ___ftadd@f2 0091                                ___ftge@ff1 0060  
                              ___ftge@ff2 0063                             _ADC_Read10bit 2B08  
                      ?_SYSTEM_Initialize 002B                              eval_poly@res 00A3  
                           ___rparam_used 000001                                ___ftdiv@f1 007F  
                              ___ftdiv@f2 0082                                ___ftdiv@f3 0089  
                __size_of_USBStallHandler 0044                                ___ftneg@f1 0060  
                              ___awtoft@c 0068                                 ?i2_LED_On 002B  
                              ___lbtoft@c 006B                       __size_of_USBSuspend 002E  
                              ___ftmul@f1 0070                                ___ftmul@f2 0073  
                              ___ftsub@f1 009A                                ___ftsub@f2 009D  
                              ___fttol@f1 009A                            __pcstackCOMRAM 002B  
               __end_of_USBEnableEndpoint 2E44                          __CFG_nPWRTEN$OFF 000000  
                           __end_of_sd000 7FFE                             __end_of_sd001 7F3B  
                           __end_of_sd002 7F69                       ??_SYSTEM_Initialize 0061  
                               LED_On@led 0060                                ___lltoft@c 0068  
        __size_of_USBCtrlEPAllowDataStage 00A0           __size_ofi2_ADC_SetConfiguration 0018  
                           __end_of_floor 1B42                             __end_of_ldexp 16EC  
                          ??i2_LED_Enable 002B                             __end_of_frexp 260E  
                         _active_protocol 00F5                              ??_LED_Enable 0060  
           __size_of_USBConfigureEndpoint 0096               __end_of_USBCtrlTrfInHandler 24AA  
                 ?_APP_LEDUpdateUSBStatus 002B                    i2_USBTransferOnePacket 232C  
                            ??_LED_Toggle 0060                           __CFG_PCLKEN$OFF 000000  
                          __CFG_nLPBOR$ON 000000                                 ?i2_memset 002B  
                ??_USBCtrlTrfSetupHandler 0045                   _USBTicksSinceSuspendEnd 00F4  
                                 ??_floor 00B6                                   ??_ldexp 00AB  
                                 ??_frexp 0065                          ?_USBDeviceAttach 002B  
               __end_of_SYSTEM_Initialize 2BDA             __size_of_ADC_SetConfiguration 001E  
                  _USBStdGetStatusHandler 24AA                                __pbssBANK0 00E2  
                                 ?_LED_On 002B                        __size_of_eval_poly 00EE  
                          ?_ADC_Read10bit 0061                        __end_of_LED_Enable 2F80  
             __size_of_USBWakeFromSuspend 0036                               _pBDTEntryIn 0009  
        __end_of_USBCtrlEPServiceComplete 1C40     __end_of_APP_DeviceCustomHIDInitialize 2F1E  
  __size_of_APP_DeviceCustomHIDInitialize 0036             _APP_DeviceCustomHIDInitialize 2EE8  
                      __end_of_LED_Toggle 30BA                                ??i2_LED_On 002B  
                       __CFG_PLLSEL$PLL3X 000000                      USBCtrlTrfRxService@i 002B  
                                 ?___ftge 0060                             LED_Enable@led 0060  
                                 ?___wmul 0060            __end_of_APP_LEDUpdateUSBStatus 2984  
                               ?___altoft 00A9                                   ?_memcpy 002B  
                    __end_ofi2_ADC_Enable 3206                                   ?_memset 0060  
                              _device_dsc 7FE8                              i2LED_Off@led 002B  
                               ?___awtoft 0068                                 ?___ftpack 0060  
                               ?___lbtoft 0068                          _USBCtrlEPService 27E6  
                              _ep_data_in 000F                                 ?___lltoft 0068  
           _APP_DeviceCustomHIDTasks$3084 00D7               __end_of_USBCtrlTrfRxService 1A44  
             APP_DeviceCustomHIDTasks@pot 00DE                        _USBCheckStdRequest 1E1E  
                       _configDescriptor1 7F69                                   _LED_Off 30E2  
                         __CFG_WDTEN$SWON 000000               __end_ofi2_SYSTEM_Initialize 2C92  
                              ??i2_memset 0031               __end_of_USBCtrlTrfTxService 219A  
                     _USBStdSetCfgHandler 1FDE                                   _OSCCON2 000FD2  
                                 _OSCTUNE 000F9B                    i2_ADC_SetConfiguration 3242  
                     ?_USBCheckStdRequest 002B              __size_of_USBStdGetDscHandler 0124  
                                 _UIEbits 000F64                                   _UIRbits 000F65  
                         __size_of_LED_On 0028            APP_LEDUpdateUSBStatus@ledCount 000D  
                                 __Hparam 0000                __end_of_ADC_ReadPercentage 2CE6  
         ??_USBIncrement1msInternalTimers 002B                      ?_USBStdSetCfgHandler 002B  
             __size_of_USBCheckHIDRequest 00F0                                   __Lparam 0000  
                       __end_of_hid_rpt01 7FCD                __size_of_USBEnableEndpoint 0040  
     i2ADC_SetConfiguration@configuration 002B         ADC_SetConfiguration@configuration 0060  
                    ??_USBCheckStdRequest 0045                           __size_of___ftge 00CE  
           __size_of_USBCtrlTrfOutHandler 005E                          _ToSendDataBuffer 000540  
                                 ___ftadd 0600                                   ___ftdiv 11E4  
                                 ___ftneg 2F80                          ??_USBDeviceTasks 0046  
                         __size_of___wmul 0038                                   ___ftmul 0C6E  
                                 ___ftsub 2CE6                                   ___fttol 1092  
                                 ___lwdiv 2984                         ??_USBStallHandler 002B  
                              ??___altoft 00AD                                   __pcinit 31A0  
                         __size_of_memcpy 0042                                ??___awtoft 006B  
                              ??___ftpack 0065                                ??___lbtoft 006B  
                       __end_of_eval_poly 1E1E                           __size_of_memset 0036  
               __end_of_configDescriptor1 7F92                                   __ramtop 0800  
                              ??___lltoft 006C                                   __ptext0 3068  
                                 __ptext1 0DDA                                   __ptext2 2E7C  
                                 __ptext3 2F1E                                   __ptext4 2B7C  
                                 __ptext5 2F50                                   __ptext6 31C2  
                                 __ptext7 3206                                   __ptext8 3132  
                                 __ptext9 0082                                   _inPipes 0022  
             _USBDeferOUTDataStagePackets 00F3                              ??_USBSuspend 003F  
                            __size_of_exp 023A                              __size_of_log 0152  
                            __size_of_pow 01B6                           i2_USBDeviceInit 147E  
                        i2USBDeviceInit@i 0033                        __end_of_USB_CD_Ptr 7F07  
              __size_of_SYSTEM_Initialize 005E           __size_of_USBCtrlTrfSetupHandler 0086  
                    end_of_initialization 31B8                           ??_ADC_Read10bit 0063  
                                 exp@sign 00C3                      __end_ofi2_LED_Enable 3068  
                      __end_of_USB_SD_Ptr 7F05                                   memcpy@d 0031  
                                 memcpy@n 002F                                   memcpy@s 0033  
                     _pBDTEntryEP0OutNext 0015                                   memset@c 0062  
                                 memset@n 0064                                   memset@p 0066  
                           __Lmediumconst 7EFE                           _USB1msTickCount 00E2  
                         i2_BUTTON_Enable 3224                  ?_USBStdFeatureReqHandler 002B  
                               i2_LED_Off 317C                     ??_USBStdSetCfgHandler 003F  
                                 pow@sign 00D0                        __end_of_USBSuspend 300E  
                 _USBCtrlEPAllowDataStage 26B0                                   postdec2 000FDD  
                                 postinc0 000FEE                                   postinc2 000FDE  
                _USBCtrlEPServiceComplete 1B42                _USBStatusStageEnabledFlag1 001C  
              _USBStatusStageEnabledFlag2 001D                        USBEnableEndpoint@p 0034  
                               _PORTDbits 000F83                             LED_Toggle@led 0060  
                               _TRISAbits 000F92                                 _TRISCbits 000F94  
                               _TRISDbits 000F95                        _ReceivedDataBuffer 000500  
                      _BothEP0OutUOWNsSet 0017                 USBConfigureEndpoint@EPNum 0030  
              ?_USBCtrlEPAllowStatusStage 002B       USER_USB_CALLBACK_EVENT_HANDLER@size 003B  
                               _USTATcopy 002A              __end_of_USBTransferOnePacket 1FDE  
                          __end_of_LED_On 30E2                               ___ftdiv@exp 008C  
                              ?i2_LED_Off 002B                     __size_ofi2_ADC_Enable 0022  
                             ___ftmul@exp 0079                    _USBCtrlTrfSetupHandler 2878  
                       __size_ofi2_LED_On 0024                   ?i2_USBTransferOnePacket 002B  
                   __end_of_USBDeviceInit 0F40                            __end_of___ftge 2268  
   __end_of_USBIncrement1msInternalTimers 3132    __size_of_USBIncrement1msInternalTimers 0028  
           _USBIncrement1msInternalTimers 310A                                LED_Off@led 0060  
                          __end_of___wmul 2E7C                   __end_ofi2_USBDeviceInit 15C6  
                               i2memset@c 002D                                 i2memset@n 002F  
                               i2memset@p 0031                            __end_of_memcpy 2E04  
                          __end_of_memset 2EB2                                floor@expon 00B9  
                       _USBBusIsSuspended 0019                       start_initialization 31A0  
                 ?_USBStdGetStatusHandler 002B                                eval_poly@d 009D  
                              eval_poly@n 009F                                eval_poly@x 009A  
                i2SYSTEM_Initialize@state 002C                     __end_of_BUTTON_Enable 31E4  
           USBCtrlTrfRxService@byteToRead 002C                                ldexp@value 00A6  
                             __end_of_exp 0AB8                               __end_of_log 1092  
                             __end_of_pow 0C6E                   __end_ofi2_BUTTON_Enable 3242  
                       __size_ofi2_memset 002E              __end_of_USBConfigureEndpoint 27E6  
         __end_of_USBStdFeatureReqHandler 0600                                  ??_LED_On 0060  
       __end_of_USBCtrlEPAllowStatusStage 232C                              i2_ADC_Enable 31E4  
                              frexp@value 0060                  __end_of_USBCtrlEPService 2878  
               ??_USBCtrlEPAllowDataStage 002C             APP_DeviceCustomHIDTasks@i_859 00E1  
                          USBDeviceInit@i 0068                    _pBDTEntryEP0OutCurrent 0013  
                 USBTransferOnePacket@dir 0060                   USBTransferOnePacket@len 0063  
          __end_ofi2_USBTransferOnePacket 23EC                                  ??___ftge 0066  
            __end_of_ADC_SetConfiguration 3224                                  ??___wmul 0064  
                     _USBStdGetDscHandler 16EC         __size_of_APP_DeviceCustomHIDTasks 02F0  
               ?_APP_DeviceCustomHIDTasks 002B                                  ??_memcpy 0031  
                                ??_memset 0066                         __size_of___altoft 00A2  
                  _USBActiveConfiguration 0028            __end_of_USBStdGetStatusHandler 2560  
                       __size_of___awtoft 0048                         __size_of___ftpack 0120  
                       __size_of___lbtoft 0030                                  ?_LED_Off 002B  
                 ?i2_ADC_SetConfiguration 002B                         __size_of___lltoft 0080  
                             __pbssCOMRAM 0001                             __pcstackBANK0 0060  
            __size_of_USBCtrlTrfInHandler 00BE                     __size_ofi2_LED_Enable 002C  
                    ?_USBStdGetDscHandler 002B                __end_of_USBWakeFromSuspend 2EE8  
                         _USBStallHandler 2D7E                       i2ADC_Enable@channel 002B  
                            _pBDTEntryOut 00E6                               ??i2_LED_Off 002B  
                __size_of_USBDeviceAttach 0032                          ___lwdiv@dividend 0067  
                   i2BUTTON_Enable@button 002B                                 __pintcode 0008  
                           __pmediumconst 7EFE                                  ?___ftadd 008E  
                             i2LED_On@led 002B                                  ?___ftdiv 007F  
                                ?___ftneg 0060                                  ?___ftmul 0070  
                                ?___ftsub 009A                                  ?___fttol 009A  
                                ?___lwdiv 0067                                 _hid_rpt01 7FB0  
                               _idle_rate 00F6                              i2_LED_Enable 303C  
                        ?i2_USBDeviceInit 002B            __end_ofi2_ADC_SetConfiguration 325A  
                      _ADC_ReadPercentage 2C92                      _USBTransferOnePacket 1F00  
                               _eval_poly 1D30              __end_of_USBCtrlTrfOutHandler 2C38  
                   ??_USBStdGetDscHandler 002B                               _ep_data_out 0011  
                        ___lwdiv@quotient 006C                       ?_ADC_ReadPercentage 002B  
                        ?i2_BUTTON_Enable 002B                            __size_of_floor 00FE  
                          __size_of_ldexp 0126                            __size_of_frexp 00AE  
            __size_of_USBCtrlTrfRxService 0114             USBConfigureEndpoint@direction 002B  
            __size_ofi2_SYSTEM_Initialize 005A              __size_of_USBCtrlTrfTxService 00DE  
                          ___wmul@product 0064                                  _LATCbits 000F8B  
              __end_of_USBCheckHIDRequest 1D30                ??_USBCtrlEPServiceComplete 002C  
                                _IPR3bits 000FA5                                  _PIE3bits 000FA3  
                                i2_LED_On 3158                                  i2u301_40 17DE  
                                i2u301_47 17D4                                  i2u260_40 293C  
                                i2u274_40 213A                                  i2u274_47 2130  
                                i2u276_40 217E                                  i2u276_47 2174  
                                _PIR3bits 000FA4                                  i2u298_40 1760  
                                i2u298_47 1756                                  i2u299_40 178E  
                                i2u299_47 1784                                  _RCONbits 000FD0  
                        __CFG_WDTPS$32768 000000                      ??_ADC_ReadPercentage 006E  
                                _UEP0bits 000F6A                _USBDeferINDataStagePackets 00F2  
             __size_of_USBCheckStdRequest 00E2                                  _UCONbits 000F60  
                    _USBConfigureEndpoint 2750          __size_of_USBStdFeatureReqHandler 028E  
                              _ADCON0bits 000FC2                         ___wmul@multiplier 0060  
                   ?_USBTransferOnePacket 0060                           i2LED_Enable@led 002B  
                       _SYS_InterruptHigh 0008                                ?_eval_poly 009A  
                            _RemoteWakeup 0018                                  i2_memset 300E  
                       __CFG_CFGPLLEN$OFF 000000                          __size_of_LED_Off 0028  
                      ?_SYS_InterruptHigh 002B                   __end_of_USBStallHandler 2DC2  
                    _ADC_SetConfiguration 3206               ??_USBCtrlEPAllowStatusStage 002B  
             __end_of_USBStdSetCfgHandler 20BC                                _ADC_Enable 3132  
                     ??_SYS_InterruptHigh 0047                     __end_of_ADC_Read10bit 2B7C  
                      __end_of_device_dsc 7FFA                                 frexp@eptr 0063  
                ??_APP_LEDUpdateUSBStatus 002C                   ?_USBCtrlTrfSetupHandler 002B  
                 USBStdGetStatusHandler@p 002C                                  __Hrparam 0000  
                                __Lrparam 0000                    USBTransferOnePacket@ep 0064  
                      __CFG_BOREN$SBORDIS 000000                                  _SetupPkt 000420  
                   ?_USBConfigureEndpoint 002B                         ??_USBDeviceAttach 0060  
                        __size_of___ftadd 027E                          __size_of___ftdiv 0152  
                        __size_of___ftneg 0030                                  ___altoft 260E  
                        __size_of___ftmul 016C                          __size_of___ftsub 0050  
                        __size_of___fttol 0152                          __size_of___lwdiv 0082  
                                ___awtoft 2D36                                  ___ftpack 1810  
                                ___lbtoft 2FB0                 __end_of_SYS_InterruptHigh 007E  
                                ___lltoft 2A88                                _ANSELAbits 000F5B  
                              _ANSELCbits 000F5D                                _ANSELDbits 000F5E  
                                _exp$3087 00BE                   __size_of_USBDeviceTasks 0148  
                         ___lwdiv@divisor 0069                           ___lwdiv@counter 006B  
                                __ptext10 0AB8                                  __ptext11 0F40  
                                __ptext20 2E44                                  __ptext12 087E  
                                __ptext21 0C6E                                  __ptext13 15C6  
                                __ptext30 1F00                                  __ptext22 2CE6  
                                __ptext14 1A44                                  __ptext31 3092  
                                __ptext23 0600                                  __ptext15 2560  
                                __ptext40 2EB2                                  __ptext32 2C92  
                                __ptext24 2F80                                  __ptext16 1092  
                                __ptext41 2FE0                                  __ptext33 2984  
                                __ptext25 11E4                                  __ptext17 219A  
                                __ptext50 1FDE                                  __ptext42 2D7E  
                                __ptext34 2B08                                  __ptext26 2D36  
                                __ptext18 260E                                  __ptext51 300E  
                                __ptext43 310A                                  __ptext35 30BA  
                                __ptext27 2A88                                  __ptext19 1D30  
                                __ptext60 31E4                                  __ptext52 24AA  
                                __ptext44 27E6                                  __ptext36 30E2  
                                __ptext28 2FB0                                  __ptext61 1C40  
                                __ptext53 16EC                                  __ptext45 2DC2  
                                __ptext29 1810                                  __ptext70 1930  
                                __ptext62 28FE                                  __ptext54 0372  
                                __ptext46 2878                                  __ptext38 1336  
                                __ptext71 2268                                  __ptext63 3158  
                                __ptext55 2A06                                  __ptext47 1B42  
                                __ptext39 147E                                  __ptext72 23EC  
                                __ptext64 317C                                  __ptext56 2C38  
                                __ptext48 26B0                                  __ptext73 20BC  
                                __ptext65 2EE8                                  __ptext57 303C  
                                __ptext49 1E1E                                  __ptext66 232C  
                                __ptext58 3224                                  __ptext67 2E04  
                                __ptext59 3242                                  __ptext68 2750  
                                __ptext69 2BDA                 APP_DeviceCustomHIDTasks@i 00DF  
               APP_DeviceCustomHIDTasks@j 00E0                     ?_ADC_SetConfiguration 002B  
                                _pow$3085 00CA                                  _pow$3086 00CD  
                             _OSCCON2bits 000FD2          __end_of_APP_DeviceCustomHIDTasks 0372  
          __end_of_USBCtrlTrfSetupHandler 28FE                             __size_of_main 002A  
                       ?_USBCtrlEPService 002B                        ??_USBCtrlEPService 0045  
                     _USBCtrlTrfInHandler 23EC                       BUTTON_Enable@button 0060  
                                _outPipes 0001                      _USBCtrlTrfOutHandler 2BDA  
               _USBCtrlEPAllowStatusStage 2268                                _LED_Enable 2F50  
                  ??_USBTransferOnePacket 0064            ?_APP_DeviceCustomHIDInitialize 002B  
                                exp@coeff 7F92                                _LED_Toggle 3092  
                                log@coeff 7FCD                 _USBDeferStatusStagePacket 001A  
                              _INTCONbits 000FF2                               ??_eval_poly 00A1  
                    ?_USBCtrlTrfInHandler 002B                                  memcpy@d1 002B  
                                memcpy@s1 002D             USBCtrlTrfTxService@byteToSend 002B  
                                memset@p1 0060                          ?_USBStallHandler 002B  
                USBStdFeatureReqHandler@p 0043                                  intlevel2 0000  
                             ?_ADC_Enable 002B                    __size_of_USBDeviceInit 0166  
 __end_of_USER_USB_CALLBACK_EVENT_HANDLER 2A88  __size_of_USER_USB_CALLBACK_EVENT_HANDLER 0082  
       ??_USER_USB_CALLBACK_EVENT_HANDLER 003D          ?_USER_USB_CALLBACK_EVENT_HANDLER 0037  
         _USER_USB_CALLBACK_EVENT_HANDLER 2A06              i2USBTransferOnePacket@handle 0030  
                    ADC_Read10bit@channel 0066           __size_of_APP_LEDUpdateUSBStatus 0086  
              i2USBTransferOnePacket@data 002C                    ??_USBConfigureEndpoint 002C  
                   ?_USBCtrlTrfOutHandler 002B                    __size_of_BUTTON_Enable 0022  
                    __CFG_CPUDIV$NOCLKDIV 000000                       _USBCtrlTrfRxService 1930  
                      _USBWakeFromSuspend 2EB2                   _USBStdFeatureReqHandler 0372  
                     i2_SYSTEM_Initialize 2C38                       _USBCtrlTrfTxService 20BC  
              __size_of_SYS_InterruptHigh 0076                         ADC_Enable@channel 0060  
                     ?_USBWakeFromSuspend 002B                     ??_USBCtrlTrfInHandler 002C  
                   _USBAlternateInterface 0029                    ??_ADC_SetConfiguration 0060  
               i2USBTransferOnePacket@dir 002B                 i2USBTransferOnePacket@len 002E  
                     USBEnableEndpoint@ep 0036                           _endpoint_number 0020  
                     ADC_Read10bit@result 0064                      ?_USBCtrlTrfRxService 002B  
                      __CFG_FOSC$INTOSCIO 000000                      ?i2_SYSTEM_Initialize 002B  
                ?_USBCtrlEPAllowDataStage 002B                      ?_USBCtrlTrfTxService 002B  
            _USBStatusStageTimeoutCounter 001E                      ??_USBWakeFromSuspend 003F  
              USBTransferOnePacket@handle 0065                                _USB_CD_Ptr 7F05  
                             _USBInHandle 00EA                  _APP_DeviceCustomHIDTasks 0082  
